---
triple:          'arm64-apple-darwin'
binary-path:     '/Users/kajalbormon/Developer/Code/HakerRank/Lower_Bount_STL/output/lower_bount_STL'
relocations:
  - { offsetInCU: 0x47C5, offset: 0x47C5, size: 0x8, addend: 0x0, symName: __ZNSt3__17advanceB8ue170006INS_11__wrap_iterIPiEEllvEEvRT_T0_, symObjAddr: 0x27E8, symBinAddr: 0x100002D30, symSize: 0x38 }
  - { offsetInCU: 0x4856, offset: 0x4856, size: 0x8, addend: 0x0, symName: __ZNSt3__124__put_character_sequenceB8ue170006IcNS_11char_traitsIcEEEERNS_13basic_ostreamIT_T0_EES7_PKS4_m, symObjAddr: 0x2A24, symBinAddr: 0x100002F6C, symSize: 0x1F4 }
  - { offsetInCU: 0x63AF, offset: 0x63AF, size: 0x8, addend: 0x0, symName: __ZNSt3__111lower_boundB8ue170006INS_11__wrap_iterIPiEEiEET_S4_S4_RKT0_, symObjAddr: 0x3EC, symBinAddr: 0x100000934, symSize: 0x4C }
  - { offsetInCU: 0x6409, offset: 0x6409, size: 0x8, addend: 0x0, symName: __ZNSt3__14endlB8ue170006IcNS_11char_traitsIcEEEERNS_13basic_ostreamIT_T0_EES7_, symObjAddr: 0x500, symBinAddr: 0x100000A48, symSize: 0x58 }
  - { offsetInCU: 0x6449, offset: 0x6449, size: 0x8, addend: 0x0, symName: __ZNSt3__1miB8ue170006IPiS1_EENS_11__wrap_iterIT_E15difference_typeERKS4_RKNS2_IT0_EE, symObjAddr: 0x558, symBinAddr: 0x100000AA0, symSize: 0x48 }
  - { offsetInCU: 0x6495, offset: 0x6495, size: 0x8, addend: 0x0, symName: __ZNSt3__1neB8ue170006IPiEEbRKNS_11__wrap_iterIT_EES6_, symObjAddr: 0x5A0, symBinAddr: 0x100000AE8, symSize: 0x34 }
  - { offsetInCU: 0x64D8, offset: 0x64D8, size: 0x8, addend: 0x0, symName: __ZNSt3__1lsB8ue170006INS_11char_traitsIcEEEERNS_13basic_ostreamIcT_EES6_PKc, symObjAddr: 0x5D4, symBinAddr: 0x100000B1C, symSize: 0x48 }
  - { offsetInCU: 0x651E, offset: 0x651E, size: 0x8, addend: 0x0, symName: __ZNSt3__112__to_addressB8ue170006IiEEPT_S2_, symObjAddr: 0xB04, symBinAddr: 0x10000104C, symSize: 0x14 }
  - { offsetInCU: 0x6553, offset: 0x6553, size: 0x8, addend: 0x0, symName: __ZNSt3__130__libcpp_is_constant_evaluatedB8ue170006Ev, symObjAddr: 0xC0C, symBinAddr: 0x100001154, symSize: 0xC }
  - { offsetInCU: 0x6570, offset: 0x6570, size: 0x8, addend: 0x0, symName: __ZNSt3__119__libcpp_deallocateB8ue170006EPvmm, symObjAddr: 0xC18, symBinAddr: 0x100001160, symSize: 0x30 }
  - { offsetInCU: 0x65B8, offset: 0x65B8, size: 0x8, addend: 0x0, symName: __ZNSt3__127__do_deallocate_handle_sizeB8ue170006IJEEEvPvmDpT_, symObjAddr: 0xC48, symBinAddr: 0x100001190, symSize: 0x28 }
  - { offsetInCU: 0x65F6, offset: 0x65F6, size: 0x8, addend: 0x0, symName: __ZNSt3__124__libcpp_operator_deleteB8ue170006IJPvEEEvDpT_, symObjAddr: 0xC70, symBinAddr: 0x1000011B8, symSize: 0x24 }
  - { offsetInCU: 0x662B, offset: 0x662B, size: 0x8, addend: 0x0, symName: __ZNSt3__13maxB8ue170006ImEERKT_S3_S3_, symObjAddr: 0x12F0, symBinAddr: 0x100001838, symSize: 0x2C }
  - { offsetInCU: 0x666E, offset: 0x666E, size: 0x8, addend: 0x0, symName: __ZNSt3__13minB8ue170006ImEERKT_S3_S3_, symObjAddr: 0x131C, symBinAddr: 0x100001864, symSize: 0x2C }
  - { offsetInCU: 0x68B2, offset: 0x68B2, size: 0x8, addend: 0x0, symName: __ZNSt3__13minB8ue170006ImNS_6__lessIvvEEEERKT_S5_S5_T0_, symObjAddr: 0x13A8, symBinAddr: 0x1000018F0, symSize: 0x54 }
  - { offsetInCU: 0x6982, offset: 0x6982, size: 0x8, addend: 0x0, symName: __ZNSt3__120__throw_length_errorB8ue170006EPKc, symObjAddr: 0x1484, symBinAddr: 0x1000019CC, symSize: 0x64 }
  - { offsetInCU: 0x69AC, offset: 0x69AC, size: 0x8, addend: 0x0, symName: __ZNSt3__13maxB8ue170006ImNS_6__lessIvvEEEERKT_S5_S5_T0_, symObjAddr: 0x1568, symBinAddr: 0x100001AB0, symSize: 0x54 }
  - { offsetInCU: 0x6A06, offset: 0x6A06, size: 0x8, addend: 0x0, symName: __ZNSt3__119__allocate_at_leastB8ue170006INS_9allocatorIiEEEENS_19__allocation_resultINS_16allocator_traitsIT_E7pointerEEERS5_m, symObjAddr: 0x16CC, symBinAddr: 0x100001C14, symSize: 0x40 }
  - { offsetInCU: 0x6A49, offset: 0x6A49, size: 0x8, addend: 0x0, symName: __ZNSt3__117__libcpp_allocateB8ue170006Emm, symObjAddr: 0x187C, symBinAddr: 0x100001DC4, symSize: 0x28 }
  - { offsetInCU: 0x6A86, offset: 0x6A86, size: 0x8, addend: 0x0, symName: __ZNSt3__121__libcpp_operator_newB8ue170006IJmEEEPvDpT_, symObjAddr: 0x18A4, symBinAddr: 0x100001DEC, symSize: 0x24 }
  - { offsetInCU: 0x6ABF, offset: 0x6ABF, size: 0x8, addend: 0x0, symName: __ZNSt3__142__uninitialized_allocator_move_if_noexceptB8ue170006INS_9allocatorIiEENS_16reverse_iteratorIPiEES5_ivEET1_RT_T0_S9_S6_, symObjAddr: 0x192C, symBinAddr: 0x100001E74, symSize: 0xE8 }
  - { offsetInCU: 0x6B3C, offset: 0x6B3C, size: 0x8, addend: 0x0, symName: __ZNSt3__14swapB8ue170006IPiEEvRT_S3_, symObjAddr: 0x1A60, symBinAddr: 0x100001FA8, symSize: 0x3C }
  - { offsetInCU: 0x6B8D, offset: 0x6B8D, size: 0x8, addend: 0x0, symName: __ZNSt3__1neB8ue170006IPiS1_EEbRKNS_16reverse_iteratorIT_EERKNS2_IT0_EE, symObjAddr: 0x1B48, symBinAddr: 0x100002090, symSize: 0x48 }
  - { offsetInCU: 0x6BFE, offset: 0x6BFE, size: 0x8, addend: 0x0, symName: __ZNSt3__114__construct_atB8ue170006IiJiEPiEEPT_S3_DpOT0_, symObjAddr: 0x1B90, symBinAddr: 0x1000020D8, symSize: 0x2C }
  - { offsetInCU: 0x6C6E, offset: 0x6C6E, size: 0x8, addend: 0x0, symName: __ZNSt3__112__to_addressB8ue170006INS_16reverse_iteratorIPiEEvEEu7__decayIDTclsr19__to_address_helperIT_EE6__callclsr3stdE7declvalIRKS4_EEEEES6_, symObjAddr: 0x1BBC, symBinAddr: 0x100002104, symSize: 0x24 }
  - { offsetInCU: 0x6CA4, offset: 0x6CA4, size: 0x8, addend: 0x0, symName: __ZNSt3__14moveB8ue170006INS_16reverse_iteratorIPiEES3_EET0_T_S5_S4_, symObjAddr: 0x1C28, symBinAddr: 0x100002170, symSize: 0x78 }
  - { offsetInCU: 0x6D27, offset: 0x6D27, size: 0x8, addend: 0x0, symName: __ZNSt3__16__moveB8ue170006INS_17_ClassicAlgPolicyENS_16reverse_iteratorIPiEES4_S4_EENS_4pairIT0_T2_EES6_T1_S7_, symObjAddr: 0x1D10, symBinAddr: 0x100002258, symSize: 0x64 }
  - { offsetInCU: 0x6D93, offset: 0x6D93, size: 0x8, addend: 0x0, symName: __ZNSt3__123__dispatch_copy_or_moveB8ue170006INS_17_ClassicAlgPolicyENS_11__move_loopIS1_EENS_14__move_trivialENS_16reverse_iteratorIPiEES7_S7_EENS_4pairIT2_T4_EES9_T3_SA_, symObjAddr: 0x1D74, symBinAddr: 0x1000022BC, symSize: 0x64 }
  - { offsetInCU: 0x6E11, offset: 0x6E11, size: 0x8, addend: 0x0, symName: __ZNSt3__121__unwrap_and_dispatchB8ue170006INS_10__overloadINS_11__move_loopINS_17_ClassicAlgPolicyEEENS_14__move_trivialEEENS_16reverse_iteratorIPiEES9_S9_Li0EEENS_4pairIT0_T2_EESB_T1_SC_, symObjAddr: 0x1DD8, symBinAddr: 0x100002320, symSize: 0x12C }
  - { offsetInCU: 0x6EA1, offset: 0x6EA1, size: 0x8, addend: 0x0, symName: __ZNSt3__114__unwrap_rangeB8ue170006INS_16reverse_iteratorIPiEES3_EENS_4pairIT0_S5_EET_S7_, symObjAddr: 0x1F04, symBinAddr: 0x10000244C, symSize: 0x84 }
  - { offsetInCU: 0x6FF5, offset: 0x6FF5, size: 0x8, addend: 0x0, symName: __ZNSt3__113__unwrap_iterB8ue170006INS_16reverse_iteratorIPiEENS_18__unwrap_iter_implIS3_Lb0EEELi0EEEDTclsrT0_8__unwrapclsr3stdE7declvalIT_EEEES7_, symObjAddr: 0x2028, symBinAddr: 0x100002570, symSize: 0x44 }
  - { offsetInCU: 0x7039, offset: 0x7039, size: 0x8, addend: 0x0, symName: __ZNSt3__19make_pairB8ue170006INS_16reverse_iteratorIPiEES3_EENS_4pairINS_18__unwrap_ref_decayIT_E4typeENS5_IT0_E4typeEEEOS6_OS9_, symObjAddr: 0x206C, symBinAddr: 0x1000025B4, symSize: 0x38 }
  - { offsetInCU: 0x7088, offset: 0x7088, size: 0x8, addend: 0x0, symName: __ZNSt3__114__rewrap_rangeB8ue170006INS_16reverse_iteratorIPiEES3_EET_S4_T0_, symObjAddr: 0x20A4, symBinAddr: 0x1000025EC, symSize: 0x5C }
  - { offsetInCU: 0x70D4, offset: 0x70D4, size: 0x8, addend: 0x0, symName: __ZNSt3__113__rewrap_iterB8ue170006INS_16reverse_iteratorIPiEES3_NS_18__unwrap_iter_implIS3_Lb0EEEEET_S6_T0_, symObjAddr: 0x2100, symBinAddr: 0x100002648, symSize: 0x88 }
  - { offsetInCU: 0x7226, offset: 0x7226, size: 0x8, addend: 0x0, symName: __ZNSt3__111lower_boundB8ue170006INS_11__wrap_iterIPiEEiNS_6__lessIvvEEEET_S6_S6_RKT0_T1_, symObjAddr: 0x2514, symBinAddr: 0x100002A5C, symSize: 0x58 }
  - { offsetInCU: 0x72A5, offset: 0x72A5, size: 0x8, addend: 0x0, symName: __ZNSt3__113__lower_boundB8ue170006INS_17_ClassicAlgPolicyENS_11__wrap_iterIPiEES4_iNS_10__identityENS_6__lessIvvEEEET0_S8_T1_RKT2_RT4_RT3_, symObjAddr: 0x256C, symBinAddr: 0x100002AB4, symSize: 0x108 }
  - { offsetInCU: 0x7377, offset: 0x7377, size: 0x8, addend: 0x0, symName: __ZNSt3__115__half_positiveB8ue170006IlEENS_9enable_ifIXsr11is_integralIT_EE5valueES2_E4typeES2_, symObjAddr: 0x26B0, symBinAddr: 0x100002BF8, symSize: 0x1C }
  - { offsetInCU: 0x73AC, offset: 0x73AC, size: 0x8, addend: 0x0, symName: __ZNSt3__18__invokeB8ue170006IRNS_6__lessIvvEEJRiRKiEEEDTclclsr3stdE7declvalIT_EEspclsr3stdE7declvalIT0_EEEEOS7_DpOS8_, symObjAddr: 0x26F8, symBinAddr: 0x100002C40, symSize: 0x38 }
  - { offsetInCU: 0x7411, offset: 0x7411, size: 0x8, addend: 0x0, symName: __ZNSt3__18__invokeB8ue170006IRNS_10__identityEJRiEEEDTclclsr3stdE7declvalIT_EEspclsr3stdE7declvalIT0_EEEEOS4_DpOS5_, symObjAddr: 0x2730, symBinAddr: 0x100002C78, symSize: 0x2C }
  - { offsetInCU: 0x7462, offset: 0x7462, size: 0x8, addend: 0x0, symName: __ZNSt3__18distanceB8ue170006INS_11__wrap_iterIPiEEEENS_15iterator_traitsIT_E15difference_typeES5_S5_, symObjAddr: 0x277C, symBinAddr: 0x100002CC4, symSize: 0x3C }
  - { offsetInCU: 0x74A5, offset: 0x74A5, size: 0x8, addend: 0x0, symName: __ZNSt3__110__distanceB8ue170006INS_11__wrap_iterIPiEEEENS_15iterator_traitsIT_E15difference_typeES5_S5_NS_26random_access_iterator_tagE, symObjAddr: 0x27B8, symBinAddr: 0x100002D00, symSize: 0x30 }
  - { offsetInCU: 0x74F2, offset: 0x74F2, size: 0x8, addend: 0x0, symName: __ZNSt3__121__convert_to_integralB8ue170006El, symObjAddr: 0x2820, symBinAddr: 0x100002D68, symSize: 0x14 }
  - { offsetInCU: 0x751E, offset: 0x751E, size: 0x8, addend: 0x0, symName: __ZNSt3__19__advanceB8ue170006INS_11__wrap_iterIPiEEEEvRT_NS_15iterator_traitsIS4_E15difference_typeENS_26random_access_iterator_tagE, symObjAddr: 0x2834, symBinAddr: 0x100002D7C, symSize: 0x2C }
  - { offsetInCU: 0x7594, offset: 0x7594, size: 0x8, addend: 0x0, symName: __ZNSt3__19use_facetB8ue170006INS_5ctypeIcEEEERKT_RKNS_6localeE, symObjAddr: 0x2960, symBinAddr: 0x100002EA8, symSize: 0x2C }
  - { offsetInCU: 0x7A61, offset: 0x7A61, size: 0x8, addend: 0x0, symName: __ZNSt3__1eqB8ue170006IPiEEbRKNS_11__wrap_iterIT_EES6_, symObjAddr: 0x29DC, symBinAddr: 0x100002F24, symSize: 0x48 }
  - { offsetInCU: 0x7AA4, offset: 0x7AA4, size: 0x8, addend: 0x0, symName: __ZNSt3__116__pad_and_outputB8ue170006IcNS_11char_traitsIcEEEENS_19ostreambuf_iteratorIT_T0_EES6_PKS4_S8_S8_RNS_8ios_baseES4_, symObjAddr: 0x2C7C, symBinAddr: 0x1000031C4, symSize: 0x248 }
  - { offsetInCU: 0x7B73, offset: 0x7B73, size: 0x8, addend: 0x0, symName: __ZNSt3__112__to_addressB8ue170006IKcEEPT_S3_, symObjAddr: 0x31EC, symBinAddr: 0x100003734, symSize: 0x14 }
  - { offsetInCU: 0x7BDB, offset: 0x7BDB, size: 0x8, addend: 0x0, symName: __ZNSt3__118__constexpr_strlenB8ue170006EPKc, symObjAddr: 0x346C, symBinAddr: 0x1000039B4, symSize: 0x24 }
  - { offsetInCU: 0x7E09, offset: 0x7E09, size: 0x8, addend: 0x0, symName: __ZSt28__throw_bad_array_new_lengthB8ue170006v, symObjAddr: 0x1848, symBinAddr: 0x100001D90, symSize: 0x34 }
  - { offsetInCU: 0x82A0, offset: 0x82A0, size: 0x8, addend: 0x0, symName: __ZNSt3__16vectorIiNS_9allocatorIiEEE26__swap_out_circular_bufferERNS_14__split_bufferIiRS2_EE, symObjAddr: 0x1124, symBinAddr: 0x10000166C, symSize: 0x110 }
  - { offsetInCU: 0xA729, offset: 0xA729, size: 0x8, addend: 0x0, symName: _main, symObjAddr: 0x0, symBinAddr: 0x100000548, symSize: 0x354 }
  - { offsetInCU: 0xA7C5, offset: 0xA7C5, size: 0x8, addend: 0x0, symName: __ZNSt3__16vectorIiNS_9allocatorIiEEEC1B8ue170006Ev, symObjAddr: 0x354, symBinAddr: 0x10000089C, symSize: 0x2C }
  - { offsetInCU: 0xA7ED, offset: 0xA7ED, size: 0x8, addend: 0x0, symName: __ZNSt3__16vectorIiNS_9allocatorIiEEE9push_backB8ue170006ERKi, symObjAddr: 0x380, symBinAddr: 0x1000008C8, symSize: 0x6C }
  - { offsetInCU: 0xA822, offset: 0xA822, size: 0x8, addend: 0x0, symName: __ZNSt3__16vectorIiNS_9allocatorIiEEE5beginB8ue170006Ev, symObjAddr: 0x438, symBinAddr: 0x100000980, symSize: 0x30 }
  - { offsetInCU: 0xA848, offset: 0xA848, size: 0x8, addend: 0x0, symName: __ZNSt3__16vectorIiNS_9allocatorIiEEE3endB8ue170006Ev, symObjAddr: 0x468, symBinAddr: 0x1000009B0, symSize: 0x30 }
  - { offsetInCU: 0xA86F, offset: 0xA86F, size: 0x8, addend: 0x0, symName: __ZNSt3__16vectorIiNS_9allocatorIiEEEixB8ue170006Em, symObjAddr: 0x498, symBinAddr: 0x1000009E0, symSize: 0x24 }
  - { offsetInCU: 0xA8A5, offset: 0xA8A5, size: 0x8, addend: 0x0, symName: __ZNKSt3__111__wrap_iterIPiEdeB8ue170006Ev, symObjAddr: 0x4BC, symBinAddr: 0x100000A04, symSize: 0x18 }
  - { offsetInCU: 0xA8CA, offset: 0xA8CA, size: 0x8, addend: 0x0, symName: __ZNSt3__113basic_ostreamIcNS_11char_traitsIcEEElsB8ue170006EPFRS3_S4_E, symObjAddr: 0x4D4, symBinAddr: 0x100000A1C, symSize: 0x2C }
  - { offsetInCU: 0xA8FD, offset: 0xA8FD, size: 0x8, addend: 0x0, symName: __ZNSt3__16vectorIiNS_9allocatorIiEEED1B8ue170006Ev, symObjAddr: 0x61C, symBinAddr: 0x100000B64, symSize: 0x2C }
  - { offsetInCU: 0xA926, offset: 0xA926, size: 0x8, addend: 0x0, symName: __ZNSt3__16vectorIiNS_9allocatorIiEEEC2B8ue170006Ev, symObjAddr: 0x654, symBinAddr: 0x100000B9C, symSize: 0x44 }
  - { offsetInCU: 0xA959, offset: 0xA959, size: 0x8, addend: 0x0, symName: __ZNSt3__117__compressed_pairIPiNS_9allocatorIiEEEC1B8ue170006IDnNS_18__default_init_tagEEEOT_OT0_, symObjAddr: 0x698, symBinAddr: 0x100000BE0, symSize: 0x3C }
  - { offsetInCU: 0xA9B0, offset: 0xA9B0, size: 0x8, addend: 0x0, symName: __ZNSt3__117__compressed_pairIPiNS_9allocatorIiEEEC2B8ue170006IDnNS_18__default_init_tagEEEOT_OT0_, symObjAddr: 0x6D4, symBinAddr: 0x100000C1C, symSize: 0x40 }
  - { offsetInCU: 0xAA07, offset: 0xAA07, size: 0x8, addend: 0x0, symName: __ZNSt3__122__compressed_pair_elemIPiLi0ELb0EEC2B8ue170006IDnvEEOT_, symObjAddr: 0x714, symBinAddr: 0x100000C5C, symSize: 0x1C }
  - { offsetInCU: 0xAA48, offset: 0xAA48, size: 0x8, addend: 0x0, symName: __ZNSt3__122__compressed_pair_elemINS_9allocatorIiEELi1ELb1EEC2B8ue170006ENS_18__default_init_tagE, symObjAddr: 0x730, symBinAddr: 0x100000C78, symSize: 0x2C }
  - { offsetInCU: 0xAA7B, offset: 0xAA7B, size: 0x8, addend: 0x0, symName: __ZNSt3__19allocatorIiEC2B8ue170006Ev, symObjAddr: 0x75C, symBinAddr: 0x100000CA4, symSize: 0x2C }
  - { offsetInCU: 0xAAA4, offset: 0xAAA4, size: 0x8, addend: 0x0, symName: __ZNSt3__116__non_trivial_ifILb1ENS_9allocatorIiEEEC2B8ue170006Ev, symObjAddr: 0x788, symBinAddr: 0x100000CD0, symSize: 0x14 }
  - { offsetInCU: 0xAACD, offset: 0xAACD, size: 0x8, addend: 0x0, symName: __ZNSt3__16vectorIiNS_9allocatorIiEEED2B8ue170006Ev, symObjAddr: 0x79C, symBinAddr: 0x100000CE4, symSize: 0x3C }
  - { offsetInCU: 0xAAF6, offset: 0xAAF6, size: 0x8, addend: 0x0, symName: __ZNSt3__16vectorIiNS_9allocatorIiEEE16__destroy_vectorC1B8ue170006ERS3_, symObjAddr: 0x7D8, symBinAddr: 0x100000D20, symSize: 0x34 }
  - { offsetInCU: 0xAB2E, offset: 0xAB2E, size: 0x8, addend: 0x0, symName: __ZNSt3__16vectorIiNS_9allocatorIiEEE16__destroy_vectorclB8ue170006Ev, symObjAddr: 0x80C, symBinAddr: 0x100000D54, symSize: 0x90 }
  - { offsetInCU: 0xAB53, offset: 0xAB53, size: 0x8, addend: 0x0, symName: __ZNSt3__16vectorIiNS_9allocatorIiEEE16__destroy_vectorC2B8ue170006ERS3_, symObjAddr: 0x89C, symBinAddr: 0x100000DE4, symSize: 0x20 }
  - { offsetInCU: 0xAB8B, offset: 0xAB8B, size: 0x8, addend: 0x0, symName: __ZNSt3__16vectorIiNS_9allocatorIiEEE7__clearB8ue170006Ev, symObjAddr: 0x8BC, symBinAddr: 0x100000E04, symSize: 0x28 }
  - { offsetInCU: 0xABB0, offset: 0xABB0, size: 0x8, addend: 0x0, symName: __ZNKSt3__16vectorIiNS_9allocatorIiEEE17__annotate_deleteB8ue170006Ev, symObjAddr: 0x8E4, symBinAddr: 0x100000E2C, symSize: 0xB8 }
  - { offsetInCU: 0xABD5, offset: 0xABD5, size: 0x8, addend: 0x0, symName: __ZNSt3__116allocator_traitsINS_9allocatorIiEEE10deallocateB8ue170006ERS2_Pim, symObjAddr: 0x99C, symBinAddr: 0x100000EE4, symSize: 0x34 }
  - { offsetInCU: 0xAC17, offset: 0xAC17, size: 0x8, addend: 0x0, symName: __ZNSt3__16vectorIiNS_9allocatorIiEEE7__allocB8ue170006Ev, symObjAddr: 0x9D0, symBinAddr: 0x100000F18, symSize: 0x28 }
  - { offsetInCU: 0xAC3C, offset: 0xAC3C, size: 0x8, addend: 0x0, symName: __ZNKSt3__16vectorIiNS_9allocatorIiEEE8capacityB8ue170006Ev, symObjAddr: 0x9F8, symBinAddr: 0x100000F40, symSize: 0x40 }
  - { offsetInCU: 0xAC61, offset: 0xAC61, size: 0x8, addend: 0x0, symName: __ZNSt3__16vectorIiNS_9allocatorIiEEE22__base_destruct_at_endB8ue170006EPi, symObjAddr: 0xA38, symBinAddr: 0x100000F80, symSize: 0xA0 }
  - { offsetInCU: 0xACA4, offset: 0xACA4, size: 0x8, addend: 0x0, symName: __ZNSt3__116allocator_traitsINS_9allocatorIiEEE7destroyB8ue170006IivEEvRS2_PT_, symObjAddr: 0xAD8, symBinAddr: 0x100001020, symSize: 0x2C }
  - { offsetInCU: 0xACE1, offset: 0xACE1, size: 0x8, addend: 0x0, symName: __ZNSt3__19allocatorIiE7destroyB8ue170006EPi, symObjAddr: 0xB18, symBinAddr: 0x100001060, symSize: 0x14 }
  - { offsetInCU: 0xAD14, offset: 0xAD14, size: 0x8, addend: 0x0, symName: __ZNKSt3__16vectorIiNS_9allocatorIiEEE31__annotate_contiguous_containerB8ue170006EPKvS5_S5_S5_, symObjAddr: 0xB2C, symBinAddr: 0x100001074, symSize: 0x20 }
  - { offsetInCU: 0xAD65, offset: 0xAD65, size: 0x8, addend: 0x0, symName: __ZNKSt3__16vectorIiNS_9allocatorIiEEE4dataB8ue170006Ev, symObjAddr: 0xB4C, symBinAddr: 0x100001094, symSize: 0x28 }
  - { offsetInCU: 0xAD8A, offset: 0xAD8A, size: 0x8, addend: 0x0, symName: __ZNKSt3__16vectorIiNS_9allocatorIiEEE4sizeB8ue170006Ev, symObjAddr: 0xB74, symBinAddr: 0x1000010BC, symSize: 0x28 }
  - { offsetInCU: 0xADAF, offset: 0xADAF, size: 0x8, addend: 0x0, symName: __ZNSt3__19allocatorIiE10deallocateB8ue170006EPim, symObjAddr: 0xB9C, symBinAddr: 0x1000010E4, symSize: 0x70 }
  - { offsetInCU: 0xADF0, offset: 0xADF0, size: 0x8, addend: 0x0, symName: __ZNSt3__117__compressed_pairIPiNS_9allocatorIiEEE6secondB8ue170006Ev, symObjAddr: 0xC94, symBinAddr: 0x1000011DC, symSize: 0x24 }
  - { offsetInCU: 0xAE15, offset: 0xAE15, size: 0x8, addend: 0x0, symName: __ZNSt3__122__compressed_pair_elemINS_9allocatorIiEELi1ELb1EE5__getB8ue170006Ev, symObjAddr: 0xCB8, symBinAddr: 0x100001200, symSize: 0x14 }
  - { offsetInCU: 0xAE3A, offset: 0xAE3A, size: 0x8, addend: 0x0, symName: __ZNKSt3__16vectorIiNS_9allocatorIiEEE9__end_capB8ue170006Ev, symObjAddr: 0xCCC, symBinAddr: 0x100001214, symSize: 0x28 }
  - { offsetInCU: 0xAE5F, offset: 0xAE5F, size: 0x8, addend: 0x0, symName: __ZNKSt3__117__compressed_pairIPiNS_9allocatorIiEEE5firstB8ue170006Ev, symObjAddr: 0xCF4, symBinAddr: 0x10000123C, symSize: 0x24 }
  - { offsetInCU: 0xAE84, offset: 0xAE84, size: 0x8, addend: 0x0, symName: __ZNKSt3__122__compressed_pair_elemIPiLi0ELb0EE5__getB8ue170006Ev, symObjAddr: 0xD18, symBinAddr: 0x100001260, symSize: 0x14 }
  - { offsetInCU: 0xAEA9, offset: 0xAEA9, size: 0x8, addend: 0x0, symName: __ZNSt3__16vectorIiNS_9allocatorIiEEE9__end_capB8ue170006Ev, symObjAddr: 0xD2C, symBinAddr: 0x100001274, symSize: 0x28 }
  - { offsetInCU: 0xAECE, offset: 0xAECE, size: 0x8, addend: 0x0, symName: __ZNSt3__16vectorIiNS_9allocatorIiEEE22__construct_one_at_endB8ue170006IJRKiEEEvDpOT_, symObjAddr: 0xD54, symBinAddr: 0x10000129C, symSize: 0x98 }
  - { offsetInCU: 0xAF1B, offset: 0xAF1B, size: 0x8, addend: 0x0, symName: __ZNSt3__16vectorIiNS_9allocatorIiEEE21__push_back_slow_pathIRKiEEvOT_, symObjAddr: 0xDEC, symBinAddr: 0x100001334, symSize: 0xE0 }
  - { offsetInCU: 0xAF78, offset: 0xAF78, size: 0x8, addend: 0x0, symName: __ZNSt3__117__compressed_pairIPiNS_9allocatorIiEEE5firstB8ue170006Ev, symObjAddr: 0xECC, symBinAddr: 0x100001414, symSize: 0x24 }
  - { offsetInCU: 0xAF9D, offset: 0xAF9D, size: 0x8, addend: 0x0, symName: __ZNSt3__122__compressed_pair_elemIPiLi0ELb0EE5__getB8ue170006Ev, symObjAddr: 0xEF0, symBinAddr: 0x100001438, symSize: 0x14 }
  - { offsetInCU: 0xAFDB, offset: 0xAFDB, size: 0x8, addend: 0x0, symName: __ZNSt3__16vectorIiNS_9allocatorIiEEE21_ConstructTransactionC1B8ue170006ERS3_m, symObjAddr: 0xF04, symBinAddr: 0x10000144C, symSize: 0x3C }
  - { offsetInCU: 0xB022, offset: 0xB022, size: 0x8, addend: 0x0, symName: __ZNSt3__116allocator_traitsINS_9allocatorIiEEE9constructB8ue170006IiJRKiEvEEvRS2_PT_DpOT0_, symObjAddr: 0xF40, symBinAddr: 0x100001488, symSize: 0x34 }
  - { offsetInCU: 0xB079, offset: 0xB079, size: 0x8, addend: 0x0, symName: __ZNSt3__16vectorIiNS_9allocatorIiEEE21_ConstructTransactionD1B8ue170006Ev, symObjAddr: 0xF74, symBinAddr: 0x1000014BC, symSize: 0x2C }
  - { offsetInCU: 0xB0A2, offset: 0xB0A2, size: 0x8, addend: 0x0, symName: __ZNSt3__16vectorIiNS_9allocatorIiEEE21_ConstructTransactionC2B8ue170006ERS3_m, symObjAddr: 0xFA0, symBinAddr: 0x1000014E8, symSize: 0x44 }
  - { offsetInCU: 0xB0E9, offset: 0xB0E9, size: 0x8, addend: 0x0, symName: __ZNSt3__19allocatorIiE9constructB8ue170006IiJRKiEEEvPT_DpOT0_, symObjAddr: 0xFE4, symBinAddr: 0x10000152C, symSize: 0x28 }
  - { offsetInCU: 0xB13E, offset: 0xB13E, size: 0x8, addend: 0x0, symName: __ZNSt3__16vectorIiNS_9allocatorIiEEE21_ConstructTransactionD2B8ue170006Ev, symObjAddr: 0x100C, symBinAddr: 0x100001554, symSize: 0x20 }
  - { offsetInCU: 0xB166, offset: 0xB166, size: 0x8, addend: 0x0, symName: __ZNKSt3__16vectorIiNS_9allocatorIiEEE11__recommendB8ue170006Em, symObjAddr: 0x102C, symBinAddr: 0x100001574, symSize: 0xB4 }
  - { offsetInCU: 0xB1BA, offset: 0xB1BA, size: 0x8, addend: 0x0, symName: __ZNSt3__114__split_bufferIiRNS_9allocatorIiEEEC1EmmS3_, symObjAddr: 0x10E0, symBinAddr: 0x100001628, symSize: 0x44 }
  - { offsetInCU: 0xB20F, offset: 0xB20F, size: 0x8, addend: 0x0, symName: __ZNSt3__114__split_bufferIiRNS_9allocatorIiEEED1Ev, symObjAddr: 0x1234, symBinAddr: 0x10000177C, symSize: 0x2C }
  - { offsetInCU: 0xB239, offset: 0xB239, size: 0x8, addend: 0x0, symName: __ZNKSt3__16vectorIiNS_9allocatorIiEEE8max_sizeEv, symObjAddr: 0x1260, symBinAddr: 0x1000017A8, symSize: 0x74 }
  - { offsetInCU: 0xB260, offset: 0xB260, size: 0x8, addend: 0x0, symName: __ZNKSt3__16vectorIiNS_9allocatorIiEEE20__throw_length_errorB8ue170006Ev, symObjAddr: 0x12D4, symBinAddr: 0x10000181C, symSize: 0x1C }
  - { offsetInCU: 0xB28F, offset: 0xB28F, size: 0x8, addend: 0x0, symName: __ZNSt3__116allocator_traitsINS_9allocatorIiEEE8max_sizeB8ue170006IS2_vEEmRKS2_, symObjAddr: 0x1348, symBinAddr: 0x100001890, symSize: 0x24 }
  - { offsetInCU: 0xB2BD, offset: 0xB2BD, size: 0x8, addend: 0x0, symName: __ZNKSt3__16vectorIiNS_9allocatorIiEEE7__allocB8ue170006Ev, symObjAddr: 0x136C, symBinAddr: 0x1000018B4, symSize: 0x28 }
  - { offsetInCU: 0xB2E2, offset: 0xB2E2, size: 0x8, addend: 0x0, symName: __ZNSt3__114numeric_limitsIlE3maxB8ue170006Ev, symObjAddr: 0x1394, symBinAddr: 0x1000018DC, symSize: 0x14 }
  - { offsetInCU: 0xB30A, offset: 0xB30A, size: 0x8, addend: 0x0, symName: __ZNKSt3__16__lessIvvEclB8ue170006ImmEEbRKT_RKT0_, symObjAddr: 0x13FC, symBinAddr: 0x100001944, symSize: 0x34 }
  - { offsetInCU: 0xB35D, offset: 0xB35D, size: 0x8, addend: 0x0, symName: __ZNKSt3__19allocatorIiE8max_sizeB8ue170006Ev, symObjAddr: 0x1430, symBinAddr: 0x100001978, symSize: 0x14 }
  - { offsetInCU: 0xB382, offset: 0xB382, size: 0x8, addend: 0x0, symName: __ZNKSt3__117__compressed_pairIPiNS_9allocatorIiEEE6secondB8ue170006Ev, symObjAddr: 0x1444, symBinAddr: 0x10000198C, symSize: 0x24 }
  - { offsetInCU: 0xB3A7, offset: 0xB3A7, size: 0x8, addend: 0x0, symName: __ZNKSt3__122__compressed_pair_elemINS_9allocatorIiEELi1ELb1EE5__getB8ue170006Ev, symObjAddr: 0x1468, symBinAddr: 0x1000019B0, symSize: 0x14 }
  - { offsetInCU: 0xB3CC, offset: 0xB3CC, size: 0x8, addend: 0x0, symName: __ZNSt3__123__libcpp_numeric_limitsIlLb1EE3maxB8ue170006Ev, symObjAddr: 0x147C, symBinAddr: 0x1000019C4, symSize: 0x8 }
  - { offsetInCU: 0xB3E0, offset: 0xB3E0, size: 0x8, addend: 0x0, symName: __ZNSt12length_errorC1B8ue170006EPKc, symObjAddr: 0x14E8, symBinAddr: 0x100001A30, symSize: 0x34 }
  - { offsetInCU: 0xB417, offset: 0xB417, size: 0x8, addend: 0x0, symName: __ZNSt12length_errorC2B8ue170006EPKc, symObjAddr: 0x151C, symBinAddr: 0x100001A64, symSize: 0x4C }
  - { offsetInCU: 0xB44E, offset: 0xB44E, size: 0x8, addend: 0x0, symName: __ZNSt3__114__split_bufferIiRNS_9allocatorIiEEEC2EmmS3_, symObjAddr: 0x15BC, symBinAddr: 0x100001B04, symSize: 0xD4 }
  - { offsetInCU: 0xB4C0, offset: 0xB4C0, size: 0x8, addend: 0x0, symName: __ZNSt3__117__compressed_pairIPiRNS_9allocatorIiEEEC1B8ue170006IDnS4_EEOT_OT0_, symObjAddr: 0x1690, symBinAddr: 0x100001BD8, symSize: 0x3C }
  - { offsetInCU: 0xB517, offset: 0xB517, size: 0x8, addend: 0x0, symName: __ZNSt3__114__split_bufferIiRNS_9allocatorIiEEE7__allocB8ue170006Ev, symObjAddr: 0x170C, symBinAddr: 0x100001C54, symSize: 0x28 }
  - { offsetInCU: 0xB53C, offset: 0xB53C, size: 0x8, addend: 0x0, symName: __ZNSt3__114__split_bufferIiRNS_9allocatorIiEEE9__end_capB8ue170006Ev, symObjAddr: 0x1734, symBinAddr: 0x100001C7C, symSize: 0x28 }
  - { offsetInCU: 0xB561, offset: 0xB561, size: 0x8, addend: 0x0, symName: __ZNSt3__117__compressed_pairIPiRNS_9allocatorIiEEEC2B8ue170006IDnS4_EEOT_OT0_, symObjAddr: 0x175C, symBinAddr: 0x100001CA4, symSize: 0x48 }
  - { offsetInCU: 0xB5B8, offset: 0xB5B8, size: 0x8, addend: 0x0, symName: __ZNSt3__122__compressed_pair_elemIRNS_9allocatorIiEELi1ELb0EEC2B8ue170006IS3_vEEOT_, symObjAddr: 0x17A4, symBinAddr: 0x100001CEC, symSize: 0x20 }
  - { offsetInCU: 0xB5F9, offset: 0xB5F9, size: 0x8, addend: 0x0, symName: __ZNSt3__19allocatorIiE8allocateB8ue170006Em, symObjAddr: 0x17C4, symBinAddr: 0x100001D0C, symSize: 0x84 }
  - { offsetInCU: 0xB62C, offset: 0xB62C, size: 0x8, addend: 0x0, symName: __ZNSt3__117__compressed_pairIPiRNS_9allocatorIiEEE6secondB8ue170006Ev, symObjAddr: 0x18C8, symBinAddr: 0x100001E10, symSize: 0x28 }
  - { offsetInCU: 0xB651, offset: 0xB651, size: 0x8, addend: 0x0, symName: __ZNSt3__122__compressed_pair_elemIRNS_9allocatorIiEELi1ELb0EE5__getB8ue170006Ev, symObjAddr: 0x18F0, symBinAddr: 0x100001E38, symSize: 0x18 }
  - { offsetInCU: 0xB676, offset: 0xB676, size: 0x8, addend: 0x0, symName: __ZNSt3__117__compressed_pairIPiRNS_9allocatorIiEEE5firstB8ue170006Ev, symObjAddr: 0x1908, symBinAddr: 0x100001E50, symSize: 0x24 }
  - { offsetInCU: 0xB69B, offset: 0xB69B, size: 0x8, addend: 0x0, symName: __ZNSt3__116reverse_iteratorIPiEC1B8ue170006ES1_, symObjAddr: 0x1A14, symBinAddr: 0x100001F5C, symSize: 0x34 }
  - { offsetInCU: 0xB6D2, offset: 0xB6D2, size: 0x8, addend: 0x0, symName: __ZNKSt3__116reverse_iteratorIPiE4baseB8ue170006Ev, symObjAddr: 0x1A48, symBinAddr: 0x100001F90, symSize: 0x18 }
  - { offsetInCU: 0xB6F7, offset: 0xB6F7, size: 0x8, addend: 0x0, symName: __ZNKSt3__16vectorIiNS_9allocatorIiEEE14__annotate_newB8ue170006Em, symObjAddr: 0x1A9C, symBinAddr: 0x100001FE4, symSize: 0xAC }
  - { offsetInCU: 0xB72B, offset: 0xB72B, size: 0x8, addend: 0x0, symName: __ZNKSt3__116reverse_iteratorIPiEdeB8ue170006Ev, symObjAddr: 0x1BE0, symBinAddr: 0x100002128, symSize: 0x28 }
  - { offsetInCU: 0xB75E, offset: 0xB75E, size: 0x8, addend: 0x0, symName: __ZNSt3__116reverse_iteratorIPiEppB8ue170006Ev, symObjAddr: 0x1C08, symBinAddr: 0x100002150, symSize: 0x20 }
  - { offsetInCU: 0xB788, offset: 0xB788, size: 0x8, addend: 0x0, symName: __ZNSt3__119__to_address_helperINS_16reverse_iteratorIPiEEvE6__callB8ue170006ERKS3_, symObjAddr: 0x1CA0, symBinAddr: 0x1000021E8, symSize: 0x4C }
  - { offsetInCU: 0xB7AB, offset: 0xB7AB, size: 0x8, addend: 0x0, symName: __ZNKSt3__116reverse_iteratorIPiEptB8ue170006Ev, symObjAddr: 0x1CEC, symBinAddr: 0x100002234, symSize: 0x24 }
  - { offsetInCU: 0xB7F3, offset: 0xB7F3, size: 0x8, addend: 0x0, symName: __ZNKSt3__111__move_loopINS_17_ClassicAlgPolicyEEclB8ue170006INS_16reverse_iteratorIPiEES6_S6_EENS_4pairIT_T1_EES8_T0_S9_, symObjAddr: 0x1F88, symBinAddr: 0x1000024D0, symSize: 0xA0 }
  - { offsetInCU: 0xB862, offset: 0xB862, size: 0x8, addend: 0x0, symName: __ZNSt3__18_IterOpsINS_17_ClassicAlgPolicyEE11__iter_moveB8ue170006IRNS_16reverse_iteratorIPiEEEENS_9enable_ifIXsr12is_referenceIDTdeclsr3stdE7declvalIRT_EEEEE5valueEDTclsr3stdE4movedeclsr3stdE7declvalISA_EEEEE4typeEOS9_, symObjAddr: 0x2188, symBinAddr: 0x1000026D0, symSize: 0x28 }
  - { offsetInCU: 0xB88E, offset: 0xB88E, size: 0x8, addend: 0x0, symName: __ZNSt3__18_IterOpsINS_17_ClassicAlgPolicyEE25__validate_iter_referenceB8ue170006IRNS_16reverse_iteratorIPiEEEEvv, symObjAddr: 0x21B0, symBinAddr: 0x1000026F8, symSize: 0x4 }
  - { offsetInCU: 0xB8AC, offset: 0xB8AC, size: 0x8, addend: 0x0, symName: __ZNSt3__118__unwrap_iter_implINS_16reverse_iteratorIPiEELb0EE8__unwrapB8ue170006ES3_, symObjAddr: 0x21B4, symBinAddr: 0x1000026FC, symSize: 0x24 }
  - { offsetInCU: 0xB8CF, offset: 0xB8CF, size: 0x8, addend: 0x0, symName: __ZNSt3__14pairINS_16reverse_iteratorIPiEES3_EC1B8ue170006ERKS3_S6_, symObjAddr: 0x21D8, symBinAddr: 0x100002720, symSize: 0x3C }
  - { offsetInCU: 0xB914, offset: 0xB914, size: 0x8, addend: 0x0, symName: __ZNSt3__14pairINS_16reverse_iteratorIPiEES3_EC2B8ue170006ERKS3_S6_, symObjAddr: 0x2214, symBinAddr: 0x10000275C, symSize: 0x34 }
  - { offsetInCU: 0xB959, offset: 0xB959, size: 0x8, addend: 0x0, symName: __ZNSt3__118__unwrap_iter_implINS_16reverse_iteratorIPiEELb0EE8__rewrapB8ue170006ES3_S3_, symObjAddr: 0x2248, symBinAddr: 0x100002790, symSize: 0x2C }
  - { offsetInCU: 0xB986, offset: 0xB986, size: 0x8, addend: 0x0, symName: __ZNSt3__116reverse_iteratorIPiEC2B8ue170006ES1_, symObjAddr: 0x2274, symBinAddr: 0x1000027BC, symSize: 0x28 }
  - { offsetInCU: 0xB9BD, offset: 0xB9BD, size: 0x8, addend: 0x0, symName: __ZNSt3__114__split_bufferIiRNS_9allocatorIiEEED2Ev, symObjAddr: 0x229C, symBinAddr: 0x1000027E4, symSize: 0x80 }
  - { offsetInCU: 0xB9E8, offset: 0xB9E8, size: 0x8, addend: 0x0, symName: __ZNSt3__114__split_bufferIiRNS_9allocatorIiEEE5clearB8ue170006Ev, symObjAddr: 0x231C, symBinAddr: 0x100002864, symSize: 0x28 }
  - { offsetInCU: 0xBA0D, offset: 0xBA0D, size: 0x8, addend: 0x0, symName: __ZNKSt3__114__split_bufferIiRNS_9allocatorIiEEE8capacityB8ue170006Ev, symObjAddr: 0x2344, symBinAddr: 0x10000288C, symSize: 0x40 }
  - { offsetInCU: 0xBA32, offset: 0xBA32, size: 0x8, addend: 0x0, symName: __ZNSt3__114__split_bufferIiRNS_9allocatorIiEEE17__destruct_at_endB8ue170006EPi, symObjAddr: 0x2384, symBinAddr: 0x1000028CC, symSize: 0x2C }
  - { offsetInCU: 0xBA64, offset: 0xBA64, size: 0x8, addend: 0x0, symName: __ZNSt3__114__split_bufferIiRNS_9allocatorIiEEE17__destruct_at_endB8ue170006EPiNS_17integral_constantIbLb0EEE, symObjAddr: 0x23B0, symBinAddr: 0x1000028F8, symSize: 0x94 }
  - { offsetInCU: 0xBAA3, offset: 0xBAA3, size: 0x8, addend: 0x0, symName: __ZNKSt3__114__split_bufferIiRNS_9allocatorIiEEE9__end_capB8ue170006Ev, symObjAddr: 0x2444, symBinAddr: 0x10000298C, symSize: 0x28 }
  - { offsetInCU: 0xBAC8, offset: 0xBAC8, size: 0x8, addend: 0x0, symName: __ZNKSt3__117__compressed_pairIPiRNS_9allocatorIiEEE5firstB8ue170006Ev, symObjAddr: 0x246C, symBinAddr: 0x1000029B4, symSize: 0x24 }
  - { offsetInCU: 0xBAED, offset: 0xBAED, size: 0x8, addend: 0x0, symName: __ZNSt3__16vectorIiNS_9allocatorIiEEE11__make_iterB8ue170006EPi, symObjAddr: 0x2490, symBinAddr: 0x1000029D8, symSize: 0x30 }
  - { offsetInCU: 0xBB21, offset: 0xBB21, size: 0x8, addend: 0x0, symName: __ZNSt3__111__wrap_iterIPiEC1B8ue170006ES1_, symObjAddr: 0x24C0, symBinAddr: 0x100002A08, symSize: 0x34 }
  - { offsetInCU: 0xBB58, offset: 0xBB58, size: 0x8, addend: 0x0, symName: __ZNSt3__111__wrap_iterIPiEC2B8ue170006ES1_, symObjAddr: 0x24F4, symBinAddr: 0x100002A3C, symSize: 0x20 }
  - { offsetInCU: 0xBB8F, offset: 0xBB8F, size: 0x8, addend: 0x0, symName: __ZNSt3__18_IterOpsINS_17_ClassicAlgPolicyEE8distanceB8ue170006INS_11__wrap_iterIPiEEEENS_15iterator_traitsIT_E15difference_typeES8_S8_, symObjAddr: 0x2674, symBinAddr: 0x100002BBC, symSize: 0x3C }
  - { offsetInCU: 0xBBC9, offset: 0xBBC9, size: 0x8, addend: 0x0, symName: __ZNSt3__18_IterOpsINS_17_ClassicAlgPolicyEE7advanceB8ue170006INS_11__wrap_iterIPiEElEEvRT_T0_, symObjAddr: 0x26CC, symBinAddr: 0x100002C14, symSize: 0x2C }
  - { offsetInCU: 0xBC0C, offset: 0xBC0C, size: 0x8, addend: 0x0, symName: __ZNSt3__111__wrap_iterIPiEppB8ue170006Ev, symObjAddr: 0x275C, symBinAddr: 0x100002CA4, symSize: 0x20 }
  - { offsetInCU: 0xBC31, offset: 0xBC31, size: 0x8, addend: 0x0, symName: __ZNSt3__111__wrap_iterIPiEpLB8ue170006El, symObjAddr: 0x2860, symBinAddr: 0x100002DA8, symSize: 0x28 }
  - { offsetInCU: 0xBC64, offset: 0xBC64, size: 0x8, addend: 0x0, symName: __ZNKSt3__16__lessIvvEclB8ue170006IiiEEbRKT_RKT0_, symObjAddr: 0x2888, symBinAddr: 0x100002DD0, symSize: 0x34 }
  - { offsetInCU: 0xBCC1, offset: 0xBCC1, size: 0x8, addend: 0x0, symName: __ZNKSt3__110__identityclB8ue170006IRiEEOT_S4_, symObjAddr: 0x28BC, symBinAddr: 0x100002E04, symSize: 0x18 }
  - { offsetInCU: 0xBCFC, offset: 0xBCFC, size: 0x8, addend: 0x0, symName: __ZNKSt3__19basic_iosIcNS_11char_traitsIcEEE5widenB8ue170006Ec, symObjAddr: 0x28D4, symBinAddr: 0x100002E1C, symSize: 0x8C }
  - { offsetInCU: 0xBD69, offset: 0xBD69, size: 0x8, addend: 0x0, symName: __ZNKSt3__15ctypeIcE5widenB8ue170006Ec, symObjAddr: 0x298C, symBinAddr: 0x100002ED4, symSize: 0x38 }
  - { offsetInCU: 0xBD9D, offset: 0xBD9D, size: 0x8, addend: 0x0, symName: __ZNKSt3__111__wrap_iterIPiE4baseB8ue170006Ev, symObjAddr: 0x29C4, symBinAddr: 0x100002F0C, symSize: 0x18 }
  - { offsetInCU: 0xBDC2, offset: 0xBDC2, size: 0x8, addend: 0x0, symName: __ZNSt3__111char_traitsIcE6lengthB8ue170006EPKc, symObjAddr: 0x2C18, symBinAddr: 0x100003160, symSize: 0x48 }
  - { offsetInCU: 0xBE03, offset: 0xBE03, size: 0x8, addend: 0x0, symName: __ZNKSt3__113basic_ostreamIcNS_11char_traitsIcEEE6sentrycvbB8ue170006Ev, symObjAddr: 0x2C60, symBinAddr: 0x1000031A8, symSize: 0x1C }
  - { offsetInCU: 0xBE28, offset: 0xBE28, size: 0x8, addend: 0x0, symName: __ZNSt3__119ostreambuf_iteratorIcNS_11char_traitsIcEEEC1B8ue170006ERNS_13basic_ostreamIcS2_EE, symObjAddr: 0x2EC4, symBinAddr: 0x10000340C, symSize: 0x34 }
  - { offsetInCU: 0xBE5F, offset: 0xBE5F, size: 0x8, addend: 0x0, symName: __ZNKSt3__18ios_base5flagsB8ue170006Ev, symObjAddr: 0x2EF8, symBinAddr: 0x100003440, symSize: 0x18 }
  - { offsetInCU: 0xBE85, offset: 0xBE85, size: 0x8, addend: 0x0, symName: __ZNKSt3__19basic_iosIcNS_11char_traitsIcEEE4fillB8ue170006Ev, symObjAddr: 0x2F10, symBinAddr: 0x100003458, symSize: 0x64 }
  - { offsetInCU: 0xBEAC, offset: 0xBEAC, size: 0x8, addend: 0x0, symName: __ZNKSt3__119ostreambuf_iteratorIcNS_11char_traitsIcEEE6failedB8ue170006Ev, symObjAddr: 0x2F74, symBinAddr: 0x1000034BC, symSize: 0x24 }
  - { offsetInCU: 0xBED1, offset: 0xBED1, size: 0x8, addend: 0x0, symName: __ZNSt3__19basic_iosIcNS_11char_traitsIcEEE8setstateB8ue170006Ej, symObjAddr: 0x2F98, symBinAddr: 0x1000034E0, symSize: 0x2C }
  - { offsetInCU: 0xBF05, offset: 0xBF05, size: 0x8, addend: 0x0, symName: __ZNKSt3__18ios_base5widthB8ue170006Ev, symObjAddr: 0x2FC4, symBinAddr: 0x10000350C, symSize: 0x18 }
  - { offsetInCU: 0xBF2C, offset: 0xBF2C, size: 0x8, addend: 0x0, symName: __ZNSt3__115basic_streambufIcNS_11char_traitsIcEEE5sputnB8ue170006EPKcl, symObjAddr: 0x2FDC, symBinAddr: 0x100003524, symSize: 0x3C }
  - { offsetInCU: 0xBF6D, offset: 0xBF6D, size: 0x8, addend: 0x0, symName: __ZNSt3__112basic_stringIcNS_11char_traitsIcEENS_9allocatorIcEEEC1B8ue170006Emc, symObjAddr: 0x3018, symBinAddr: 0x100003560, symSize: 0x3C }
  - { offsetInCU: 0xBFB4, offset: 0xBFB4, size: 0x8, addend: 0x0, symName: __ZNKSt3__112basic_stringIcNS_11char_traitsIcEENS_9allocatorIcEEE4dataB8ue170006Ev, symObjAddr: 0x3054, symBinAddr: 0x10000359C, symSize: 0x28 }
  - { offsetInCU: 0xBFD9, offset: 0xBFD9, size: 0x8, addend: 0x0, symName: __ZNSt3__18ios_base5widthB8ue170006El, symObjAddr: 0x307C, symBinAddr: 0x1000035C4, symSize: 0x2C }
  - { offsetInCU: 0xC01E, offset: 0xC01E, size: 0x8, addend: 0x0, symName: __ZNSt3__112basic_stringIcNS_11char_traitsIcEENS_9allocatorIcEEEC2B8ue170006Emc, symObjAddr: 0x30A8, symBinAddr: 0x1000035F0, symSize: 0x4C }
  - { offsetInCU: 0xC065, offset: 0xC065, size: 0x8, addend: 0x0, symName: __ZNSt3__117__compressed_pairINS_12basic_stringIcNS_11char_traitsIcEENS_9allocatorIcEEE5__repES5_EC1B8ue170006INS_18__default_init_tagESA_EEOT_OT0_, symObjAddr: 0x30F4, symBinAddr: 0x10000363C, symSize: 0x3C }
  - { offsetInCU: 0xC0BC, offset: 0xC0BC, size: 0x8, addend: 0x0, symName: __ZNSt3__117__compressed_pairINS_12basic_stringIcNS_11char_traitsIcEENS_9allocatorIcEEE5__repES5_EC2B8ue170006INS_18__default_init_tagESA_EEOT_OT0_, symObjAddr: 0x3130, symBinAddr: 0x100003678, symSize: 0x3C }
  - { offsetInCU: 0xC113, offset: 0xC113, size: 0x8, addend: 0x0, symName: __ZNSt3__122__compressed_pair_elemINS_12basic_stringIcNS_11char_traitsIcEENS_9allocatorIcEEE5__repELi0ELb0EEC2B8ue170006ENS_18__default_init_tagE, symObjAddr: 0x316C, symBinAddr: 0x1000036B4, symSize: 0x14 }
  - { offsetInCU: 0xC146, offset: 0xC146, size: 0x8, addend: 0x0, symName: __ZNSt3__122__compressed_pair_elemINS_9allocatorIcEELi1ELb1EEC2B8ue170006ENS_18__default_init_tagE, symObjAddr: 0x3180, symBinAddr: 0x1000036C8, symSize: 0x2C }
  - { offsetInCU: 0xC179, offset: 0xC179, size: 0x8, addend: 0x0, symName: __ZNSt3__19allocatorIcEC2B8ue170006Ev, symObjAddr: 0x31AC, symBinAddr: 0x1000036F4, symSize: 0x2C }
  - { offsetInCU: 0xC1A2, offset: 0xC1A2, size: 0x8, addend: 0x0, symName: __ZNSt3__116__non_trivial_ifILb1ENS_9allocatorIcEEEC2B8ue170006Ev, symObjAddr: 0x31D8, symBinAddr: 0x100003720, symSize: 0x14 }
  - { offsetInCU: 0xC1CB, offset: 0xC1CB, size: 0x8, addend: 0x0, symName: __ZNKSt3__112basic_stringIcNS_11char_traitsIcEENS_9allocatorIcEEE13__get_pointerB8ue170006Ev, symObjAddr: 0x3200, symBinAddr: 0x100003748, symSize: 0x54 }
  - { offsetInCU: 0xC1F0, offset: 0xC1F0, size: 0x8, addend: 0x0, symName: __ZNKSt3__112basic_stringIcNS_11char_traitsIcEENS_9allocatorIcEEE9__is_longB8ue170006Ev, symObjAddr: 0x3254, symBinAddr: 0x10000379C, symSize: 0x74 }
  - { offsetInCU: 0xC215, offset: 0xC215, size: 0x8, addend: 0x0, symName: __ZNKSt3__112basic_stringIcNS_11char_traitsIcEENS_9allocatorIcEEE18__get_long_pointerB8ue170006Ev, symObjAddr: 0x32C8, symBinAddr: 0x100003810, symSize: 0x28 }
  - { offsetInCU: 0xC23A, offset: 0xC23A, size: 0x8, addend: 0x0, symName: __ZNKSt3__112basic_stringIcNS_11char_traitsIcEENS_9allocatorIcEEE19__get_short_pointerB8ue170006Ev, symObjAddr: 0x32F0, symBinAddr: 0x100003838, symSize: 0x28 }
  - { offsetInCU: 0xC25F, offset: 0xC25F, size: 0x8, addend: 0x0, symName: __ZNKSt3__117__compressed_pairINS_12basic_stringIcNS_11char_traitsIcEENS_9allocatorIcEEE5__repES5_E5firstB8ue170006Ev, symObjAddr: 0x3318, symBinAddr: 0x100003860, symSize: 0x24 }
  - { offsetInCU: 0xC284, offset: 0xC284, size: 0x8, addend: 0x0, symName: __ZNKSt3__122__compressed_pair_elemINS_12basic_stringIcNS_11char_traitsIcEENS_9allocatorIcEEE5__repELi0ELb0EE5__getB8ue170006Ev, symObjAddr: 0x333C, symBinAddr: 0x100003884, symSize: 0x14 }
  - { offsetInCU: 0xC2A9, offset: 0xC2A9, size: 0x8, addend: 0x0, symName: __ZNSt3__114pointer_traitsIPKcE10pointer_toB8ue170006ERS1_, symObjAddr: 0x3350, symBinAddr: 0x100003898, symSize: 0x14 }
  - { offsetInCU: 0xC2CC, offset: 0xC2CC, size: 0x8, addend: 0x0, symName: __ZNSt3__119ostreambuf_iteratorIcNS_11char_traitsIcEEEC2B8ue170006ERNS_13basic_ostreamIcS2_EE, symObjAddr: 0x3364, symBinAddr: 0x1000038AC, symSize: 0x68 }
  - { offsetInCU: 0xC302, offset: 0xC302, size: 0x8, addend: 0x0, symName: __ZNKSt3__19basic_iosIcNS_11char_traitsIcEEE5rdbufB8ue170006Ev, symObjAddr: 0x33CC, symBinAddr: 0x100003914, symSize: 0x24 }
  - { offsetInCU: 0xC329, offset: 0xC329, size: 0x8, addend: 0x0, symName: __ZNKSt3__18ios_base5rdbufB8ue170006Ev, symObjAddr: 0x33F0, symBinAddr: 0x100003938, symSize: 0x18 }
  - { offsetInCU: 0xC34E, offset: 0xC34E, size: 0x8, addend: 0x0, symName: __ZNSt3__111char_traitsIcE11eq_int_typeB8ue170006Eii, symObjAddr: 0x3408, symBinAddr: 0x100003950, symSize: 0x28 }
  - { offsetInCU: 0xC381, offset: 0xC381, size: 0x8, addend: 0x0, symName: __ZNSt3__111char_traitsIcE3eofB8ue170006Ev, symObjAddr: 0x3430, symBinAddr: 0x100003978, symSize: 0x8 }
  - { offsetInCU: 0xC394, offset: 0xC394, size: 0x8, addend: 0x0, symName: __ZNSt3__18ios_base8setstateB8ue170006Ej, symObjAddr: 0x3438, symBinAddr: 0x100003980, symSize: 0x34 }
...
