---
triple:          'arm64-apple-darwin'
binary-path:     '/Users/kajalbormon/Developer/Code/HakerRank/Conditional_statement/output/conditional_statement'
relocations:
  - { offsetInCU: 0x33F2, offset: 0x33F2, size: 0x8, addend: 0x0, symName: __ZNSt3__124__put_character_sequenceB8ue170006IcNS_11char_traitsIcEEEERNS_13basic_ostreamIT_T0_EES7_PKS4_m, symObjAddr: 0x1748, symBinAddr: 0x100002F7C, symSize: 0x1F4 }
  - { offsetInCU: 0x49A1, offset: 0x49A1, size: 0x8, addend: 0x0, symName: __ZNSt3__17getlineB8ue170006IcNS_11char_traitsIcEENS_9allocatorIcEEEERNS_13basic_istreamIT_T0_EES9_RNS_12basic_stringIS6_S7_T1_EE, symObjAddr: 0x3F8, symBinAddr: 0x100001C2C, symSize: 0x5C }
  - { offsetInCU: 0x49F9, offset: 0x49F9, size: 0x8, addend: 0x0, symName: __ZNSt3__1lsB8ue170006INS_11char_traitsIcEEEERNS_13basic_ostreamIcT_EES6_PKc, symObjAddr: 0x5EC, symBinAddr: 0x100001E20, symSize: 0x48 }
  - { offsetInCU: 0x4A3F, offset: 0x4A3F, size: 0x8, addend: 0x0, symName: __ZNSt3__14endlB8ue170006IcNS_11char_traitsIcEEEERNS_13basic_ostreamIT_T0_EES7_, symObjAddr: 0x660, symBinAddr: 0x100001E94, symSize: 0x58 }
  - { offsetInCU: 0x4A7F, offset: 0x4A7F, size: 0x8, addend: 0x0, symName: __ZNSt3__130__libcpp_is_constant_evaluatedB8ue170006Ev, symObjAddr: 0xA44, symBinAddr: 0x100002278, symSize: 0xC }
  - { offsetInCU: 0x4A9C, offset: 0x4A9C, size: 0x8, addend: 0x0, symName: __ZNSt3__117__libcpp_allocateB8ue170006Emm, symObjAddr: 0xD3C, symBinAddr: 0x100002570, symSize: 0x28 }
  - { offsetInCU: 0x4AD9, offset: 0x4AD9, size: 0x8, addend: 0x0, symName: __ZNSt3__121__libcpp_operator_newB8ue170006IJmEEEPvDpT_, symObjAddr: 0xD78, symBinAddr: 0x1000025AC, symSize: 0x24 }
  - { offsetInCU: 0x4B12, offset: 0x4B12, size: 0x8, addend: 0x0, symName: __ZNSt3__17getlineB8ue170006IcNS_11char_traitsIcEENS_9allocatorIcEEEERNS_13basic_istreamIT_T0_EES9_RNS_12basic_stringIS6_S7_T1_EES6_, symObjAddr: 0xDD4, symBinAddr: 0x100002608, symSize: 0x238 }
  - { offsetInCU: 0x539B, offset: 0x539B, size: 0x8, addend: 0x0, symName: __ZNSt3__19use_facetB8ue170006INS_5ctypeIcEEEERKT_RKNS_6localeE, symObjAddr: 0x16E4, symBinAddr: 0x100002F18, symSize: 0x2C }
  - { offsetInCU: 0x5868, offset: 0x5868, size: 0x8, addend: 0x0, symName: __ZNSt3__116__pad_and_outputB8ue170006IcNS_11char_traitsIcEEEENS_19ostreambuf_iteratorIT_T0_EES6_PKS4_S8_S8_RNS_8ios_baseES4_, symObjAddr: 0x19A0, symBinAddr: 0x1000031D4, symSize: 0x248 }
  - { offsetInCU: 0x5937, offset: 0x5937, size: 0x8, addend: 0x0, symName: __ZNSt3__112__to_addressB8ue170006IKcEEPT_S3_, symObjAddr: 0x1DEC, symBinAddr: 0x100003620, symSize: 0x14 }
  - { offsetInCU: 0x599F, offset: 0x599F, size: 0x8, addend: 0x0, symName: __ZNSt3__118__constexpr_strlenB8ue170006EPKc, symObjAddr: 0x1F20, symBinAddr: 0x100003754, symSize: 0x24 }
  - { offsetInCU: 0x59CB, offset: 0x59CB, size: 0x8, addend: 0x0, symName: __ZNSt3__123__str_find_first_not_ofB8ue170006IcmNS_11char_traitsIcEELm18446744073709551615EEET0_PKT_S3_S6_S3_S3_, symObjAddr: 0x1F44, symBinAddr: 0x100003778, symSize: 0xDC }
  - { offsetInCU: 0x5A9D, offset: 0x5A9D, size: 0x8, addend: 0x0, symName: __ZNSt3__118__constexpr_memchrB8ue170006IKccEEPT_S3_T0_m, symObjAddr: 0x20A4, symBinAddr: 0x1000038D8, symSize: 0xC0 }
  - { offsetInCU: 0x5B13, offset: 0x5B13, size: 0x8, addend: 0x0, symName: __ZNSt3__122__str_find_last_not_ofB8ue170006IcmNS_11char_traitsIcEELm18446744073709551615EEET0_PKT_S3_S6_S3_S3_, symObjAddr: 0x21E8, symBinAddr: 0x100003A1C, symSize: 0xDC }
  - { offsetInCU: 0x5BC9, offset: 0x5BC9, size: 0x8, addend: 0x0, symName: __ZSt28__throw_bad_array_new_lengthB8ue170006v, symObjAddr: 0xD08, symBinAddr: 0x10000253C, symSize: 0x34 }
  - { offsetInCU: 0x8198, offset: 0x8198, size: 0x8, addend: 0x0, symName: _main, symObjAddr: 0x0, symBinAddr: 0x100001834, symSize: 0x3CC }
  - { offsetInCU: 0x81CE, offset: 0x81CE, size: 0x8, addend: 0x0, symName: __ZNSt3__112basic_stringIcNS_11char_traitsIcEENS_9allocatorIcEEEC1B8ue170006Ev, symObjAddr: 0x3CC, symBinAddr: 0x100001C00, symSize: 0x2C }
  - { offsetInCU: 0x81F6, offset: 0x81F6, size: 0x8, addend: 0x0, symName: __Z5ltrimRKNSt3__112basic_stringIcNS_11char_traitsIcEENS_9allocatorIcEEEE, symObjAddr: 0x454, symBinAddr: 0x100001C88, symSize: 0xC4 }
  - { offsetInCU: 0x823E, offset: 0x823E, size: 0x8, addend: 0x0, symName: __Z5rtrimRKNSt3__112basic_stringIcNS_11char_traitsIcEENS_9allocatorIcEEEE, symObjAddr: 0x518, symBinAddr: 0x100001D4C, symSize: 0xC8 }
  - { offsetInCU: 0x8287, offset: 0x8287, size: 0x8, addend: 0x0, symName: __ZNSt3__113basic_ostreamIcNS_11char_traitsIcEEElsB8ue170006EPFRS3_S4_E, symObjAddr: 0x634, symBinAddr: 0x100001E68, symSize: 0x2C }
  - { offsetInCU: 0x82B9, offset: 0x82B9, size: 0x8, addend: 0x0, symName: __ZNKSt3__112basic_stringIcNS_11char_traitsIcEENS_9allocatorIcEEE17find_first_not_ofB8ue170006EPKcm, symObjAddr: 0x6B8, symBinAddr: 0x100001EEC, symSize: 0x74 }
  - { offsetInCU: 0x8302, offset: 0x8302, size: 0x8, addend: 0x0, symName: __ZNSt3__112basic_stringIcNS_11char_traitsIcEENS_9allocatorIcEEEC1B8ue170006ILi0EEEPKc, symObjAddr: 0x72C, symBinAddr: 0x100001F60, symSize: 0x34 }
  - { offsetInCU: 0x8340, offset: 0x8340, size: 0x8, addend: 0x0, symName: __ZNKSt3__112basic_stringIcNS_11char_traitsIcEENS_9allocatorIcEEE6substrB8ue170006Emm, symObjAddr: 0x760, symBinAddr: 0x100001F94, symSize: 0x68 }
  - { offsetInCU: 0x8382, offset: 0x8382, size: 0x8, addend: 0x0, symName: __ZNKSt3__112basic_stringIcNS_11char_traitsIcEENS_9allocatorIcEEE16find_last_not_ofB8ue170006EPKcm, symObjAddr: 0x7C8, symBinAddr: 0x100001FFC, symSize: 0x74 }
  - { offsetInCU: 0x83C6, offset: 0x83C6, size: 0x8, addend: 0x0, symName: __ZNSt3__112basic_stringIcNS_11char_traitsIcEENS_9allocatorIcEEEC2B8ue170006Ev, symObjAddr: 0x83C, symBinAddr: 0x100002070, symSize: 0x3C }
  - { offsetInCU: 0x83F3, offset: 0x83F3, size: 0x8, addend: 0x0, symName: __ZNSt3__117__compressed_pairINS_12basic_stringIcNS_11char_traitsIcEENS_9allocatorIcEEE5__repES5_EC1B8ue170006INS_18__default_init_tagESA_EEOT_OT0_, symObjAddr: 0x878, symBinAddr: 0x1000020AC, symSize: 0x3C }
  - { offsetInCU: 0x844A, offset: 0x844A, size: 0x8, addend: 0x0, symName: __ZNSt3__112basic_stringIcNS_11char_traitsIcEENS_9allocatorIcEEE14__default_initB8ue170006Ev, symObjAddr: 0x8B4, symBinAddr: 0x1000020E8, symSize: 0xB0 }
  - { offsetInCU: 0x8499, offset: 0x8499, size: 0x8, addend: 0x0, symName: __ZNSt3__117__compressed_pairINS_12basic_stringIcNS_11char_traitsIcEENS_9allocatorIcEEE5__repES5_EC2B8ue170006INS_18__default_init_tagESA_EEOT_OT0_, symObjAddr: 0x964, symBinAddr: 0x100002198, symSize: 0x3C }
  - { offsetInCU: 0x84F0, offset: 0x84F0, size: 0x8, addend: 0x0, symName: __ZNSt3__122__compressed_pair_elemINS_12basic_stringIcNS_11char_traitsIcEENS_9allocatorIcEEE5__repELi0ELb0EEC2B8ue170006ENS_18__default_init_tagE, symObjAddr: 0x9A0, symBinAddr: 0x1000021D4, symSize: 0x14 }
  - { offsetInCU: 0x8523, offset: 0x8523, size: 0x8, addend: 0x0, symName: __ZNSt3__122__compressed_pair_elemINS_9allocatorIcEELi1ELb1EEC2B8ue170006ENS_18__default_init_tagE, symObjAddr: 0x9B4, symBinAddr: 0x1000021E8, symSize: 0x2C }
  - { offsetInCU: 0x8556, offset: 0x8556, size: 0x8, addend: 0x0, symName: __ZNSt3__19allocatorIcEC2B8ue170006Ev, symObjAddr: 0x9E0, symBinAddr: 0x100002214, symSize: 0x2C }
  - { offsetInCU: 0x857F, offset: 0x857F, size: 0x8, addend: 0x0, symName: __ZNSt3__116__non_trivial_ifILb1ENS_9allocatorIcEEEC2B8ue170006Ev, symObjAddr: 0xA0C, symBinAddr: 0x100002240, symSize: 0x14 }
  - { offsetInCU: 0x85A8, offset: 0x85A8, size: 0x8, addend: 0x0, symName: __ZNSt3__117__compressed_pairINS_12basic_stringIcNS_11char_traitsIcEENS_9allocatorIcEEE5__repES5_E5firstB8ue170006Ev, symObjAddr: 0xA20, symBinAddr: 0x100002254, symSize: 0x24 }
  - { offsetInCU: 0x85CC, offset: 0x85CC, size: 0x8, addend: 0x0, symName: __ZNSt3__112basic_stringIcNS_11char_traitsIcEENS_9allocatorIcEEE11__recommendB8ue170006Em, symObjAddr: 0xA50, symBinAddr: 0x100002284, symSize: 0x9C }
  - { offsetInCU: 0x85FF, offset: 0x85FF, size: 0x8, addend: 0x0, symName: __ZNSt3__116allocator_traitsINS_9allocatorIcEEE8allocateB8ue170006ERS2_m, symObjAddr: 0xAEC, symBinAddr: 0x100002320, symSize: 0x2C }
  - { offsetInCU: 0x8632, offset: 0x8632, size: 0x8, addend: 0x0, symName: __ZNSt3__112basic_stringIcNS_11char_traitsIcEENS_9allocatorIcEEE7__allocB8ue170006Ev, symObjAddr: 0xB18, symBinAddr: 0x10000234C, symSize: 0x24 }
  - { offsetInCU: 0x8656, offset: 0x8656, size: 0x8, addend: 0x0, symName: __ZNSt3__112basic_stringIcNS_11char_traitsIcEENS_9allocatorIcEEE16__begin_lifetimeB8ue170006EPcm, symObjAddr: 0xB3C, symBinAddr: 0x100002370, symSize: 0x14 }
  - { offsetInCU: 0x8689, offset: 0x8689, size: 0x8, addend: 0x0, symName: __ZNSt3__112basic_stringIcNS_11char_traitsIcEENS_9allocatorIcEEE18__set_long_pointerB8ue170006EPc, symObjAddr: 0xB50, symBinAddr: 0x100002384, symSize: 0x38 }
  - { offsetInCU: 0x86BC, offset: 0x86BC, size: 0x8, addend: 0x0, symName: __ZNSt3__112basic_stringIcNS_11char_traitsIcEENS_9allocatorIcEEE14__set_long_capB8ue170006Em, symObjAddr: 0xB88, symBinAddr: 0x1000023BC, symSize: 0x70 }
  - { offsetInCU: 0x86EF, offset: 0x86EF, size: 0x8, addend: 0x0, symName: __ZNSt3__112basic_stringIcNS_11char_traitsIcEENS_9allocatorIcEEE15__set_long_sizeB8ue170006Em, symObjAddr: 0xBF8, symBinAddr: 0x10000242C, symSize: 0x38 }
  - { offsetInCU: 0x8722, offset: 0x8722, size: 0x8, addend: 0x0, symName: __ZNSt3__122__compressed_pair_elemINS_12basic_stringIcNS_11char_traitsIcEENS_9allocatorIcEEE5__repELi0ELb0EE5__getB8ue170006Ev, symObjAddr: 0xC30, symBinAddr: 0x100002464, symSize: 0x14 }
  - { offsetInCU: 0x8747, offset: 0x8747, size: 0x8, addend: 0x0, symName: __ZNSt3__112basic_stringIcNS_11char_traitsIcEENS_9allocatorIcEEE10__align_itB8ue170006ILm16EEEmm, symObjAddr: 0xC44, symBinAddr: 0x100002478, symSize: 0x1C }
  - { offsetInCU: 0x8775, offset: 0x8775, size: 0x8, addend: 0x0, symName: __ZNSt3__19allocatorIcE8allocateB8ue170006Em, symObjAddr: 0xC60, symBinAddr: 0x100002494, symSize: 0x84 }
  - { offsetInCU: 0x87B1, offset: 0x87B1, size: 0x8, addend: 0x0, symName: __ZNSt3__116allocator_traitsINS_9allocatorIcEEE8max_sizeB8ue170006IS2_vEEmRKS2_, symObjAddr: 0xCE4, symBinAddr: 0x100002518, symSize: 0x24 }
  - { offsetInCU: 0x87DF, offset: 0x87DF, size: 0x8, addend: 0x0, symName: __ZNKSt3__19allocatorIcE8max_sizeB8ue170006Ev, symObjAddr: 0xD64, symBinAddr: 0x100002598, symSize: 0x14 }
  - { offsetInCU: 0x8804, offset: 0x8804, size: 0x8, addend: 0x0, symName: __ZNSt3__117__compressed_pairINS_12basic_stringIcNS_11char_traitsIcEENS_9allocatorIcEEE5__repES5_E6secondB8ue170006Ev, symObjAddr: 0xD9C, symBinAddr: 0x1000025D0, symSize: 0x24 }
  - { offsetInCU: 0x8828, offset: 0x8828, size: 0x8, addend: 0x0, symName: __ZNSt3__122__compressed_pair_elemINS_9allocatorIcEELi1ELb1EE5__getB8ue170006Ev, symObjAddr: 0xDC0, symBinAddr: 0x1000025F4, symSize: 0x14 }
  - { offsetInCU: 0x884D, offset: 0x884D, size: 0x8, addend: 0x0, symName: __ZNKSt3__19basic_iosIcNS_11char_traitsIcEEE5widenB8ue170006Ec, symObjAddr: 0x100C, symBinAddr: 0x100002840, symSize: 0x8C }
  - { offsetInCU: 0x892A, offset: 0x892A, size: 0x8, addend: 0x0, symName: __ZNKSt3__113basic_istreamIcNS_11char_traitsIcEEE6sentrycvbB8ue170006Ev, symObjAddr: 0x1098, symBinAddr: 0x1000028CC, symSize: 0x1C }
  - { offsetInCU: 0x894F, offset: 0x894F, size: 0x8, addend: 0x0, symName: __ZNSt3__112basic_stringIcNS_11char_traitsIcEENS_9allocatorIcEEE5clearB8ue170006Ev, symObjAddr: 0x10B4, symBinAddr: 0x1000028E8, symSize: 0x78 }
  - { offsetInCU: 0x8976, offset: 0x8976, size: 0x8, addend: 0x0, symName: __ZNKSt3__19basic_iosIcNS_11char_traitsIcEEE5rdbufB8ue170006Ev, symObjAddr: 0x112C, symBinAddr: 0x100002960, symSize: 0x24 }
  - { offsetInCU: 0x899D, offset: 0x899D, size: 0x8, addend: 0x0, symName: __ZNSt3__115basic_streambufIcNS_11char_traitsIcEEE6sbumpcB8ue170006Ev, symObjAddr: 0x1150, symBinAddr: 0x100002984, symSize: 0x78 }
  - { offsetInCU: 0x89C1, offset: 0x89C1, size: 0x8, addend: 0x0, symName: __ZNSt3__111char_traitsIcE11eq_int_typeB8ue170006Eii, symObjAddr: 0x11C8, symBinAddr: 0x1000029FC, symSize: 0x28 }
  - { offsetInCU: 0x89F4, offset: 0x89F4, size: 0x8, addend: 0x0, symName: __ZNSt3__111char_traitsIcE3eofB8ue170006Ev, symObjAddr: 0x11F0, symBinAddr: 0x100002A24, symSize: 0x8 }
  - { offsetInCU: 0x8A08, offset: 0x8A08, size: 0x8, addend: 0x0, symName: __ZNSt3__111char_traitsIcE12to_char_typeB8ue170006Ei, symObjAddr: 0x11F8, symBinAddr: 0x100002A2C, symSize: 0x18 }
  - { offsetInCU: 0x8A2B, offset: 0x8A2B, size: 0x8, addend: 0x0, symName: __ZNSt3__111char_traitsIcE2eqEcc, symObjAddr: 0x1210, symBinAddr: 0x100002A44, symSize: 0x28 }
  - { offsetInCU: 0x8A5C, offset: 0x8A5C, size: 0x8, addend: 0x0, symName: __ZNKSt3__112basic_stringIcNS_11char_traitsIcEENS_9allocatorIcEEE4sizeB8ue170006Ev, symObjAddr: 0x1238, symBinAddr: 0x100002A6C, symSize: 0x54 }
  - { offsetInCU: 0x8A80, offset: 0x8A80, size: 0x8, addend: 0x0, symName: __ZNKSt3__112basic_stringIcNS_11char_traitsIcEENS_9allocatorIcEEE8max_sizeB8ue170006Ev, symObjAddr: 0x128C, symBinAddr: 0x100002AC0, symSize: 0xAC }
  - { offsetInCU: 0x8AD0, offset: 0x8AD0, size: 0x8, addend: 0x0, symName: __ZNSt3__18ios_base18__setstate_nothrowB8ue170006Ej, symObjAddr: 0x1338, symBinAddr: 0x100002B6C, symSize: 0x64 }
  - { offsetInCU: 0x8B04, offset: 0x8B04, size: 0x8, addend: 0x0, symName: __ZNKSt3__19basic_iosIcNS_11char_traitsIcEEE10exceptionsB8ue170006Ev, symObjAddr: 0x139C, symBinAddr: 0x100002BD0, symSize: 0x24 }
  - { offsetInCU: 0x8B28, offset: 0x8B28, size: 0x8, addend: 0x0, symName: __ZNSt3__19basic_iosIcNS_11char_traitsIcEEE8setstateB8ue170006Ej, symObjAddr: 0x13C0, symBinAddr: 0x100002BF4, symSize: 0x2C }
  - { offsetInCU: 0x8B5B, offset: 0x8B5B, size: 0x8, addend: 0x0, symName: __ZNKSt3__112basic_stringIcNS_11char_traitsIcEENS_9allocatorIcEEE9__is_longB8ue170006Ev, symObjAddr: 0x13EC, symBinAddr: 0x100002C20, symSize: 0x74 }
  - { offsetInCU: 0x8B7F, offset: 0x8B7F, size: 0x8, addend: 0x0, symName: __ZNSt3__111char_traitsIcE6assignB8ue170006ERcRKc, symObjAddr: 0x1460, symBinAddr: 0x100002C94, symSize: 0x24 }
  - { offsetInCU: 0x8BB0, offset: 0x8BB0, size: 0x8, addend: 0x0, symName: __ZNSt3__112basic_stringIcNS_11char_traitsIcEENS_9allocatorIcEEE18__get_long_pointerB8ue170006Ev, symObjAddr: 0x1484, symBinAddr: 0x100002CB8, symSize: 0x28 }
  - { offsetInCU: 0x8BD4, offset: 0x8BD4, size: 0x8, addend: 0x0, symName: __ZNSt3__112basic_stringIcNS_11char_traitsIcEENS_9allocatorIcEEE19__get_short_pointerB8ue170006Ev, symObjAddr: 0x14AC, symBinAddr: 0x100002CE0, symSize: 0x28 }
  - { offsetInCU: 0x8BF8, offset: 0x8BF8, size: 0x8, addend: 0x0, symName: __ZNSt3__112basic_stringIcNS_11char_traitsIcEENS_9allocatorIcEEE16__set_short_sizeB8ue170006Em, symObjAddr: 0x14D4, symBinAddr: 0x100002D08, symSize: 0x78 }
  - { offsetInCU: 0x8C2B, offset: 0x8C2B, size: 0x8, addend: 0x0, symName: __ZNKSt3__117__compressed_pairINS_12basic_stringIcNS_11char_traitsIcEENS_9allocatorIcEEE5__repES5_E5firstB8ue170006Ev, symObjAddr: 0x154C, symBinAddr: 0x100002D80, symSize: 0x24 }
  - { offsetInCU: 0x8C4F, offset: 0x8C4F, size: 0x8, addend: 0x0, symName: __ZNKSt3__122__compressed_pair_elemINS_12basic_stringIcNS_11char_traitsIcEENS_9allocatorIcEEE5__repELi0ELb0EE5__getB8ue170006Ev, symObjAddr: 0x1570, symBinAddr: 0x100002DA4, symSize: 0x14 }
  - { offsetInCU: 0x8C74, offset: 0x8C74, size: 0x8, addend: 0x0, symName: __ZNSt3__114pointer_traitsIPcE10pointer_toB8ue170006ERc, symObjAddr: 0x1584, symBinAddr: 0x100002DB8, symSize: 0x14 }
  - { offsetInCU: 0x8C97, offset: 0x8C97, size: 0x8, addend: 0x0, symName: __ZNKSt3__18ios_base5rdbufB8ue170006Ev, symObjAddr: 0x1598, symBinAddr: 0x100002DCC, symSize: 0x18 }
  - { offsetInCU: 0x8CBC, offset: 0x8CBC, size: 0x8, addend: 0x0, symName: __ZNSt3__111char_traitsIcE11to_int_typeB8ue170006Ec, symObjAddr: 0x15B0, symBinAddr: 0x100002DE4, symSize: 0x14 }
  - { offsetInCU: 0x8CE0, offset: 0x8CE0, size: 0x8, addend: 0x0, symName: __ZNKSt3__112basic_stringIcNS_11char_traitsIcEENS_9allocatorIcEEE15__get_long_sizeB8ue170006Ev, symObjAddr: 0x15C4, symBinAddr: 0x100002DF8, symSize: 0x28 }
  - { offsetInCU: 0x8D04, offset: 0x8D04, size: 0x8, addend: 0x0, symName: __ZNKSt3__112basic_stringIcNS_11char_traitsIcEENS_9allocatorIcEEE16__get_short_sizeB8ue170006Ev, symObjAddr: 0x15EC, symBinAddr: 0x100002E20, symSize: 0x34 }
  - { offsetInCU: 0x8D28, offset: 0x8D28, size: 0x8, addend: 0x0, symName: __ZNKSt3__112basic_stringIcNS_11char_traitsIcEENS_9allocatorIcEEE7__allocB8ue170006Ev, symObjAddr: 0x1620, symBinAddr: 0x100002E54, symSize: 0x24 }
  - { offsetInCU: 0x8D4C, offset: 0x8D4C, size: 0x8, addend: 0x0, symName: __ZNSt3__114numeric_limitsImE3maxB8ue170006Ev, symObjAddr: 0x1644, symBinAddr: 0x100002E78, symSize: 0x14 }
  - { offsetInCU: 0x8D60, offset: 0x8D60, size: 0x8, addend: 0x0, symName: __ZNKSt3__117__compressed_pairINS_12basic_stringIcNS_11char_traitsIcEENS_9allocatorIcEEE5__repES5_E6secondB8ue170006Ev, symObjAddr: 0x1658, symBinAddr: 0x100002E8C, symSize: 0x24 }
  - { offsetInCU: 0x8D84, offset: 0x8D84, size: 0x8, addend: 0x0, symName: __ZNKSt3__122__compressed_pair_elemINS_9allocatorIcEELi1ELb1EE5__getB8ue170006Ev, symObjAddr: 0x167C, symBinAddr: 0x100002EB0, symSize: 0x14 }
  - { offsetInCU: 0x8DA9, offset: 0x8DA9, size: 0x8, addend: 0x0, symName: __ZNSt3__123__libcpp_numeric_limitsImLb1EE3maxB8ue170006Ev, symObjAddr: 0x1690, symBinAddr: 0x100002EC4, symSize: 0x8 }
  - { offsetInCU: 0x8DBD, offset: 0x8DBD, size: 0x8, addend: 0x0, symName: __ZNKSt3__18ios_base10exceptionsB8ue170006Ev, symObjAddr: 0x1698, symBinAddr: 0x100002ECC, symSize: 0x18 }
  - { offsetInCU: 0x8DE4, offset: 0x8DE4, size: 0x8, addend: 0x0, symName: __ZNSt3__18ios_base8setstateB8ue170006Ej, symObjAddr: 0x16B0, symBinAddr: 0x100002EE4, symSize: 0x34 }
  - { offsetInCU: 0x8E51, offset: 0x8E51, size: 0x8, addend: 0x0, symName: __ZNKSt3__15ctypeIcE5widenB8ue170006Ec, symObjAddr: 0x1710, symBinAddr: 0x100002F44, symSize: 0x38 }
  - { offsetInCU: 0x8E84, offset: 0x8E84, size: 0x8, addend: 0x0, symName: __ZNSt3__111char_traitsIcE6lengthB8ue170006EPKc, symObjAddr: 0x193C, symBinAddr: 0x100003170, symSize: 0x48 }
  - { offsetInCU: 0x8EC5, offset: 0x8EC5, size: 0x8, addend: 0x0, symName: __ZNKSt3__113basic_ostreamIcNS_11char_traitsIcEEE6sentrycvbB8ue170006Ev, symObjAddr: 0x1984, symBinAddr: 0x1000031B8, symSize: 0x1C }
  - { offsetInCU: 0x8EE9, offset: 0x8EE9, size: 0x8, addend: 0x0, symName: __ZNSt3__119ostreambuf_iteratorIcNS_11char_traitsIcEEEC1B8ue170006ERNS_13basic_ostreamIcS2_EE, symObjAddr: 0x1BE8, symBinAddr: 0x10000341C, symSize: 0x34 }
  - { offsetInCU: 0x8F20, offset: 0x8F20, size: 0x8, addend: 0x0, symName: __ZNKSt3__18ios_base5flagsB8ue170006Ev, symObjAddr: 0x1C1C, symBinAddr: 0x100003450, symSize: 0x18 }
  - { offsetInCU: 0x8F47, offset: 0x8F47, size: 0x8, addend: 0x0, symName: __ZNKSt3__19basic_iosIcNS_11char_traitsIcEEE4fillB8ue170006Ev, symObjAddr: 0x1C34, symBinAddr: 0x100003468, symSize: 0x64 }
  - { offsetInCU: 0x8F6E, offset: 0x8F6E, size: 0x8, addend: 0x0, symName: __ZNKSt3__119ostreambuf_iteratorIcNS_11char_traitsIcEEE6failedB8ue170006Ev, symObjAddr: 0x1C98, symBinAddr: 0x1000034CC, symSize: 0x24 }
  - { offsetInCU: 0x8F93, offset: 0x8F93, size: 0x8, addend: 0x0, symName: __ZNKSt3__18ios_base5widthB8ue170006Ev, symObjAddr: 0x1CBC, symBinAddr: 0x1000034F0, symSize: 0x18 }
  - { offsetInCU: 0x8FBA, offset: 0x8FBA, size: 0x8, addend: 0x0, symName: __ZNSt3__115basic_streambufIcNS_11char_traitsIcEEE5sputnB8ue170006EPKcl, symObjAddr: 0x1CD4, symBinAddr: 0x100003508, symSize: 0x3C }
  - { offsetInCU: 0x8FF9, offset: 0x8FF9, size: 0x8, addend: 0x0, symName: __ZNSt3__112basic_stringIcNS_11char_traitsIcEENS_9allocatorIcEEEC1B8ue170006Emc, symObjAddr: 0x1D10, symBinAddr: 0x100003544, symSize: 0x3C }
  - { offsetInCU: 0x9040, offset: 0x9040, size: 0x8, addend: 0x0, symName: __ZNKSt3__112basic_stringIcNS_11char_traitsIcEENS_9allocatorIcEEE4dataB8ue170006Ev, symObjAddr: 0x1D4C, symBinAddr: 0x100003580, symSize: 0x28 }
  - { offsetInCU: 0x9064, offset: 0x9064, size: 0x8, addend: 0x0, symName: __ZNSt3__18ios_base5widthB8ue170006El, symObjAddr: 0x1D74, symBinAddr: 0x1000035A8, symSize: 0x2C }
  - { offsetInCU: 0x90A8, offset: 0x90A8, size: 0x8, addend: 0x0, symName: __ZNSt3__112basic_stringIcNS_11char_traitsIcEENS_9allocatorIcEEEC2B8ue170006Emc, symObjAddr: 0x1DA0, symBinAddr: 0x1000035D4, symSize: 0x4C }
  - { offsetInCU: 0x90EF, offset: 0x90EF, size: 0x8, addend: 0x0, symName: __ZNKSt3__112basic_stringIcNS_11char_traitsIcEENS_9allocatorIcEEE13__get_pointerB8ue170006Ev, symObjAddr: 0x1E00, symBinAddr: 0x100003634, symSize: 0x54 }
  - { offsetInCU: 0x9113, offset: 0x9113, size: 0x8, addend: 0x0, symName: __ZNKSt3__112basic_stringIcNS_11char_traitsIcEENS_9allocatorIcEEE18__get_long_pointerB8ue170006Ev, symObjAddr: 0x1E54, symBinAddr: 0x100003688, symSize: 0x28 }
  - { offsetInCU: 0x9137, offset: 0x9137, size: 0x8, addend: 0x0, symName: __ZNKSt3__112basic_stringIcNS_11char_traitsIcEENS_9allocatorIcEEE19__get_short_pointerB8ue170006Ev, symObjAddr: 0x1E7C, symBinAddr: 0x1000036B0, symSize: 0x28 }
  - { offsetInCU: 0x915B, offset: 0x915B, size: 0x8, addend: 0x0, symName: __ZNSt3__114pointer_traitsIPKcE10pointer_toB8ue170006ERS1_, symObjAddr: 0x1EA4, symBinAddr: 0x1000036D8, symSize: 0x14 }
  - { offsetInCU: 0x917D, offset: 0x917D, size: 0x8, addend: 0x0, symName: __ZNSt3__119ostreambuf_iteratorIcNS_11char_traitsIcEEEC2B8ue170006ERNS_13basic_ostreamIcS2_EE, symObjAddr: 0x1EB8, symBinAddr: 0x1000036EC, symSize: 0x68 }
  - { offsetInCU: 0x91B4, offset: 0x91B4, size: 0x8, addend: 0x0, symName: __ZNSt3__111char_traitsIcE4findB8ue170006EPKcmRS2_, symObjAddr: 0x2020, symBinAddr: 0x100003854, symSize: 0x84 }
  - { offsetInCU: 0x91F2, offset: 0x91F2, size: 0x8, addend: 0x0, symName: __ZNSt3__19allocatorIcEC1B8ue170006Ev, symObjAddr: 0x2164, symBinAddr: 0x100003998, symSize: 0x2C }
  - { offsetInCU: 0x921A, offset: 0x921A, size: 0x8, addend: 0x0, symName: __ZNSt3__112basic_stringIcNS_11char_traitsIcEENS_9allocatorIcEEEC2B8ue170006ILi0EEEPKc, symObjAddr: 0x2190, symBinAddr: 0x1000039C4, symSize: 0x58 }
...
