---
triple:          'arm64-apple-darwin'
binary-path:     '/Users/kajalbormon/Developer/Code/HakerRank/struct/output/struct'
relocations:
  - { offsetInCU: 0x33D8, offset: 0x33D8, size: 0x8, addend: 0x0, symName: __ZNSt3__124__put_character_sequenceB8ue170006IcNS_11char_traitsIcEEEERNS_13basic_ostreamIT_T0_EES7_PKS4_m, symObjAddr: 0x1328, symBinAddr: 0x10000327C, symSize: 0x1F4 }
  - { offsetInCU: 0x4C82, offset: 0x4C82, size: 0x8, addend: 0x0, symName: __ZNSt3__1rsB8ue170006IcNS_11char_traitsIcEENS_9allocatorIcEEEERNS_13basic_istreamIT_T0_EES9_RNS_12basic_stringIS6_S7_T1_EE, symObjAddr: 0x188, symBinAddr: 0x1000020DC, symSize: 0x324 }
  - { offsetInCU: 0x4D51, offset: 0x4D51, size: 0x8, addend: 0x0, symName: __ZNSt3__1lsB8ue170006INS_11char_traitsIcEEEERNS_13basic_ostreamIcT_EES6_PKc, symObjAddr: 0x4AC, symBinAddr: 0x100002400, symSize: 0x48 }
  - { offsetInCU: 0x4D97, offset: 0x4D97, size: 0x8, addend: 0x0, symName: __ZNSt3__1lsB8ue170006IcNS_11char_traitsIcEENS_9allocatorIcEEEERNS_13basic_ostreamIT_T0_EES9_RKNS_12basic_stringIS6_S7_T1_EE, symObjAddr: 0x4F4, symBinAddr: 0x100002448, symSize: 0x4C }
  - { offsetInCU: 0x4DEF, offset: 0x4DEF, size: 0x8, addend: 0x0, symName: __ZNSt3__130__libcpp_is_constant_evaluatedB8ue170006Ev, symObjAddr: 0x81C, symBinAddr: 0x100002770, symSize: 0xC }
  - { offsetInCU: 0x4E0C, offset: 0x4E0C, size: 0x8, addend: 0x0, symName: __ZNSt3__117__libcpp_allocateB8ue170006Emm, symObjAddr: 0xB14, symBinAddr: 0x100002A68, symSize: 0x28 }
  - { offsetInCU: 0x4E49, offset: 0x4E49, size: 0x8, addend: 0x0, symName: __ZNSt3__121__libcpp_operator_newB8ue170006IJmEEEPvDpT_, symObjAddr: 0xB50, symBinAddr: 0x100002AA4, symSize: 0x24 }
  - { offsetInCU: 0x5619, offset: 0x5619, size: 0x8, addend: 0x0, symName: __ZNSt3__19use_facetB8ue170006INS_5ctypeIcEEEERKT_RKNS_6localeE, symObjAddr: 0xD84, symBinAddr: 0x100002CD8, symSize: 0x2C }
  - { offsetInCU: 0x5C2C, offset: 0x5C2C, size: 0x8, addend: 0x0, symName: __ZNSt3__116__pad_and_outputB8ue170006IcNS_11char_traitsIcEEEENS_19ostreambuf_iteratorIT_T0_EES6_PKS4_S8_S8_RNS_8ios_baseES4_, symObjAddr: 0x1580, symBinAddr: 0x1000034D4, symSize: 0x248 }
  - { offsetInCU: 0x5CFB, offset: 0x5CFB, size: 0x8, addend: 0x0, symName: __ZNSt3__112__to_addressB8ue170006IKcEEPT_S3_, symObjAddr: 0x1988, symBinAddr: 0x1000038DC, symSize: 0x14 }
  - { offsetInCU: 0x5D63, offset: 0x5D63, size: 0x8, addend: 0x0, symName: __ZNSt3__118__constexpr_strlenB8ue170006EPKc, symObjAddr: 0x1B80, symBinAddr: 0x100003AD4, symSize: 0x24 }
  - { offsetInCU: 0x5D90, offset: 0x5D90, size: 0x8, addend: 0x0, symName: __ZSt28__throw_bad_array_new_lengthB8ue170006v, symObjAddr: 0xAE0, symBinAddr: 0x100002A34, symSize: 0x34 }
  - { offsetInCU: 0x8379, offset: 0x8379, size: 0x8, addend: 0x0, symName: _main, symObjAddr: 0x0, symBinAddr: 0x100001F54, symSize: 0x15C }
  - { offsetInCU: 0x83F7, offset: 0x83F7, size: 0x8, addend: 0x0, symName: __ZN7StudentC1Ev, symObjAddr: 0x15C, symBinAddr: 0x1000020B0, symSize: 0x2C }
  - { offsetInCU: 0x8421, offset: 0x8421, size: 0x8, addend: 0x0, symName: __ZN7StudentD1Ev, symObjAddr: 0x540, symBinAddr: 0x100002494, symSize: 0x2C }
  - { offsetInCU: 0x844B, offset: 0x844B, size: 0x8, addend: 0x0, symName: __ZN7StudentC2Ev, symObjAddr: 0x578, symBinAddr: 0x1000024CC, symSize: 0x70 }
  - { offsetInCU: 0x8475, offset: 0x8475, size: 0x8, addend: 0x0, symName: __ZNSt3__112basic_stringIcNS_11char_traitsIcEENS_9allocatorIcEEEC1B8ue170006Ev, symObjAddr: 0x5E8, symBinAddr: 0x10000253C, symSize: 0x2C }
  - { offsetInCU: 0x849D, offset: 0x849D, size: 0x8, addend: 0x0, symName: __ZNSt3__112basic_stringIcNS_11char_traitsIcEENS_9allocatorIcEEEC2B8ue170006Ev, symObjAddr: 0x614, symBinAddr: 0x100002568, symSize: 0x3C }
  - { offsetInCU: 0x84CA, offset: 0x84CA, size: 0x8, addend: 0x0, symName: __ZNSt3__117__compressed_pairINS_12basic_stringIcNS_11char_traitsIcEENS_9allocatorIcEEE5__repES5_EC1B8ue170006INS_18__default_init_tagESA_EEOT_OT0_, symObjAddr: 0x650, symBinAddr: 0x1000025A4, symSize: 0x3C }
  - { offsetInCU: 0x8521, offset: 0x8521, size: 0x8, addend: 0x0, symName: __ZNSt3__112basic_stringIcNS_11char_traitsIcEENS_9allocatorIcEEE14__default_initB8ue170006Ev, symObjAddr: 0x68C, symBinAddr: 0x1000025E0, symSize: 0xB0 }
  - { offsetInCU: 0x8571, offset: 0x8571, size: 0x8, addend: 0x0, symName: __ZNSt3__117__compressed_pairINS_12basic_stringIcNS_11char_traitsIcEENS_9allocatorIcEEE5__repES5_EC2B8ue170006INS_18__default_init_tagESA_EEOT_OT0_, symObjAddr: 0x73C, symBinAddr: 0x100002690, symSize: 0x3C }
  - { offsetInCU: 0x85C8, offset: 0x85C8, size: 0x8, addend: 0x0, symName: __ZNSt3__122__compressed_pair_elemINS_12basic_stringIcNS_11char_traitsIcEENS_9allocatorIcEEE5__repELi0ELb0EEC2B8ue170006ENS_18__default_init_tagE, symObjAddr: 0x778, symBinAddr: 0x1000026CC, symSize: 0x14 }
  - { offsetInCU: 0x85FB, offset: 0x85FB, size: 0x8, addend: 0x0, symName: __ZNSt3__122__compressed_pair_elemINS_9allocatorIcEELi1ELb1EEC2B8ue170006ENS_18__default_init_tagE, symObjAddr: 0x78C, symBinAddr: 0x1000026E0, symSize: 0x2C }
  - { offsetInCU: 0x862E, offset: 0x862E, size: 0x8, addend: 0x0, symName: __ZNSt3__19allocatorIcEC2B8ue170006Ev, symObjAddr: 0x7B8, symBinAddr: 0x10000270C, symSize: 0x2C }
  - { offsetInCU: 0x8657, offset: 0x8657, size: 0x8, addend: 0x0, symName: __ZNSt3__116__non_trivial_ifILb1ENS_9allocatorIcEEEC2B8ue170006Ev, symObjAddr: 0x7E4, symBinAddr: 0x100002738, symSize: 0x14 }
  - { offsetInCU: 0x8680, offset: 0x8680, size: 0x8, addend: 0x0, symName: __ZNSt3__117__compressed_pairINS_12basic_stringIcNS_11char_traitsIcEENS_9allocatorIcEEE5__repES5_E5firstB8ue170006Ev, symObjAddr: 0x7F8, symBinAddr: 0x10000274C, symSize: 0x24 }
  - { offsetInCU: 0x86A4, offset: 0x86A4, size: 0x8, addend: 0x0, symName: __ZNSt3__112basic_stringIcNS_11char_traitsIcEENS_9allocatorIcEEE11__recommendB8ue170006Em, symObjAddr: 0x828, symBinAddr: 0x10000277C, symSize: 0x9C }
  - { offsetInCU: 0x86D7, offset: 0x86D7, size: 0x8, addend: 0x0, symName: __ZNSt3__116allocator_traitsINS_9allocatorIcEEE8allocateB8ue170006ERS2_m, symObjAddr: 0x8C4, symBinAddr: 0x100002818, symSize: 0x2C }
  - { offsetInCU: 0x870A, offset: 0x870A, size: 0x8, addend: 0x0, symName: __ZNSt3__112basic_stringIcNS_11char_traitsIcEENS_9allocatorIcEEE7__allocB8ue170006Ev, symObjAddr: 0x8F0, symBinAddr: 0x100002844, symSize: 0x24 }
  - { offsetInCU: 0x872E, offset: 0x872E, size: 0x8, addend: 0x0, symName: __ZNSt3__112basic_stringIcNS_11char_traitsIcEENS_9allocatorIcEEE16__begin_lifetimeB8ue170006EPcm, symObjAddr: 0x914, symBinAddr: 0x100002868, symSize: 0x14 }
  - { offsetInCU: 0x8761, offset: 0x8761, size: 0x8, addend: 0x0, symName: __ZNSt3__112basic_stringIcNS_11char_traitsIcEENS_9allocatorIcEEE18__set_long_pointerB8ue170006EPc, symObjAddr: 0x928, symBinAddr: 0x10000287C, symSize: 0x38 }
  - { offsetInCU: 0x8794, offset: 0x8794, size: 0x8, addend: 0x0, symName: __ZNSt3__112basic_stringIcNS_11char_traitsIcEENS_9allocatorIcEEE14__set_long_capB8ue170006Em, symObjAddr: 0x960, symBinAddr: 0x1000028B4, symSize: 0x70 }
  - { offsetInCU: 0x87C7, offset: 0x87C7, size: 0x8, addend: 0x0, symName: __ZNSt3__112basic_stringIcNS_11char_traitsIcEENS_9allocatorIcEEE15__set_long_sizeB8ue170006Em, symObjAddr: 0x9D0, symBinAddr: 0x100002924, symSize: 0x38 }
  - { offsetInCU: 0x87FA, offset: 0x87FA, size: 0x8, addend: 0x0, symName: __ZNSt3__122__compressed_pair_elemINS_12basic_stringIcNS_11char_traitsIcEENS_9allocatorIcEEE5__repELi0ELb0EE5__getB8ue170006Ev, symObjAddr: 0xA08, symBinAddr: 0x10000295C, symSize: 0x14 }
  - { offsetInCU: 0x881F, offset: 0x881F, size: 0x8, addend: 0x0, symName: __ZNSt3__112basic_stringIcNS_11char_traitsIcEENS_9allocatorIcEEE10__align_itB8ue170006ILm16EEEmm, symObjAddr: 0xA1C, symBinAddr: 0x100002970, symSize: 0x1C }
  - { offsetInCU: 0x884D, offset: 0x884D, size: 0x8, addend: 0x0, symName: __ZNSt3__19allocatorIcE8allocateB8ue170006Em, symObjAddr: 0xA38, symBinAddr: 0x10000298C, symSize: 0x84 }
  - { offsetInCU: 0x8889, offset: 0x8889, size: 0x8, addend: 0x0, symName: __ZNSt3__116allocator_traitsINS_9allocatorIcEEE8max_sizeB8ue170006IS2_vEEmRKS2_, symObjAddr: 0xABC, symBinAddr: 0x100002A10, symSize: 0x24 }
  - { offsetInCU: 0x88B7, offset: 0x88B7, size: 0x8, addend: 0x0, symName: __ZNKSt3__19allocatorIcE8max_sizeB8ue170006Ev, symObjAddr: 0xB3C, symBinAddr: 0x100002A90, symSize: 0x14 }
  - { offsetInCU: 0x88DC, offset: 0x88DC, size: 0x8, addend: 0x0, symName: __ZNSt3__117__compressed_pairINS_12basic_stringIcNS_11char_traitsIcEENS_9allocatorIcEEE5__repES5_E6secondB8ue170006Ev, symObjAddr: 0xB74, symBinAddr: 0x100002AC8, symSize: 0x24 }
  - { offsetInCU: 0x8900, offset: 0x8900, size: 0x8, addend: 0x0, symName: __ZNSt3__122__compressed_pair_elemINS_9allocatorIcEELi1ELb1EE5__getB8ue170006Ev, symObjAddr: 0xB98, symBinAddr: 0x100002AEC, symSize: 0x14 }
  - { offsetInCU: 0x8924, offset: 0x8924, size: 0x8, addend: 0x0, symName: __ZN7StudentD2Ev, symObjAddr: 0xBAC, symBinAddr: 0x100002B00, symSize: 0x6C }
  - { offsetInCU: 0x89F6, offset: 0x89F6, size: 0x8, addend: 0x0, symName: __ZNKSt3__113basic_istreamIcNS_11char_traitsIcEEE6sentrycvbB8ue170006Ev, symObjAddr: 0xC18, symBinAddr: 0x100002B6C, symSize: 0x1C }
  - { offsetInCU: 0x8A1B, offset: 0x8A1B, size: 0x8, addend: 0x0, symName: __ZNSt3__112basic_stringIcNS_11char_traitsIcEENS_9allocatorIcEEE5clearB8ue170006Ev, symObjAddr: 0xC34, symBinAddr: 0x100002B88, symSize: 0x78 }
  - { offsetInCU: 0x8A42, offset: 0x8A42, size: 0x8, addend: 0x0, symName: __ZNKSt3__18ios_base5widthB8ue170006Ev, symObjAddr: 0xCAC, symBinAddr: 0x100002C00, symSize: 0x18 }
  - { offsetInCU: 0x8A69, offset: 0x8A69, size: 0x8, addend: 0x0, symName: __ZNKSt3__112basic_stringIcNS_11char_traitsIcEENS_9allocatorIcEEE8max_sizeB8ue170006Ev, symObjAddr: 0xCC4, symBinAddr: 0x100002C18, symSize: 0xAC }
  - { offsetInCU: 0x8ABA, offset: 0x8ABA, size: 0x8, addend: 0x0, symName: __ZNSt3__114numeric_limitsIlE3maxB8ue170006Ev, symObjAddr: 0xD70, symBinAddr: 0x100002CC4, symSize: 0x14 }
  - { offsetInCU: 0x8ACE, offset: 0x8ACE, size: 0x8, addend: 0x0, symName: __ZNKSt3__19basic_iosIcNS_11char_traitsIcEEE5rdbufB8ue170006Ev, symObjAddr: 0xDB0, symBinAddr: 0x100002D04, symSize: 0x24 }
  - { offsetInCU: 0x8AF5, offset: 0x8AF5, size: 0x8, addend: 0x0, symName: __ZNSt3__115basic_streambufIcNS_11char_traitsIcEEE5sgetcB8ue170006Ev, symObjAddr: 0xDD4, symBinAddr: 0x100002D28, symSize: 0x70 }
  - { offsetInCU: 0x8B19, offset: 0x8B19, size: 0x8, addend: 0x0, symName: __ZNSt3__111char_traitsIcE11eq_int_typeB8ue170006Eii, symObjAddr: 0xE44, symBinAddr: 0x100002D98, symSize: 0x28 }
  - { offsetInCU: 0x8B4C, offset: 0x8B4C, size: 0x8, addend: 0x0, symName: __ZNSt3__111char_traitsIcE3eofB8ue170006Ev, symObjAddr: 0xE6C, symBinAddr: 0x100002DC0, symSize: 0x8 }
  - { offsetInCU: 0x8B60, offset: 0x8B60, size: 0x8, addend: 0x0, symName: __ZNSt3__111char_traitsIcE12to_char_typeB8ue170006Ei, symObjAddr: 0xE74, symBinAddr: 0x100002DC8, symSize: 0x18 }
  - { offsetInCU: 0x8BB0, offset: 0x8BB0, size: 0x8, addend: 0x0, symName: __ZNKSt3__15ctypeIcE2isB8ue170006Ejc, symObjAddr: 0xE8C, symBinAddr: 0x100002DE0, symSize: 0x7C }
  - { offsetInCU: 0x8BF2, offset: 0x8BF2, size: 0x8, addend: 0x0, symName: __ZNSt3__115basic_streambufIcNS_11char_traitsIcEEE6sbumpcB8ue170006Ev, symObjAddr: 0xF08, symBinAddr: 0x100002E5C, symSize: 0x78 }
  - { offsetInCU: 0x8C16, offset: 0x8C16, size: 0x8, addend: 0x0, symName: __ZNSt3__18ios_base5widthB8ue170006El, symObjAddr: 0xF80, symBinAddr: 0x100002ED4, symSize: 0x2C }
  - { offsetInCU: 0x8C5B, offset: 0x8C5B, size: 0x8, addend: 0x0, symName: __ZNSt3__18ios_base18__setstate_nothrowB8ue170006Ej, symObjAddr: 0xFAC, symBinAddr: 0x100002F00, symSize: 0x64 }
  - { offsetInCU: 0x8C8F, offset: 0x8C8F, size: 0x8, addend: 0x0, symName: __ZNKSt3__19basic_iosIcNS_11char_traitsIcEEE10exceptionsB8ue170006Ev, symObjAddr: 0x1010, symBinAddr: 0x100002F64, symSize: 0x24 }
  - { offsetInCU: 0x8CB3, offset: 0x8CB3, size: 0x8, addend: 0x0, symName: __ZNSt3__19basic_iosIcNS_11char_traitsIcEEE8setstateB8ue170006Ej, symObjAddr: 0x1034, symBinAddr: 0x100002F88, symSize: 0x2C }
  - { offsetInCU: 0x8CE6, offset: 0x8CE6, size: 0x8, addend: 0x0, symName: __ZNKSt3__112basic_stringIcNS_11char_traitsIcEENS_9allocatorIcEEE9__is_longB8ue170006Ev, symObjAddr: 0x1060, symBinAddr: 0x100002FB4, symSize: 0x74 }
  - { offsetInCU: 0x8D0A, offset: 0x8D0A, size: 0x8, addend: 0x0, symName: __ZNSt3__111char_traitsIcE6assignB8ue170006ERcRKc, symObjAddr: 0x10D4, symBinAddr: 0x100003028, symSize: 0x24 }
  - { offsetInCU: 0x8D3B, offset: 0x8D3B, size: 0x8, addend: 0x0, symName: __ZNSt3__112basic_stringIcNS_11char_traitsIcEENS_9allocatorIcEEE18__get_long_pointerB8ue170006Ev, symObjAddr: 0x10F8, symBinAddr: 0x10000304C, symSize: 0x28 }
  - { offsetInCU: 0x8D5F, offset: 0x8D5F, size: 0x8, addend: 0x0, symName: __ZNSt3__112basic_stringIcNS_11char_traitsIcEENS_9allocatorIcEEE19__get_short_pointerB8ue170006Ev, symObjAddr: 0x1120, symBinAddr: 0x100003074, symSize: 0x28 }
  - { offsetInCU: 0x8D83, offset: 0x8D83, size: 0x8, addend: 0x0, symName: __ZNSt3__112basic_stringIcNS_11char_traitsIcEENS_9allocatorIcEEE16__set_short_sizeB8ue170006Em, symObjAddr: 0x1148, symBinAddr: 0x10000309C, symSize: 0x78 }
  - { offsetInCU: 0x8DB6, offset: 0x8DB6, size: 0x8, addend: 0x0, symName: __ZNKSt3__117__compressed_pairINS_12basic_stringIcNS_11char_traitsIcEENS_9allocatorIcEEE5__repES5_E5firstB8ue170006Ev, symObjAddr: 0x11C0, symBinAddr: 0x100003114, symSize: 0x24 }
  - { offsetInCU: 0x8DDA, offset: 0x8DDA, size: 0x8, addend: 0x0, symName: __ZNKSt3__122__compressed_pair_elemINS_12basic_stringIcNS_11char_traitsIcEENS_9allocatorIcEEE5__repELi0ELb0EE5__getB8ue170006Ev, symObjAddr: 0x11E4, symBinAddr: 0x100003138, symSize: 0x14 }
  - { offsetInCU: 0x8DFF, offset: 0x8DFF, size: 0x8, addend: 0x0, symName: __ZNSt3__114pointer_traitsIPcE10pointer_toB8ue170006ERc, symObjAddr: 0x11F8, symBinAddr: 0x10000314C, symSize: 0x14 }
  - { offsetInCU: 0x8E22, offset: 0x8E22, size: 0x8, addend: 0x0, symName: __ZNKSt3__112basic_stringIcNS_11char_traitsIcEENS_9allocatorIcEEE7__allocB8ue170006Ev, symObjAddr: 0x120C, symBinAddr: 0x100003160, symSize: 0x24 }
  - { offsetInCU: 0x8E46, offset: 0x8E46, size: 0x8, addend: 0x0, symName: __ZNSt3__114numeric_limitsImE3maxB8ue170006Ev, symObjAddr: 0x1230, symBinAddr: 0x100003184, symSize: 0x14 }
  - { offsetInCU: 0x8E5A, offset: 0x8E5A, size: 0x8, addend: 0x0, symName: __ZNKSt3__117__compressed_pairINS_12basic_stringIcNS_11char_traitsIcEENS_9allocatorIcEEE5__repES5_E6secondB8ue170006Ev, symObjAddr: 0x1244, symBinAddr: 0x100003198, symSize: 0x24 }
  - { offsetInCU: 0x8E7E, offset: 0x8E7E, size: 0x8, addend: 0x0, symName: __ZNKSt3__122__compressed_pair_elemINS_9allocatorIcEELi1ELb1EE5__getB8ue170006Ev, symObjAddr: 0x1268, symBinAddr: 0x1000031BC, symSize: 0x14 }
  - { offsetInCU: 0x8EA3, offset: 0x8EA3, size: 0x8, addend: 0x0, symName: __ZNSt3__123__libcpp_numeric_limitsImLb1EE3maxB8ue170006Ev, symObjAddr: 0x127C, symBinAddr: 0x1000031D0, symSize: 0x8 }
  - { offsetInCU: 0x8EB7, offset: 0x8EB7, size: 0x8, addend: 0x0, symName: __ZNSt3__123__libcpp_numeric_limitsIlLb1EE3maxB8ue170006Ev, symObjAddr: 0x1284, symBinAddr: 0x1000031D8, symSize: 0x8 }
  - { offsetInCU: 0x8ECB, offset: 0x8ECB, size: 0x8, addend: 0x0, symName: __ZNKSt3__18ios_base5rdbufB8ue170006Ev, symObjAddr: 0x128C, symBinAddr: 0x1000031E0, symSize: 0x18 }
  - { offsetInCU: 0x8EF0, offset: 0x8EF0, size: 0x8, addend: 0x0, symName: __ZNSt3__111char_traitsIcE11to_int_typeB8ue170006Ec, symObjAddr: 0x12A4, symBinAddr: 0x1000031F8, symSize: 0x14 }
  - { offsetInCU: 0x8F13, offset: 0x8F13, size: 0x8, addend: 0x0, symName: __Z7isasciii, symObjAddr: 0x12B8, symBinAddr: 0x10000320C, symSize: 0x24 }
  - { offsetInCU: 0x8F40, offset: 0x8F40, size: 0x8, addend: 0x0, symName: __ZNKSt3__18ios_base10exceptionsB8ue170006Ev, symObjAddr: 0x12DC, symBinAddr: 0x100003230, symSize: 0x18 }
  - { offsetInCU: 0x8F67, offset: 0x8F67, size: 0x8, addend: 0x0, symName: __ZNSt3__18ios_base8setstateB8ue170006Ej, symObjAddr: 0x12F4, symBinAddr: 0x100003248, symSize: 0x34 }
  - { offsetInCU: 0x8F9D, offset: 0x8F9D, size: 0x8, addend: 0x0, symName: __ZNSt3__111char_traitsIcE6lengthB8ue170006EPKc, symObjAddr: 0x151C, symBinAddr: 0x100003470, symSize: 0x48 }
  - { offsetInCU: 0x8FDE, offset: 0x8FDE, size: 0x8, addend: 0x0, symName: __ZNKSt3__113basic_ostreamIcNS_11char_traitsIcEEE6sentrycvbB8ue170006Ev, symObjAddr: 0x1564, symBinAddr: 0x1000034B8, symSize: 0x1C }
  - { offsetInCU: 0x9002, offset: 0x9002, size: 0x8, addend: 0x0, symName: __ZNSt3__119ostreambuf_iteratorIcNS_11char_traitsIcEEEC1B8ue170006ERNS_13basic_ostreamIcS2_EE, symObjAddr: 0x17C8, symBinAddr: 0x10000371C, symSize: 0x34 }
  - { offsetInCU: 0x9039, offset: 0x9039, size: 0x8, addend: 0x0, symName: __ZNKSt3__18ios_base5flagsB8ue170006Ev, symObjAddr: 0x17FC, symBinAddr: 0x100003750, symSize: 0x18 }
  - { offsetInCU: 0x9060, offset: 0x9060, size: 0x8, addend: 0x0, symName: __ZNKSt3__19basic_iosIcNS_11char_traitsIcEEE4fillB8ue170006Ev, symObjAddr: 0x1814, symBinAddr: 0x100003768, symSize: 0x64 }
  - { offsetInCU: 0x9087, offset: 0x9087, size: 0x8, addend: 0x0, symName: __ZNKSt3__119ostreambuf_iteratorIcNS_11char_traitsIcEEE6failedB8ue170006Ev, symObjAddr: 0x1878, symBinAddr: 0x1000037CC, symSize: 0x24 }
  - { offsetInCU: 0x90AC, offset: 0x90AC, size: 0x8, addend: 0x0, symName: __ZNSt3__115basic_streambufIcNS_11char_traitsIcEEE5sputnB8ue170006EPKcl, symObjAddr: 0x189C, symBinAddr: 0x1000037F0, symSize: 0x3C }
  - { offsetInCU: 0x90EB, offset: 0x90EB, size: 0x8, addend: 0x0, symName: __ZNSt3__112basic_stringIcNS_11char_traitsIcEENS_9allocatorIcEEEC1B8ue170006Emc, symObjAddr: 0x18D8, symBinAddr: 0x10000382C, symSize: 0x3C }
  - { offsetInCU: 0x9132, offset: 0x9132, size: 0x8, addend: 0x0, symName: __ZNKSt3__112basic_stringIcNS_11char_traitsIcEENS_9allocatorIcEEE4dataB8ue170006Ev, symObjAddr: 0x1914, symBinAddr: 0x100003868, symSize: 0x28 }
  - { offsetInCU: 0x9155, offset: 0x9155, size: 0x8, addend: 0x0, symName: __ZNSt3__112basic_stringIcNS_11char_traitsIcEENS_9allocatorIcEEEC2B8ue170006Emc, symObjAddr: 0x193C, symBinAddr: 0x100003890, symSize: 0x4C }
  - { offsetInCU: 0x919C, offset: 0x919C, size: 0x8, addend: 0x0, symName: __ZNKSt3__112basic_stringIcNS_11char_traitsIcEENS_9allocatorIcEEE13__get_pointerB8ue170006Ev, symObjAddr: 0x199C, symBinAddr: 0x1000038F0, symSize: 0x54 }
  - { offsetInCU: 0x91C0, offset: 0x91C0, size: 0x8, addend: 0x0, symName: __ZNKSt3__112basic_stringIcNS_11char_traitsIcEENS_9allocatorIcEEE18__get_long_pointerB8ue170006Ev, symObjAddr: 0x19F0, symBinAddr: 0x100003944, symSize: 0x28 }
  - { offsetInCU: 0x91E4, offset: 0x91E4, size: 0x8, addend: 0x0, symName: __ZNKSt3__112basic_stringIcNS_11char_traitsIcEENS_9allocatorIcEEE19__get_short_pointerB8ue170006Ev, symObjAddr: 0x1A18, symBinAddr: 0x10000396C, symSize: 0x28 }
  - { offsetInCU: 0x9208, offset: 0x9208, size: 0x8, addend: 0x0, symName: __ZNSt3__114pointer_traitsIPKcE10pointer_toB8ue170006ERS1_, symObjAddr: 0x1A40, symBinAddr: 0x100003994, symSize: 0x14 }
  - { offsetInCU: 0x922A, offset: 0x922A, size: 0x8, addend: 0x0, symName: __ZNSt3__119ostreambuf_iteratorIcNS_11char_traitsIcEEEC2B8ue170006ERNS_13basic_ostreamIcS2_EE, symObjAddr: 0x1A54, symBinAddr: 0x1000039A8, symSize: 0x68 }
  - { offsetInCU: 0x9261, offset: 0x9261, size: 0x8, addend: 0x0, symName: __ZNKSt3__19basic_iosIcNS_11char_traitsIcEEE5widenB8ue170006Ec, symObjAddr: 0x1ABC, symBinAddr: 0x100003A10, symSize: 0x8C }
  - { offsetInCU: 0x9297, offset: 0x9297, size: 0x8, addend: 0x0, symName: __ZNKSt3__15ctypeIcE5widenB8ue170006Ec, symObjAddr: 0x1B48, symBinAddr: 0x100003A9C, symSize: 0x38 }
  - { offsetInCU: 0x92CA, offset: 0x92CA, size: 0x8, addend: 0x0, symName: __ZNKSt3__112basic_stringIcNS_11char_traitsIcEENS_9allocatorIcEEE4sizeB8ue170006Ev, symObjAddr: 0x1BA4, symBinAddr: 0x100003AF8, symSize: 0x54 }
  - { offsetInCU: 0x92EE, offset: 0x92EE, size: 0x8, addend: 0x0, symName: __ZNKSt3__112basic_stringIcNS_11char_traitsIcEENS_9allocatorIcEEE15__get_long_sizeB8ue170006Ev, symObjAddr: 0x1BF8, symBinAddr: 0x100003B4C, symSize: 0x28 }
  - { offsetInCU: 0x9312, offset: 0x9312, size: 0x8, addend: 0x0, symName: __ZNKSt3__112basic_stringIcNS_11char_traitsIcEENS_9allocatorIcEEE16__get_short_sizeB8ue170006Ev, symObjAddr: 0x1C20, symBinAddr: 0x100003B74, symSize: 0x34 }
...
