---
triple:          'arm64-apple-darwin'
binary-path:     '/Users/kajalbormon/Developer/Code/HakerRank/Practice/output/practice'
relocations:
  - { offsetInCU: 0x3438, offset: 0x3438, size: 0x8, addend: 0x0, symName: __ZNSt3__124__put_character_sequenceB8ue170006IcNS_11char_traitsIcEEEERNS_13basic_ostreamIT_T0_EES7_PKS4_m, symObjAddr: 0x1B10, symBinAddr: 0x100003144, symSize: 0x1F4 }
  - { offsetInCU: 0x56A1, offset: 0x56A1, size: 0x8, addend: 0x0, symName: __ZNSt3__1rsB8ue170006IcNS_11char_traitsIcEENS_9allocatorIcEEEERNS_13basic_istreamIT_T0_EES9_RNS_12basic_stringIS6_S7_T1_EE, symObjAddr: 0x328, symBinAddr: 0x10000195C, symSize: 0x324 }
  - { offsetInCU: 0x5770, offset: 0x5770, size: 0x8, addend: 0x0, symName: __ZNSt3__1lsB8ue170006IcNS_11char_traitsIcEENS_9allocatorIcEEEERNS_13basic_ostreamIT_T0_EES9_RKNS_12basic_stringIS6_S7_T1_EE, symObjAddr: 0x64C, symBinAddr: 0x100001C80, symSize: 0x4C }
  - { offsetInCU: 0x57C8, offset: 0x57C8, size: 0x8, addend: 0x0, symName: __ZNSt3__1lsB8ue170006INS_11char_traitsIcEEEERNS_13basic_ostreamIcT_EES6_PKc, symObjAddr: 0x698, symBinAddr: 0x100001CCC, symSize: 0x48 }
  - { offsetInCU: 0x580E, offset: 0x580E, size: 0x8, addend: 0x0, symName: __ZNSt3__14endlB8ue170006IcNS_11char_traitsIcEEEERNS_13basic_ostreamIT_T0_EES7_, symObjAddr: 0x70C, symBinAddr: 0x100001D40, symSize: 0x58 }
  - { offsetInCU: 0x5859, offset: 0x5859, size: 0x8, addend: 0x0, symName: __ZNSt3__118__constexpr_strlenB8ue170006EPKc, symObjAddr: 0xB04, symBinAddr: 0x100002138, symSize: 0x24 }
  - { offsetInCU: 0x5885, offset: 0x5885, size: 0x8, addend: 0x0, symName: __ZNSt3__130__libcpp_is_constant_evaluatedB8ue170006Ev, symObjAddr: 0x1098, symBinAddr: 0x1000026CC, symSize: 0xC }
  - { offsetInCU: 0x58A2, offset: 0x58A2, size: 0x8, addend: 0x0, symName: __ZNSt3__117__libcpp_allocateB8ue170006Emm, symObjAddr: 0x1390, symBinAddr: 0x1000029C4, symSize: 0x28 }
  - { offsetInCU: 0x58DF, offset: 0x58DF, size: 0x8, addend: 0x0, symName: __ZNSt3__121__libcpp_operator_newB8ue170006IJmEEEPvDpT_, symObjAddr: 0x13CC, symBinAddr: 0x100002A00, symSize: 0x24 }
  - { offsetInCU: 0x5B19, offset: 0x5B19, size: 0x8, addend: 0x0, symName: __ZNSt3__19use_facetB8ue170006INS_5ctypeIcEEEERKT_RKNS_6localeE, symObjAddr: 0x15D0, symBinAddr: 0x100002C04, symSize: 0x2C }
  - { offsetInCU: 0x612C, offset: 0x612C, size: 0x8, addend: 0x0, symName: __ZNSt3__116__pad_and_outputB8ue170006IcNS_11char_traitsIcEEEENS_19ostreambuf_iteratorIT_T0_EES6_PKS4_S8_S8_RNS_8ios_baseES4_, symObjAddr: 0x1D20, symBinAddr: 0x100003354, symSize: 0x248 }
  - { offsetInCU: 0x61FB, offset: 0x61FB, size: 0x8, addend: 0x0, symName: __ZNSt3__112__to_addressB8ue170006IKcEEPT_S3_, symObjAddr: 0x2128, symBinAddr: 0x10000375C, symSize: 0x14 }
  - { offsetInCU: 0x626F, offset: 0x626F, size: 0x8, addend: 0x0, symName: __ZSt28__throw_bad_array_new_lengthB8ue170006v, symObjAddr: 0x135C, symBinAddr: 0x100002990, symSize: 0x34 }
  - { offsetInCU: 0x884D, offset: 0x884D, size: 0x8, addend: 0x0, symName: _main, symObjAddr: 0x0, symBinAddr: 0x100001634, symSize: 0x1AC }
  - { offsetInCU: 0x88B5, offset: 0x88B5, size: 0x8, addend: 0x0, symName: __ZNSt3__112basic_stringIcNS_11char_traitsIcEENS_9allocatorIcEEEC1B8ue170006ILi0EEEPKc, symObjAddr: 0x1AC, symBinAddr: 0x1000017E0, symSize: 0x34 }
  - { offsetInCU: 0x89DA, offset: 0x89DA, size: 0x8, addend: 0x0, symName: __ZNSt3__118basic_stringstreamIcNS_11char_traitsIcEENS_9allocatorIcEEEC1B8ue170006ERKNS_12basic_stringIcS2_S4_EEj, symObjAddr: 0x1E0, symBinAddr: 0x100001814, symSize: 0x11C }
  - { offsetInCU: 0x8A20, offset: 0x8A20, size: 0x8, addend: 0x0, symName: __ZNSt3__112basic_stringIcNS_11char_traitsIcEENS_9allocatorIcEEEC1B8ue170006Ev, symObjAddr: 0x2FC, symBinAddr: 0x100001930, symSize: 0x2C }
  - { offsetInCU: 0x8A49, offset: 0x8A49, size: 0x8, addend: 0x0, symName: __ZNSt3__113basic_ostreamIcNS_11char_traitsIcEEElsB8ue170006EPFRS3_S4_E, symObjAddr: 0x6E0, symBinAddr: 0x100001D14, symSize: 0x2C }
  - { offsetInCU: 0x8A81, offset: 0x8A81, size: 0x8, addend: 0x0, symName: __ZNSt3__118basic_stringstreamIcNS_11char_traitsIcEENS_9allocatorIcEEED1Ev, symObjAddr: 0x770, symBinAddr: 0x100001DA4, symSize: 0x70 }
  - { offsetInCU: 0x8AAD, offset: 0x8AAD, size: 0x8, addend: 0x0, symName: __ZNSt3__118basic_stringstreamIcNS_11char_traitsIcEENS_9allocatorIcEEED2Ev, symObjAddr: 0x7E0, symBinAddr: 0x100001E14, symSize: 0xA4 }
  - { offsetInCU: 0x8AE5, offset: 0x8AE5, size: 0x8, addend: 0x0, symName: __ZThn16_NSt3__118basic_stringstreamIcNS_11char_traitsIcEENS_9allocatorIcEEED1Ev, symObjAddr: 0x884, symBinAddr: 0x100001EB8, symSize: 0x1C }
  - { offsetInCU: 0x8AFC, offset: 0x8AFC, size: 0x8, addend: 0x0, symName: __ZTv0_n24_NSt3__118basic_stringstreamIcNS_11char_traitsIcEENS_9allocatorIcEEED1Ev, symObjAddr: 0x8A0, symBinAddr: 0x100001ED4, symSize: 0x28 }
  - { offsetInCU: 0x8B18, offset: 0x8B18, size: 0x8, addend: 0x0, symName: __ZNSt3__115basic_stringbufIcNS_11char_traitsIcEENS_9allocatorIcEEED1Ev, symObjAddr: 0x8C8, symBinAddr: 0x100001EFC, symSize: 0x2C }
  - { offsetInCU: 0x8B44, offset: 0x8B44, size: 0x8, addend: 0x0, symName: __ZNSt3__115basic_stringbufIcNS_11char_traitsIcEENS_9allocatorIcEEED2Ev, symObjAddr: 0x8F4, symBinAddr: 0x100001F28, symSize: 0x78 }
  - { offsetInCU: 0x8B6F, offset: 0x8B6F, size: 0x8, addend: 0x0, symName: __ZNSt3__112basic_stringIcNS_11char_traitsIcEENS_9allocatorIcEEEC2B8ue170006ILi0EEEPKc, symObjAddr: 0x96C, symBinAddr: 0x100001FA0, symSize: 0x58 }
  - { offsetInCU: 0x8BB1, offset: 0x8BB1, size: 0x8, addend: 0x0, symName: __ZNSt3__117__compressed_pairINS_12basic_stringIcNS_11char_traitsIcEENS_9allocatorIcEEE5__repES5_EC1B8ue170006INS_18__default_init_tagESA_EEOT_OT0_, symObjAddr: 0x9C4, symBinAddr: 0x100001FF8, symSize: 0x3C }
  - { offsetInCU: 0x8C08, offset: 0x8C08, size: 0x8, addend: 0x0, symName: __ZNSt3__111char_traitsIcE6lengthB8ue170006EPKc, symObjAddr: 0xA00, symBinAddr: 0x100002034, symSize: 0x48 }
  - { offsetInCU: 0x8C2A, offset: 0x8C2A, size: 0x8, addend: 0x0, symName: __ZNSt3__117__compressed_pairINS_12basic_stringIcNS_11char_traitsIcEENS_9allocatorIcEEE5__repES5_EC2B8ue170006INS_18__default_init_tagESA_EEOT_OT0_, symObjAddr: 0xA48, symBinAddr: 0x10000207C, symSize: 0x3C }
  - { offsetInCU: 0x8C81, offset: 0x8C81, size: 0x8, addend: 0x0, symName: __ZNSt3__122__compressed_pair_elemINS_12basic_stringIcNS_11char_traitsIcEENS_9allocatorIcEEE5__repELi0ELb0EEC2B8ue170006ENS_18__default_init_tagE, symObjAddr: 0xA84, symBinAddr: 0x1000020B8, symSize: 0x14 }
  - { offsetInCU: 0x8CB4, offset: 0x8CB4, size: 0x8, addend: 0x0, symName: __ZNSt3__122__compressed_pair_elemINS_9allocatorIcEELi1ELb1EEC2B8ue170006ENS_18__default_init_tagE, symObjAddr: 0xA98, symBinAddr: 0x1000020CC, symSize: 0x2C }
  - { offsetInCU: 0x8CE7, offset: 0x8CE7, size: 0x8, addend: 0x0, symName: __ZNSt3__19allocatorIcEC2B8ue170006Ev, symObjAddr: 0xAC4, symBinAddr: 0x1000020F8, symSize: 0x2C }
  - { offsetInCU: 0x8D10, offset: 0x8D10, size: 0x8, addend: 0x0, symName: __ZNSt3__116__non_trivial_ifILb1ENS_9allocatorIcEEEC2B8ue170006Ev, symObjAddr: 0xAF0, symBinAddr: 0x100002124, symSize: 0x14 }
  - { offsetInCU: 0x8D38, offset: 0x8D38, size: 0x8, addend: 0x0, symName: __ZNSt3__19basic_iosIcNS_11char_traitsIcEEEC2B8ue170006Ev, symObjAddr: 0xB28, symBinAddr: 0x10000215C, symSize: 0x44 }
  - { offsetInCU: 0x8D60, offset: 0x8D60, size: 0x8, addend: 0x0, symName: __ZNSt3__114basic_iostreamIcNS_11char_traitsIcEEEC2B8ue170006EPNS_15basic_streambufIcS2_EE, symObjAddr: 0xB6C, symBinAddr: 0x1000021A0, symSize: 0xB4 }
  - { offsetInCU: 0x8DA3, offset: 0x8DA3, size: 0x8, addend: 0x0, symName: __ZNSt3__115basic_stringbufIcNS_11char_traitsIcEENS_9allocatorIcEEEC1B8ue170006ERKNS_12basic_stringIcS2_S4_EEj, symObjAddr: 0xC20, symBinAddr: 0x100002254, symSize: 0x3C }
  - { offsetInCU: 0x8DEA, offset: 0x8DEA, size: 0x8, addend: 0x0, symName: __ZNSt3__18ios_baseC2B8ue170006Ev, symObjAddr: 0xC5C, symBinAddr: 0x100002290, symSize: 0x24 }
  - { offsetInCU: 0x8E12, offset: 0x8E12, size: 0x8, addend: 0x0, symName: __ZNSt3__113basic_istreamIcNS_11char_traitsIcEEEC2B8ue170006EPNS_15basic_streambufIcS2_EE, symObjAddr: 0xC80, symBinAddr: 0x1000022B4, symSize: 0x64 }
  - { offsetInCU: 0x8E55, offset: 0x8E55, size: 0x8, addend: 0x0, symName: __ZNSt3__113basic_ostreamIcNS_11char_traitsIcEEEC2B8ue170006Ev, symObjAddr: 0xCE4, symBinAddr: 0x100002318, symSize: 0x34 }
  - { offsetInCU: 0x8E8A, offset: 0x8E8A, size: 0x8, addend: 0x0, symName: __ZNSt3__19basic_iosIcNS_11char_traitsIcEEE4initB8ue170006EPNS_15basic_streambufIcS2_EE, symObjAddr: 0xD18, symBinAddr: 0x10000234C, symSize: 0x44 }
  - { offsetInCU: 0x8EC0, offset: 0x8EC0, size: 0x8, addend: 0x0, symName: __ZNSt3__111char_traitsIcE3eofB8ue170006Ev, symObjAddr: 0xD5C, symBinAddr: 0x100002390, symSize: 0x8 }
  - { offsetInCU: 0x8ED3, offset: 0x8ED3, size: 0x8, addend: 0x0, symName: __ZNSt3__115basic_stringbufIcNS_11char_traitsIcEENS_9allocatorIcEEEC2B8ue170006ERKNS_12basic_stringIcS2_S4_EEj, symObjAddr: 0xD64, symBinAddr: 0x100002398, symSize: 0xD8 }
  - { offsetInCU: 0x8F1A, offset: 0x8F1A, size: 0x8, addend: 0x0, symName: __ZNKSt3__112basic_stringIcNS_11char_traitsIcEENS_9allocatorIcEEE13get_allocatorB8ue170006Ev, symObjAddr: 0xE3C, symBinAddr: 0x100002470, symSize: 0x24 }
  - { offsetInCU: 0x8F3E, offset: 0x8F3E, size: 0x8, addend: 0x0, symName: __ZNSt3__112basic_stringIcNS_11char_traitsIcEENS_9allocatorIcEEEC1B8ue170006ERKS4_, symObjAddr: 0xE60, symBinAddr: 0x100002494, symSize: 0x34 }
  - { offsetInCU: 0x8F76, offset: 0x8F76, size: 0x8, addend: 0x0, symName: __ZNKSt3__112basic_stringIcNS_11char_traitsIcEENS_9allocatorIcEEE7__allocB8ue170006Ev, symObjAddr: 0xE94, symBinAddr: 0x1000024C8, symSize: 0x24 }
  - { offsetInCU: 0x8F9B, offset: 0x8F9B, size: 0x8, addend: 0x0, symName: __ZNKSt3__117__compressed_pairINS_12basic_stringIcNS_11char_traitsIcEENS_9allocatorIcEEE5__repES5_E6secondB8ue170006Ev, symObjAddr: 0xEB8, symBinAddr: 0x1000024EC, symSize: 0x24 }
  - { offsetInCU: 0x8FC0, offset: 0x8FC0, size: 0x8, addend: 0x0, symName: __ZNKSt3__122__compressed_pair_elemINS_9allocatorIcEELi1ELb1EE5__getB8ue170006Ev, symObjAddr: 0xEDC, symBinAddr: 0x100002510, symSize: 0x14 }
  - { offsetInCU: 0x8FE4, offset: 0x8FE4, size: 0x8, addend: 0x0, symName: __ZNSt3__112basic_stringIcNS_11char_traitsIcEENS_9allocatorIcEEEC2B8ue170006ERKS4_, symObjAddr: 0xEF0, symBinAddr: 0x100002524, symSize: 0x40 }
  - { offsetInCU: 0x901B, offset: 0x901B, size: 0x8, addend: 0x0, symName: __ZNSt3__117__compressed_pairINS_12basic_stringIcNS_11char_traitsIcEENS_9allocatorIcEEE5__repES5_EC1B8ue170006INS_18__default_init_tagERKS5_EEOT_OT0_, symObjAddr: 0xF30, symBinAddr: 0x100002564, symSize: 0x3C }
  - { offsetInCU: 0x9072, offset: 0x9072, size: 0x8, addend: 0x0, symName: __ZNSt3__112basic_stringIcNS_11char_traitsIcEENS_9allocatorIcEEE14__default_initB8ue170006Ev, symObjAddr: 0xF6C, symBinAddr: 0x1000025A0, symSize: 0xB0 }
  - { offsetInCU: 0x90C3, offset: 0x90C3, size: 0x8, addend: 0x0, symName: __ZNSt3__117__compressed_pairINS_12basic_stringIcNS_11char_traitsIcEENS_9allocatorIcEEE5__repES5_EC2B8ue170006INS_18__default_init_tagERKS5_EEOT_OT0_, symObjAddr: 0x101C, symBinAddr: 0x100002650, symSize: 0x40 }
  - { offsetInCU: 0x911A, offset: 0x911A, size: 0x8, addend: 0x0, symName: __ZNSt3__122__compressed_pair_elemINS_9allocatorIcEELi1ELb1EEC2B8ue170006IRKS2_vEEOT_, symObjAddr: 0x105C, symBinAddr: 0x100002690, symSize: 0x18 }
  - { offsetInCU: 0x915B, offset: 0x915B, size: 0x8, addend: 0x0, symName: __ZNSt3__117__compressed_pairINS_12basic_stringIcNS_11char_traitsIcEENS_9allocatorIcEEE5__repES5_E5firstB8ue170006Ev, symObjAddr: 0x1074, symBinAddr: 0x1000026A8, symSize: 0x24 }
  - { offsetInCU: 0x9180, offset: 0x9180, size: 0x8, addend: 0x0, symName: __ZNSt3__112basic_stringIcNS_11char_traitsIcEENS_9allocatorIcEEE11__recommendB8ue170006Em, symObjAddr: 0x10A4, symBinAddr: 0x1000026D8, symSize: 0x9C }
  - { offsetInCU: 0x91B3, offset: 0x91B3, size: 0x8, addend: 0x0, symName: __ZNSt3__116allocator_traitsINS_9allocatorIcEEE8allocateB8ue170006ERS2_m, symObjAddr: 0x1140, symBinAddr: 0x100002774, symSize: 0x2C }
  - { offsetInCU: 0x91E6, offset: 0x91E6, size: 0x8, addend: 0x0, symName: __ZNSt3__112basic_stringIcNS_11char_traitsIcEENS_9allocatorIcEEE7__allocB8ue170006Ev, symObjAddr: 0x116C, symBinAddr: 0x1000027A0, symSize: 0x24 }
  - { offsetInCU: 0x920B, offset: 0x920B, size: 0x8, addend: 0x0, symName: __ZNSt3__112basic_stringIcNS_11char_traitsIcEENS_9allocatorIcEEE16__begin_lifetimeB8ue170006EPcm, symObjAddr: 0x1190, symBinAddr: 0x1000027C4, symSize: 0x14 }
  - { offsetInCU: 0x923E, offset: 0x923E, size: 0x8, addend: 0x0, symName: __ZNSt3__112basic_stringIcNS_11char_traitsIcEENS_9allocatorIcEEE18__set_long_pointerB8ue170006EPc, symObjAddr: 0x11A4, symBinAddr: 0x1000027D8, symSize: 0x38 }
  - { offsetInCU: 0x9272, offset: 0x9272, size: 0x8, addend: 0x0, symName: __ZNSt3__112basic_stringIcNS_11char_traitsIcEENS_9allocatorIcEEE14__set_long_capB8ue170006Em, symObjAddr: 0x11DC, symBinAddr: 0x100002810, symSize: 0x70 }
  - { offsetInCU: 0x92A6, offset: 0x92A6, size: 0x8, addend: 0x0, symName: __ZNSt3__112basic_stringIcNS_11char_traitsIcEENS_9allocatorIcEEE15__set_long_sizeB8ue170006Em, symObjAddr: 0x124C, symBinAddr: 0x100002880, symSize: 0x38 }
  - { offsetInCU: 0x92DA, offset: 0x92DA, size: 0x8, addend: 0x0, symName: __ZNSt3__122__compressed_pair_elemINS_12basic_stringIcNS_11char_traitsIcEENS_9allocatorIcEEE5__repELi0ELb0EE5__getB8ue170006Ev, symObjAddr: 0x1284, symBinAddr: 0x1000028B8, symSize: 0x14 }
  - { offsetInCU: 0x92FF, offset: 0x92FF, size: 0x8, addend: 0x0, symName: __ZNSt3__112basic_stringIcNS_11char_traitsIcEENS_9allocatorIcEEE10__align_itB8ue170006ILm16EEEmm, symObjAddr: 0x1298, symBinAddr: 0x1000028CC, symSize: 0x1C }
  - { offsetInCU: 0x932D, offset: 0x932D, size: 0x8, addend: 0x0, symName: __ZNSt3__19allocatorIcE8allocateB8ue170006Em, symObjAddr: 0x12B4, symBinAddr: 0x1000028E8, symSize: 0x84 }
  - { offsetInCU: 0x936A, offset: 0x936A, size: 0x8, addend: 0x0, symName: __ZNSt3__116allocator_traitsINS_9allocatorIcEEE8max_sizeB8ue170006IS2_vEEmRKS2_, symObjAddr: 0x1338, symBinAddr: 0x10000296C, symSize: 0x24 }
  - { offsetInCU: 0x9398, offset: 0x9398, size: 0x8, addend: 0x0, symName: __ZNKSt3__19allocatorIcE8max_sizeB8ue170006Ev, symObjAddr: 0x13B8, symBinAddr: 0x1000029EC, symSize: 0x14 }
  - { offsetInCU: 0x93BD, offset: 0x93BD, size: 0x8, addend: 0x0, symName: __ZNSt3__117__compressed_pairINS_12basic_stringIcNS_11char_traitsIcEENS_9allocatorIcEEE5__repES5_E6secondB8ue170006Ev, symObjAddr: 0x13F0, symBinAddr: 0x100002A24, symSize: 0x24 }
  - { offsetInCU: 0x93E2, offset: 0x93E2, size: 0x8, addend: 0x0, symName: __ZNSt3__122__compressed_pair_elemINS_9allocatorIcEELi1ELb1EE5__getB8ue170006Ev, symObjAddr: 0x1414, symBinAddr: 0x100002A48, symSize: 0x14 }
  - { offsetInCU: 0x9406, offset: 0x9406, size: 0x8, addend: 0x0, symName: __ZNSt3__112basic_stringIcNS_11char_traitsIcEENS_9allocatorIcEEEC2B8ue170006Ev, symObjAddr: 0x1428, symBinAddr: 0x100002A5C, symSize: 0x3C }
  - { offsetInCU: 0x944D, offset: 0x944D, size: 0x8, addend: 0x0, symName: __ZNKSt3__113basic_istreamIcNS_11char_traitsIcEEE6sentrycvbB8ue170006Ev, symObjAddr: 0x1464, symBinAddr: 0x100002A98, symSize: 0x1C }
  - { offsetInCU: 0x9472, offset: 0x9472, size: 0x8, addend: 0x0, symName: __ZNSt3__112basic_stringIcNS_11char_traitsIcEENS_9allocatorIcEEE5clearB8ue170006Ev, symObjAddr: 0x1480, symBinAddr: 0x100002AB4, symSize: 0x78 }
  - { offsetInCU: 0x9499, offset: 0x9499, size: 0x8, addend: 0x0, symName: __ZNKSt3__18ios_base5widthB8ue170006Ev, symObjAddr: 0x14F8, symBinAddr: 0x100002B2C, symSize: 0x18 }
  - { offsetInCU: 0x94C0, offset: 0x94C0, size: 0x8, addend: 0x0, symName: __ZNKSt3__112basic_stringIcNS_11char_traitsIcEENS_9allocatorIcEEE8max_sizeB8ue170006Ev, symObjAddr: 0x1510, symBinAddr: 0x100002B44, symSize: 0xAC }
  - { offsetInCU: 0x9512, offset: 0x9512, size: 0x8, addend: 0x0, symName: __ZNSt3__114numeric_limitsIlE3maxB8ue170006Ev, symObjAddr: 0x15BC, symBinAddr: 0x100002BF0, symSize: 0x14 }
  - { offsetInCU: 0x9526, offset: 0x9526, size: 0x8, addend: 0x0, symName: __ZNKSt3__19basic_iosIcNS_11char_traitsIcEEE5rdbufB8ue170006Ev, symObjAddr: 0x15FC, symBinAddr: 0x100002C30, symSize: 0x24 }
  - { offsetInCU: 0x954D, offset: 0x954D, size: 0x8, addend: 0x0, symName: __ZNSt3__115basic_streambufIcNS_11char_traitsIcEEE5sgetcB8ue170006Ev, symObjAddr: 0x1620, symBinAddr: 0x100002C54, symSize: 0x70 }
  - { offsetInCU: 0x9572, offset: 0x9572, size: 0x8, addend: 0x0, symName: __ZNSt3__111char_traitsIcE11eq_int_typeB8ue170006Eii, symObjAddr: 0x1690, symBinAddr: 0x100002CC4, symSize: 0x28 }
  - { offsetInCU: 0x95A5, offset: 0x95A5, size: 0x8, addend: 0x0, symName: __ZNSt3__111char_traitsIcE12to_char_typeB8ue170006Ei, symObjAddr: 0x16B8, symBinAddr: 0x100002CEC, symSize: 0x18 }
  - { offsetInCU: 0x95F5, offset: 0x95F5, size: 0x8, addend: 0x0, symName: __ZNKSt3__15ctypeIcE2isB8ue170006Ejc, symObjAddr: 0x16D0, symBinAddr: 0x100002D04, symSize: 0x7C }
  - { offsetInCU: 0x9638, offset: 0x9638, size: 0x8, addend: 0x0, symName: __ZNSt3__115basic_streambufIcNS_11char_traitsIcEEE6sbumpcB8ue170006Ev, symObjAddr: 0x174C, symBinAddr: 0x100002D80, symSize: 0x78 }
  - { offsetInCU: 0x965D, offset: 0x965D, size: 0x8, addend: 0x0, symName: __ZNSt3__18ios_base5widthB8ue170006El, symObjAddr: 0x17C4, symBinAddr: 0x100002DF8, symSize: 0x2C }
  - { offsetInCU: 0x96A2, offset: 0x96A2, size: 0x8, addend: 0x0, symName: __ZNSt3__18ios_base18__setstate_nothrowB8ue170006Ej, symObjAddr: 0x17F0, symBinAddr: 0x100002E24, symSize: 0x64 }
  - { offsetInCU: 0x96D6, offset: 0x96D6, size: 0x8, addend: 0x0, symName: __ZNKSt3__19basic_iosIcNS_11char_traitsIcEEE10exceptionsB8ue170006Ev, symObjAddr: 0x1854, symBinAddr: 0x100002E88, symSize: 0x24 }
  - { offsetInCU: 0x96FB, offset: 0x96FB, size: 0x8, addend: 0x0, symName: __ZNSt3__19basic_iosIcNS_11char_traitsIcEEE8setstateB8ue170006Ej, symObjAddr: 0x1878, symBinAddr: 0x100002EAC, symSize: 0x2C }
  - { offsetInCU: 0x972F, offset: 0x972F, size: 0x8, addend: 0x0, symName: __ZNKSt3__112basic_stringIcNS_11char_traitsIcEENS_9allocatorIcEEE9__is_longB8ue170006Ev, symObjAddr: 0x18A4, symBinAddr: 0x100002ED8, symSize: 0x74 }
  - { offsetInCU: 0x9754, offset: 0x9754, size: 0x8, addend: 0x0, symName: __ZNSt3__111char_traitsIcE6assignB8ue170006ERcRKc, symObjAddr: 0x1918, symBinAddr: 0x100002F4C, symSize: 0x24 }
  - { offsetInCU: 0x9785, offset: 0x9785, size: 0x8, addend: 0x0, symName: __ZNSt3__112basic_stringIcNS_11char_traitsIcEENS_9allocatorIcEEE18__get_long_pointerB8ue170006Ev, symObjAddr: 0x193C, symBinAddr: 0x100002F70, symSize: 0x28 }
  - { offsetInCU: 0x97AA, offset: 0x97AA, size: 0x8, addend: 0x0, symName: __ZNSt3__112basic_stringIcNS_11char_traitsIcEENS_9allocatorIcEEE19__get_short_pointerB8ue170006Ev, symObjAddr: 0x1964, symBinAddr: 0x100002F98, symSize: 0x28 }
  - { offsetInCU: 0x97CF, offset: 0x97CF, size: 0x8, addend: 0x0, symName: __ZNSt3__112basic_stringIcNS_11char_traitsIcEENS_9allocatorIcEEE16__set_short_sizeB8ue170006Em, symObjAddr: 0x198C, symBinAddr: 0x100002FC0, symSize: 0x78 }
  - { offsetInCU: 0x9803, offset: 0x9803, size: 0x8, addend: 0x0, symName: __ZNKSt3__117__compressed_pairINS_12basic_stringIcNS_11char_traitsIcEENS_9allocatorIcEEE5__repES5_E5firstB8ue170006Ev, symObjAddr: 0x1A04, symBinAddr: 0x100003038, symSize: 0x24 }
  - { offsetInCU: 0x9828, offset: 0x9828, size: 0x8, addend: 0x0, symName: __ZNKSt3__122__compressed_pair_elemINS_12basic_stringIcNS_11char_traitsIcEENS_9allocatorIcEEE5__repELi0ELb0EE5__getB8ue170006Ev, symObjAddr: 0x1A28, symBinAddr: 0x10000305C, symSize: 0x14 }
  - { offsetInCU: 0x984D, offset: 0x984D, size: 0x8, addend: 0x0, symName: __ZNSt3__114pointer_traitsIPcE10pointer_toB8ue170006ERc, symObjAddr: 0x1A3C, symBinAddr: 0x100003070, symSize: 0x14 }
  - { offsetInCU: 0x9870, offset: 0x9870, size: 0x8, addend: 0x0, symName: __ZNSt3__114numeric_limitsImE3maxB8ue170006Ev, symObjAddr: 0x1A50, symBinAddr: 0x100003084, symSize: 0x14 }
  - { offsetInCU: 0x9884, offset: 0x9884, size: 0x8, addend: 0x0, symName: __ZNSt3__123__libcpp_numeric_limitsImLb1EE3maxB8ue170006Ev, symObjAddr: 0x1A64, symBinAddr: 0x100003098, symSize: 0x8 }
  - { offsetInCU: 0x9898, offset: 0x9898, size: 0x8, addend: 0x0, symName: __ZNSt3__123__libcpp_numeric_limitsIlLb1EE3maxB8ue170006Ev, symObjAddr: 0x1A6C, symBinAddr: 0x1000030A0, symSize: 0x8 }
  - { offsetInCU: 0x98AC, offset: 0x98AC, size: 0x8, addend: 0x0, symName: __ZNKSt3__18ios_base5rdbufB8ue170006Ev, symObjAddr: 0x1A74, symBinAddr: 0x1000030A8, symSize: 0x18 }
  - { offsetInCU: 0x98D1, offset: 0x98D1, size: 0x8, addend: 0x0, symName: __ZNSt3__111char_traitsIcE11to_int_typeB8ue170006Ec, symObjAddr: 0x1A8C, symBinAddr: 0x1000030C0, symSize: 0x14 }
  - { offsetInCU: 0x98F4, offset: 0x98F4, size: 0x8, addend: 0x0, symName: __Z7isasciii, symObjAddr: 0x1AA0, symBinAddr: 0x1000030D4, symSize: 0x24 }
  - { offsetInCU: 0x9921, offset: 0x9921, size: 0x8, addend: 0x0, symName: __ZNKSt3__18ios_base10exceptionsB8ue170006Ev, symObjAddr: 0x1AC4, symBinAddr: 0x1000030F8, symSize: 0x18 }
  - { offsetInCU: 0x9948, offset: 0x9948, size: 0x8, addend: 0x0, symName: __ZNSt3__18ios_base8setstateB8ue170006Ej, symObjAddr: 0x1ADC, symBinAddr: 0x100003110, symSize: 0x34 }
  - { offsetInCU: 0x999C, offset: 0x999C, size: 0x8, addend: 0x0, symName: __ZNKSt3__113basic_ostreamIcNS_11char_traitsIcEEE6sentrycvbB8ue170006Ev, symObjAddr: 0x1D04, symBinAddr: 0x100003338, symSize: 0x1C }
  - { offsetInCU: 0x99C0, offset: 0x99C0, size: 0x8, addend: 0x0, symName: __ZNSt3__119ostreambuf_iteratorIcNS_11char_traitsIcEEEC1B8ue170006ERNS_13basic_ostreamIcS2_EE, symObjAddr: 0x1F68, symBinAddr: 0x10000359C, symSize: 0x34 }
  - { offsetInCU: 0x99F7, offset: 0x99F7, size: 0x8, addend: 0x0, symName: __ZNKSt3__18ios_base5flagsB8ue170006Ev, symObjAddr: 0x1F9C, symBinAddr: 0x1000035D0, symSize: 0x18 }
  - { offsetInCU: 0x9A1E, offset: 0x9A1E, size: 0x8, addend: 0x0, symName: __ZNKSt3__19basic_iosIcNS_11char_traitsIcEEE4fillB8ue170006Ev, symObjAddr: 0x1FB4, symBinAddr: 0x1000035E8, symSize: 0x64 }
  - { offsetInCU: 0x9A45, offset: 0x9A45, size: 0x8, addend: 0x0, symName: __ZNKSt3__119ostreambuf_iteratorIcNS_11char_traitsIcEEE6failedB8ue170006Ev, symObjAddr: 0x2018, symBinAddr: 0x10000364C, symSize: 0x24 }
  - { offsetInCU: 0x9A6A, offset: 0x9A6A, size: 0x8, addend: 0x0, symName: __ZNSt3__115basic_streambufIcNS_11char_traitsIcEEE5sputnB8ue170006EPKcl, symObjAddr: 0x203C, symBinAddr: 0x100003670, symSize: 0x3C }
  - { offsetInCU: 0x9AAA, offset: 0x9AAA, size: 0x8, addend: 0x0, symName: __ZNSt3__112basic_stringIcNS_11char_traitsIcEENS_9allocatorIcEEEC1B8ue170006Emc, symObjAddr: 0x2078, symBinAddr: 0x1000036AC, symSize: 0x3C }
  - { offsetInCU: 0x9AF1, offset: 0x9AF1, size: 0x8, addend: 0x0, symName: __ZNKSt3__112basic_stringIcNS_11char_traitsIcEENS_9allocatorIcEEE4dataB8ue170006Ev, symObjAddr: 0x20B4, symBinAddr: 0x1000036E8, symSize: 0x28 }
  - { offsetInCU: 0x9B15, offset: 0x9B15, size: 0x8, addend: 0x0, symName: __ZNSt3__112basic_stringIcNS_11char_traitsIcEENS_9allocatorIcEEEC2B8ue170006Emc, symObjAddr: 0x20DC, symBinAddr: 0x100003710, symSize: 0x4C }
  - { offsetInCU: 0x9B5C, offset: 0x9B5C, size: 0x8, addend: 0x0, symName: __ZNKSt3__112basic_stringIcNS_11char_traitsIcEENS_9allocatorIcEEE13__get_pointerB8ue170006Ev, symObjAddr: 0x213C, symBinAddr: 0x100003770, symSize: 0x54 }
  - { offsetInCU: 0x9B81, offset: 0x9B81, size: 0x8, addend: 0x0, symName: __ZNKSt3__112basic_stringIcNS_11char_traitsIcEENS_9allocatorIcEEE18__get_long_pointerB8ue170006Ev, symObjAddr: 0x2190, symBinAddr: 0x1000037C4, symSize: 0x28 }
  - { offsetInCU: 0x9BA6, offset: 0x9BA6, size: 0x8, addend: 0x0, symName: __ZNKSt3__112basic_stringIcNS_11char_traitsIcEENS_9allocatorIcEEE19__get_short_pointerB8ue170006Ev, symObjAddr: 0x21B8, symBinAddr: 0x1000037EC, symSize: 0x28 }
  - { offsetInCU: 0x9BCB, offset: 0x9BCB, size: 0x8, addend: 0x0, symName: __ZNSt3__114pointer_traitsIPKcE10pointer_toB8ue170006ERS1_, symObjAddr: 0x21E0, symBinAddr: 0x100003814, symSize: 0x14 }
  - { offsetInCU: 0x9BED, offset: 0x9BED, size: 0x8, addend: 0x0, symName: __ZNSt3__119ostreambuf_iteratorIcNS_11char_traitsIcEEEC2B8ue170006ERNS_13basic_ostreamIcS2_EE, symObjAddr: 0x21F4, symBinAddr: 0x100003828, symSize: 0x68 }
  - { offsetInCU: 0x9C24, offset: 0x9C24, size: 0x8, addend: 0x0, symName: __ZNKSt3__19basic_iosIcNS_11char_traitsIcEEE5widenB8ue170006Ec, symObjAddr: 0x225C, symBinAddr: 0x100003890, symSize: 0x8C }
  - { offsetInCU: 0x9C5A, offset: 0x9C5A, size: 0x8, addend: 0x0, symName: __ZNKSt3__15ctypeIcE5widenB8ue170006Ec, symObjAddr: 0x22E8, symBinAddr: 0x10000391C, symSize: 0x38 }
  - { offsetInCU: 0x9C8E, offset: 0x9C8E, size: 0x8, addend: 0x0, symName: __ZNKSt3__112basic_stringIcNS_11char_traitsIcEENS_9allocatorIcEEE4sizeB8ue170006Ev, symObjAddr: 0x2320, symBinAddr: 0x100003954, symSize: 0x54 }
  - { offsetInCU: 0x9CB3, offset: 0x9CB3, size: 0x8, addend: 0x0, symName: __ZNKSt3__112basic_stringIcNS_11char_traitsIcEENS_9allocatorIcEEE15__get_long_sizeB8ue170006Ev, symObjAddr: 0x2374, symBinAddr: 0x1000039A8, symSize: 0x28 }
  - { offsetInCU: 0x9CD8, offset: 0x9CD8, size: 0x8, addend: 0x0, symName: __ZNKSt3__112basic_stringIcNS_11char_traitsIcEENS_9allocatorIcEEE16__get_short_sizeB8ue170006Ev, symObjAddr: 0x239C, symBinAddr: 0x1000039D0, symSize: 0x34 }
...
