---
triple:          'arm64-apple-darwin'
binary-path:     '/Users/kajalbormon/Developer/Code/HakerRank/deque/output/deque'
relocations:
  - { offsetInCU: 0x5362, offset: 0x5362, size: 0x8, addend: 0x0, symName: __ZNSt3__124__put_character_sequenceB8ue170006IcNS_11char_traitsIcEEEERNS_13basic_ostreamIT_T0_EES7_PKS4_m, symObjAddr: 0x59F8, symBinAddr: 0x100006B50, symSize: 0x1F4 }
  - { offsetInCU: 0x6CCB, offset: 0x6CCB, size: 0x8, addend: 0x0, symName: __ZNSt3__1neB8ue170006ERKNS_16__deque_iteratorIiPiRiPS1_lLl1024EEES6_, symObjAddr: 0x410, symBinAddr: 0x100001568, symSize: 0x34 }
  - { offsetInCU: 0x6D08, offset: 0x6D08, size: 0x8, addend: 0x0, symName: __ZNSt3__1lsB8ue170006INS_11char_traitsIcEEEERNS_13basic_ostreamIcT_EES6_PKc, symObjAddr: 0x5D8, symBinAddr: 0x100001730, symSize: 0x48 }
  - { offsetInCU: 0x6D4E, offset: 0x6D4E, size: 0x8, addend: 0x0, symName: __ZNSt3__14endlB8ue170006IcNS_11char_traitsIcEEEERNS_13basic_ostreamIT_T0_EES7_, symObjAddr: 0x6A8, symBinAddr: 0x100001800, symSize: 0x58 }
  - { offsetInCU: 0x6D8E, offset: 0x6D8E, size: 0x8, addend: 0x0, symName: __ZNSt3__112__to_addressB8ue170006IiEEPT_S2_, symObjAddr: 0x1244, symBinAddr: 0x10000239C, symSize: 0x14 }
  - { offsetInCU: 0x6DC3, offset: 0x6DC3, size: 0x8, addend: 0x0, symName: __ZNSt3__112__to_addressB8ue170006IPiEEPT_S3_, symObjAddr: 0x14B0, symBinAddr: 0x100002608, symSize: 0x14 }
  - { offsetInCU: 0x6DF8, offset: 0x6DF8, size: 0x8, addend: 0x0, symName: __ZNSt3__130__libcpp_is_constant_evaluatedB8ue170006Ev, symObjAddr: 0x1548, symBinAddr: 0x1000026A0, symSize: 0xC }
  - { offsetInCU: 0x6E15, offset: 0x6E15, size: 0x8, addend: 0x0, symName: __ZNSt3__119__libcpp_deallocateB8ue170006EPvmm, symObjAddr: 0x1554, symBinAddr: 0x1000026AC, symSize: 0x30 }
  - { offsetInCU: 0x6E5D, offset: 0x6E5D, size: 0x8, addend: 0x0, symName: __ZNSt3__127__do_deallocate_handle_sizeB8ue170006IJEEEvPvmDpT_, symObjAddr: 0x1584, symBinAddr: 0x1000026DC, symSize: 0x28 }
  - { offsetInCU: 0x6E9B, offset: 0x6E9B, size: 0x8, addend: 0x0, symName: __ZNSt3__124__libcpp_operator_deleteB8ue170006IJPvEEEvDpT_, symObjAddr: 0x15AC, symBinAddr: 0x100002704, symSize: 0x24 }
  - { offsetInCU: 0x6ED0, offset: 0x6ED0, size: 0x8, addend: 0x0, symName: __ZNSt3__18distanceB8ue170006IPiEENS_15iterator_traitsIT_E15difference_typeES3_S3_, symObjAddr: 0x1FEC, symBinAddr: 0x100003144, symSize: 0x2C }
  - { offsetInCU: 0x6F13, offset: 0x6F13, size: 0x8, addend: 0x0, symName: __ZNSt3__1neB8ue170006ERKNS_5dequeIiNS_9allocatorIiEEE13__deque_rangeES6_, symObjAddr: 0x2830, symBinAddr: 0x100003988, symSize: 0x34 }
  - { offsetInCU: 0x6F50, offset: 0x6F50, size: 0x8, addend: 0x0, symName: __ZNSt3__13minB8ue170006ImEERKT_S3_S3_, symObjAddr: 0x2AC0, symBinAddr: 0x100003C18, symSize: 0x2C }
  - { offsetInCU: 0x6F93, offset: 0x6F93, size: 0x8, addend: 0x0, symName: __ZNSt3__13maxB8ue170006ImEERKT_S3_S3_, symObjAddr: 0x32A4, symBinAddr: 0x1000043FC, symSize: 0x2C }
  - { offsetInCU: 0x6FD6, offset: 0x6FD6, size: 0x8, addend: 0x0, symName: __ZNSt3__14swapB8ue170006IPPiEEvRT_S4_, symObjAddr: 0x3AAC, symBinAddr: 0x100004C04, symSize: 0x3C }
  - { offsetInCU: 0x7027, offset: 0x7027, size: 0x8, addend: 0x0, symName: __ZNSt3__13minB8ue170006ImNS_6__lessIvvEEEERKT_S5_S5_T0_, symObjAddr: 0x3B64, symBinAddr: 0x100004CBC, symSize: 0x54 }
  - { offsetInCU: 0x70C6, offset: 0x70C6, size: 0x8, addend: 0x0, symName: __ZNSt3__14moveB8ue170006IPPiS2_EET0_T_S4_S3_, symObjAddr: 0x3BEC, symBinAddr: 0x100004D44, symSize: 0x40 }
  - { offsetInCU: 0x7120, offset: 0x7120, size: 0x8, addend: 0x0, symName: __ZNSt3__16__moveB8ue170006INS_17_ClassicAlgPolicyEPPiS3_S3_EENS_4pairIT0_T2_EES5_T1_S6_, symObjAddr: 0x3CF4, symBinAddr: 0x100004E4C, symSize: 0x44 }
  - { offsetInCU: 0x718C, offset: 0x718C, size: 0x8, addend: 0x0, symName: __ZNSt3__123__dispatch_copy_or_moveB8ue170006INS_17_ClassicAlgPolicyENS_11__move_loopIS1_EENS_14__move_trivialEPPiS6_S6_EENS_4pairIT2_T4_EES8_T3_S9_, symObjAddr: 0x3D38, symBinAddr: 0x100004E90, symSize: 0x44 }
  - { offsetInCU: 0x720A, offset: 0x720A, size: 0x8, addend: 0x0, symName: __ZNSt3__121__unwrap_and_dispatchB8ue170006INS_10__overloadINS_11__move_loopINS_17_ClassicAlgPolicyEEENS_14__move_trivialEEEPPiS8_S8_Li0EEENS_4pairIT0_T2_EESA_T1_SB_, symObjAddr: 0x3D7C, symBinAddr: 0x100004ED4, symSize: 0xB4 }
  - { offsetInCU: 0x7298, offset: 0x7298, size: 0x8, addend: 0x0, symName: __ZNSt3__114__unwrap_rangeB8ue170006IPPiS2_EENS_4pairIT0_S4_EET_S6_, symObjAddr: 0x3E30, symBinAddr: 0x100004F88, symSize: 0x60 }
  - { offsetInCU: 0x73D7, offset: 0x73D7, size: 0x8, addend: 0x0, symName: __ZNSt3__113__unwrap_iterB8ue170006IPPiNS_18__unwrap_iter_implIS2_Lb1EEELi0EEEDTclsrT0_8__unwrapclsr3stdE7declvalIT_EEEES6_, symObjAddr: 0x3ED8, symBinAddr: 0x100005030, symSize: 0x24 }
  - { offsetInCU: 0x741B, offset: 0x741B, size: 0x8, addend: 0x0, symName: __ZNSt3__19make_pairB8ue170006IPPiS2_EENS_4pairINS_18__unwrap_ref_decayIT_E4typeENS4_IT0_E4typeEEEOS5_OS8_, symObjAddr: 0x3EFC, symBinAddr: 0x100005054, symSize: 0x38 }
  - { offsetInCU: 0x746A, offset: 0x746A, size: 0x8, addend: 0x0, symName: __ZNSt3__114__rewrap_rangeB8ue170006IPPiS2_EET_S3_T0_, symObjAddr: 0x3F34, symBinAddr: 0x10000508C, symSize: 0x2C }
  - { offsetInCU: 0x74B6, offset: 0x74B6, size: 0x8, addend: 0x0, symName: __ZNSt3__113__rewrap_iterB8ue170006IPPiS2_NS_18__unwrap_iter_implIS2_Lb1EEEEET_S5_T0_, symObjAddr: 0x3F60, symBinAddr: 0x1000050B8, symSize: 0x50 }
  - { offsetInCU: 0x750B, offset: 0x750B, size: 0x8, addend: 0x0, symName: __ZNSt3__119__copy_trivial_implB8ue170006IPiS1_EENS_4pairIPT_PT0_EES4_S4_S6_, symObjAddr: 0x3FB0, symBinAddr: 0x100005108, symSize: 0x80 }
  - { offsetInCU: 0x7573, offset: 0x7573, size: 0x8, addend: 0x0, symName: __ZNSt3__119__constexpr_memmoveB8ue170006IPiS1_Li0EEEPT_S3_PT0_NS_15__element_countE, symObjAddr: 0x4030, symBinAddr: 0x100005188, symSize: 0xA0 }
  - { offsetInCU: 0x75E1, offset: 0x75E1, size: 0x8, addend: 0x0, symName: __ZNSt3__19make_pairB8ue170006IRPPiS2_EENS_4pairINS_18__unwrap_ref_decayIT_E4typeENS5_IT0_E4typeEEEOS6_OS9_, symObjAddr: 0x40D0, symBinAddr: 0x100005228, symSize: 0x38 }
  - { offsetInCU: 0x7683, offset: 0x7683, size: 0x8, addend: 0x0, symName: __ZNSt3__18distanceB8ue170006INS_13move_iteratorIPPiEEEENS_15iterator_traitsIT_E15difference_typeES6_S6_, symObjAddr: 0x42D0, symBinAddr: 0x100005428, symSize: 0x3C }
  - { offsetInCU: 0x76C6, offset: 0x76C6, size: 0x8, addend: 0x0, symName: __ZNSt3__110__distanceB8ue170006INS_13move_iteratorIPPiEEEENS_15iterator_traitsIT_E15difference_typeES6_S6_NS_26random_access_iterator_tagE, symObjAddr: 0x44D4, symBinAddr: 0x10000562C, symSize: 0x30 }
  - { offsetInCU: 0x7713, offset: 0x7713, size: 0x8, addend: 0x0, symName: __ZNSt3__1miB8ue170006IPPiS2_EENS_13move_iteratorIT_E15difference_typeERKS5_RKNS3_IT0_EE, symObjAddr: 0x4504, symBinAddr: 0x10000565C, symSize: 0x48 }
  - { offsetInCU: 0x7762, offset: 0x7762, size: 0x8, addend: 0x0, symName: __ZNSt3__117__libcpp_allocateB8ue170006Emm, symObjAddr: 0x4688, symBinAddr: 0x1000057E0, symSize: 0x28 }
  - { offsetInCU: 0x779F, offset: 0x779F, size: 0x8, addend: 0x0, symName: __ZNSt3__121__libcpp_operator_newB8ue170006IJmEEEPvDpT_, symObjAddr: 0x46C4, symBinAddr: 0x10000581C, symSize: 0x24 }
  - { offsetInCU: 0x77D8, offset: 0x77D8, size: 0x8, addend: 0x0, symName: __ZNSt3__113move_backwardB8ue170006IPPiS2_EET0_T_S4_S3_, symObjAddr: 0x46E8, symBinAddr: 0x100005840, symSize: 0x40 }
  - { offsetInCU: 0x7832, offset: 0x7832, size: 0x8, addend: 0x0, symName: __ZNSt3__115__move_backwardB8ue170006INS_17_ClassicAlgPolicyEPPiS3_S3_EENS_4pairIT0_T2_EES5_T1_S6_, symObjAddr: 0x4728, symBinAddr: 0x100005880, symSize: 0x44 }
  - { offsetInCU: 0x789E, offset: 0x789E, size: 0x8, addend: 0x0, symName: __ZNSt3__123__dispatch_copy_or_moveB8ue170006INS_17_ClassicAlgPolicyENS_20__move_backward_loopIS1_EENS_23__move_backward_trivialEPPiS6_S6_EENS_4pairIT2_T4_EES8_T3_S9_, symObjAddr: 0x476C, symBinAddr: 0x1000058C4, symSize: 0x44 }
  - { offsetInCU: 0x791C, offset: 0x791C, size: 0x8, addend: 0x0, symName: __ZNSt3__121__unwrap_and_dispatchB8ue170006INS_10__overloadINS_20__move_backward_loopINS_17_ClassicAlgPolicyEEENS_23__move_backward_trivialEEEPPiS8_S8_Li0EEENS_4pairIT0_T2_EESA_T1_SB_, symObjAddr: 0x47B0, symBinAddr: 0x100005908, symSize: 0xB4 }
  - { offsetInCU: 0x79F0, offset: 0x79F0, size: 0x8, addend: 0x0, symName: __ZNSt3__128__copy_backward_trivial_implB8ue170006IPiS1_EENS_4pairIPT_PT0_EES4_S4_S6_, symObjAddr: 0x48AC, symBinAddr: 0x100005A04, symSize: 0x90 }
  - { offsetInCU: 0x7A58, offset: 0x7A58, size: 0x8, addend: 0x0, symName: __ZNSt3__19make_pairB8ue170006IRPPiS3_EENS_4pairINS_18__unwrap_ref_decayIT_E4typeENS5_IT0_E4typeEEEOS6_OS9_, symObjAddr: 0x493C, symBinAddr: 0x100005A94, symSize: 0x38 }
  - { offsetInCU: 0x7AA7, offset: 0x7AA7, size: 0x8, addend: 0x0, symName: __ZNSt3__13maxB8ue170006ImNS_6__lessIvvEEEERKT_S5_S5_T0_, symObjAddr: 0x4974, symBinAddr: 0x100005ACC, symSize: 0x54 }
  - { offsetInCU: 0x7B01, offset: 0x7B01, size: 0x8, addend: 0x0, symName: __ZNSt3__119__allocate_at_leastB8ue170006INS_9allocatorIPiEEEENS_19__allocation_resultINS_16allocator_traitsIT_E7pointerEEERS6_m, symObjAddr: 0x4AD8, symBinAddr: 0x100005C30, symSize: 0x40 }
  - { offsetInCU: 0x7B44, offset: 0x7B44, size: 0x8, addend: 0x0, symName: __ZNSt3__1eqB8ue170006ERKNS_5dequeIiNS_9allocatorIiEEE13__deque_rangeES6_, symObjAddr: 0x4FD0, symBinAddr: 0x100006128, symSize: 0x30 }
  - { offsetInCU: 0x7B81, offset: 0x7B81, size: 0x8, addend: 0x0, symName: __ZNSt3__1eqB8ue170006ERKNS_16__deque_iteratorIiPiRiPS1_lLl1024EEES6_, symObjAddr: 0x5000, symBinAddr: 0x100006158, symSize: 0x30 }
  - { offsetInCU: 0x7BBE, offset: 0x7BBE, size: 0x8, addend: 0x0, symName: __ZNSt3__110__distanceB8ue170006IPiEENS_15iterator_traitsIT_E15difference_typeES3_S3_NS_26random_access_iterator_tagE, symObjAddr: 0x5164, symBinAddr: 0x1000062BC, symSize: 0x28 }
  - { offsetInCU: 0x8094, offset: 0x8094, size: 0x8, addend: 0x0, symName: __ZNSt3__116__pad_and_outputB8ue170006IcNS_11char_traitsIcEEEENS_19ostreambuf_iteratorIT_T0_EES6_PKS4_S8_S8_RNS_8ios_baseES4_, symObjAddr: 0x5C50, symBinAddr: 0x100006DA8, symSize: 0x248 }
  - { offsetInCU: 0x8163, offset: 0x8163, size: 0x8, addend: 0x0, symName: __ZNSt3__112__to_addressB8ue170006IKcEEPT_S3_, symObjAddr: 0x61C0, symBinAddr: 0x100007318, symSize: 0x14 }
  - { offsetInCU: 0x81CB, offset: 0x81CB, size: 0x8, addend: 0x0, symName: __ZNSt3__19use_facetB8ue170006INS_5ctypeIcEEEERKT_RKNS_6localeE, symObjAddr: 0x6498, symBinAddr: 0x1000075F0, symSize: 0x2C }
  - { offsetInCU: 0x8698, offset: 0x8698, size: 0x8, addend: 0x0, symName: __ZNSt3__118__constexpr_strlenB8ue170006EPKc, symObjAddr: 0x6530, symBinAddr: 0x100007688, symSize: 0x24 }
  - { offsetInCU: 0x87F5, offset: 0x87F5, size: 0x8, addend: 0x0, symName: __ZSt28__throw_bad_array_new_lengthB8ue170006v, symObjAddr: 0x4654, symBinAddr: 0x1000057AC, symSize: 0x34 }
  - { offsetInCU: 0xB0A0, offset: 0xB0A0, size: 0x8, addend: 0x0, symName: __Z9printKMaxPiii, symObjAddr: 0x0, symBinAddr: 0x100001158, symSize: 0x23C }
  - { offsetInCU: 0xB195, offset: 0xB195, size: 0x8, addend: 0x0, symName: __ZNSt3__15dequeIiNS_9allocatorIiEEEC1B8ue170006Ev, symObjAddr: 0x23C, symBinAddr: 0x100001394, symSize: 0x2C }
  - { offsetInCU: 0xB1C4, offset: 0xB1C4, size: 0x8, addend: 0x0, symName: __ZNSt3__15dequeIiNS_9allocatorIiEEEC1IPiEET_S6_PNS_9enable_ifIXsr29__has_input_iterator_categoryIS6_EE5valueEvE4typeE, symObjAddr: 0x268, symBinAddr: 0x1000013C0, symSize: 0x44 }
  - { offsetInCU: 0xB223, offset: 0xB223, size: 0x8, addend: 0x0, symName: __ZNSt3__15dequeIiNS_9allocatorIiEEE5beginB8ue170006Ev, symObjAddr: 0x2AC, symBinAddr: 0x100001404, symSize: 0xA8 }
  - { offsetInCU: 0xB258, offset: 0xB258, size: 0x8, addend: 0x0, symName: __ZNSt3__15dequeIiNS_9allocatorIiEEE3endB8ue170006Ev, symObjAddr: 0x354, symBinAddr: 0x1000014AC, symSize: 0xBC }
  - { offsetInCU: 0xB29C, offset: 0xB29C, size: 0x8, addend: 0x0, symName: __ZNKSt3__116__deque_iteratorIiPiRiPS1_lLl1024EEdeB8ue170006Ev, symObjAddr: 0x444, symBinAddr: 0x10000159C, symSize: 0x18 }
  - { offsetInCU: 0xB2C2, offset: 0xB2C2, size: 0x8, addend: 0x0, symName: __ZNSt3__116__deque_iteratorIiPiRiPS1_lLl1024EEppB8ue170006Ev, symObjAddr: 0x45C, symBinAddr: 0x1000015B4, symSize: 0x70 }
  - { offsetInCU: 0xB2E8, offset: 0xB2E8, size: 0x8, addend: 0x0, symName: __ZNSt3__15dequeIiNS_9allocatorIiEEE9push_backERKi, symObjAddr: 0x4CC, symBinAddr: 0x100001624, symSize: 0xAC }
  - { offsetInCU: 0xB32E, offset: 0xB32E, size: 0x8, addend: 0x0, symName: __ZNSt3__15dequeIiNS_9allocatorIiEEED1B8ue170006Ev, symObjAddr: 0x578, symBinAddr: 0x1000016D0, symSize: 0x2C }
  - { offsetInCU: 0xB358, offset: 0xB358, size: 0x8, addend: 0x0, symName: __ZNKSt3__15dequeIiNS_9allocatorIiEEE4sizeB8ue170006Ev, symObjAddr: 0x5B0, symBinAddr: 0x100001708, symSize: 0x28 }
  - { offsetInCU: 0xB37E, offset: 0xB37E, size: 0x8, addend: 0x0, symName: __ZNSt3__15dequeIiNS_9allocatorIiEEEixEm, symObjAddr: 0x620, symBinAddr: 0x100001778, symSize: 0x5C }
  - { offsetInCU: 0xB3C4, offset: 0xB3C4, size: 0x8, addend: 0x0, symName: __ZNSt3__113basic_ostreamIcNS_11char_traitsIcEEElsB8ue170006EPFRS3_S4_E, symObjAddr: 0x67C, symBinAddr: 0x1000017D4, symSize: 0x2C }
  - { offsetInCU: 0xB3F8, offset: 0xB3F8, size: 0x8, addend: 0x0, symName: _main, symObjAddr: 0x700, symBinAddr: 0x100001858, symSize: 0x144 }
  - { offsetInCU: 0xB477, offset: 0xB477, size: 0x8, addend: 0x0, symName: __ZNSt3__15dequeIiNS_9allocatorIiEEEC2B8ue170006Ev, symObjAddr: 0x844, symBinAddr: 0x10000199C, symSize: 0x84 }
  - { offsetInCU: 0xB4A1, offset: 0xB4A1, size: 0x8, addend: 0x0, symName: __ZNSt3__114__split_bufferIPiNS_9allocatorIS1_EEEC1B8ue170006Ev, symObjAddr: 0x8C8, symBinAddr: 0x100001A20, symSize: 0x2C }
  - { offsetInCU: 0xB4D5, offset: 0xB4D5, size: 0x8, addend: 0x0, symName: __ZNSt3__117__compressed_pairImNS_9allocatorIiEEEC1B8ue170006IiNS_18__default_init_tagEEEOT_OT0_, symObjAddr: 0x8F4, symBinAddr: 0x100001A4C, symSize: 0x3C }
  - { offsetInCU: 0xB52D, offset: 0xB52D, size: 0x8, addend: 0x0, symName: __ZNKSt3__15dequeIiNS_9allocatorIiEEE14__annotate_newB8ue170006Em, symObjAddr: 0x930, symBinAddr: 0x100001A88, symSize: 0xDC }
  - { offsetInCU: 0xB562, offset: 0xB562, size: 0x8, addend: 0x0, symName: __ZNSt3__114__split_bufferIPiNS_9allocatorIS1_EEED1Ev, symObjAddr: 0xA0C, symBinAddr: 0x100001B64, symSize: 0x2C }
  - { offsetInCU: 0xB58E, offset: 0xB58E, size: 0x8, addend: 0x0, symName: __ZNSt3__114__split_bufferIPiNS_9allocatorIS1_EEEC2B8ue170006Ev, symObjAddr: 0xA38, symBinAddr: 0x100001B90, symSize: 0x48 }
  - { offsetInCU: 0xB5BD, offset: 0xB5BD, size: 0x8, addend: 0x0, symName: __ZNSt3__117__compressed_pairIPPiNS_9allocatorIS1_EEEC1B8ue170006IDnNS_18__default_init_tagEEEOT_OT0_, symObjAddr: 0xA80, symBinAddr: 0x100001BD8, symSize: 0x3C }
  - { offsetInCU: 0xB615, offset: 0xB615, size: 0x8, addend: 0x0, symName: __ZNSt3__117__compressed_pairIPPiNS_9allocatorIS1_EEEC2B8ue170006IDnNS_18__default_init_tagEEEOT_OT0_, symObjAddr: 0xABC, symBinAddr: 0x100001C14, symSize: 0x40 }
  - { offsetInCU: 0xB66D, offset: 0xB66D, size: 0x8, addend: 0x0, symName: __ZNSt3__122__compressed_pair_elemIPPiLi0ELb0EEC2B8ue170006IDnvEEOT_, symObjAddr: 0xAFC, symBinAddr: 0x100001C54, symSize: 0x1C }
  - { offsetInCU: 0xB6AF, offset: 0xB6AF, size: 0x8, addend: 0x0, symName: __ZNSt3__122__compressed_pair_elemINS_9allocatorIPiEELi1ELb1EEC2B8ue170006ENS_18__default_init_tagE, symObjAddr: 0xB18, symBinAddr: 0x100001C70, symSize: 0x2C }
  - { offsetInCU: 0xB6E3, offset: 0xB6E3, size: 0x8, addend: 0x0, symName: __ZNSt3__19allocatorIPiEC2B8ue170006Ev, symObjAddr: 0xB44, symBinAddr: 0x100001C9C, symSize: 0x2C }
  - { offsetInCU: 0xB70D, offset: 0xB70D, size: 0x8, addend: 0x0, symName: __ZNSt3__116__non_trivial_ifILb1ENS_9allocatorIPiEEEC2B8ue170006Ev, symObjAddr: 0xB70, symBinAddr: 0x100001CC8, symSize: 0x14 }
  - { offsetInCU: 0xB737, offset: 0xB737, size: 0x8, addend: 0x0, symName: __ZNSt3__117__compressed_pairImNS_9allocatorIiEEEC2B8ue170006IiNS_18__default_init_tagEEEOT_OT0_, symObjAddr: 0xB84, symBinAddr: 0x100001CDC, symSize: 0x40 }
  - { offsetInCU: 0xB78F, offset: 0xB78F, size: 0x8, addend: 0x0, symName: __ZNSt3__122__compressed_pair_elemImLi0ELb0EEC2B8ue170006IivEEOT_, symObjAddr: 0xBC4, symBinAddr: 0x100001D1C, symSize: 0x24 }
  - { offsetInCU: 0xB7D1, offset: 0xB7D1, size: 0x8, addend: 0x0, symName: __ZNSt3__122__compressed_pair_elemINS_9allocatorIiEELi1ELb1EEC2B8ue170006ENS_18__default_init_tagE, symObjAddr: 0xBE8, symBinAddr: 0x100001D40, symSize: 0x2C }
  - { offsetInCU: 0xB805, offset: 0xB805, size: 0x8, addend: 0x0, symName: __ZNSt3__19allocatorIiEC2B8ue170006Ev, symObjAddr: 0xC14, symBinAddr: 0x100001D6C, symSize: 0x2C }
  - { offsetInCU: 0xB82F, offset: 0xB82F, size: 0x8, addend: 0x0, symName: __ZNSt3__116__non_trivial_ifILb1ENS_9allocatorIiEEEC2B8ue170006Ev, symObjAddr: 0xC40, symBinAddr: 0x100001D98, symSize: 0x14 }
  - { offsetInCU: 0xB859, offset: 0xB859, size: 0x8, addend: 0x0, symName: __ZNKSt3__15dequeIiNS_9allocatorIiEEE18__annotate_from_toB8ue170006EmmNS3_22__asan_annotation_typeENS3_23__asan_annotation_placeE, symObjAddr: 0xC54, symBinAddr: 0x100001DAC, symSize: 0x580 }
  - { offsetInCU: 0xBA17, offset: 0xBA17, size: 0x8, addend: 0x0, symName: __ZNKSt3__114__split_bufferIPiNS_9allocatorIS1_EEE4sizeB8ue170006Ev, symObjAddr: 0x11D4, symBinAddr: 0x10000232C, symSize: 0x28 }
  - { offsetInCU: 0xBA3D, offset: 0xBA3D, size: 0x8, addend: 0x0, symName: __ZNKSt3__114__split_bufferIPiNS_9allocatorIS1_EEE5beginB8ue170006Ev, symObjAddr: 0x11FC, symBinAddr: 0x100002354, symSize: 0x18 }
  - { offsetInCU: 0xBA63, offset: 0xBA63, size: 0x8, addend: 0x0, symName: __ZNKSt3__15dequeIiNS_9allocatorIiEEE5emptyB8ue170006Ev, symObjAddr: 0x1214, symBinAddr: 0x10000236C, symSize: 0x30 }
  - { offsetInCU: 0xBA89, offset: 0xBA89, size: 0x8, addend: 0x0, symName: __ZNKSt3__15dequeIiNS_9allocatorIiEEE44__annotate_double_ended_contiguous_containerB8ue170006EPKvS5_S5_S5_S5_S5_, symObjAddr: 0x1258, symBinAddr: 0x1000023B0, symSize: 0x28 }
  - { offsetInCU: 0xBAF7, offset: 0xBAF7, size: 0x8, addend: 0x0, symName: __ZNSt3__114__split_bufferIPiNS_9allocatorIS1_EEED2Ev, symObjAddr: 0x1280, symBinAddr: 0x1000023D8, symSize: 0x80 }
  - { offsetInCU: 0xBB23, offset: 0xBB23, size: 0x8, addend: 0x0, symName: __ZNSt3__114__split_bufferIPiNS_9allocatorIS1_EEE5clearB8ue170006Ev, symObjAddr: 0x1300, symBinAddr: 0x100002458, symSize: 0x28 }
  - { offsetInCU: 0xBB49, offset: 0xBB49, size: 0x8, addend: 0x0, symName: __ZNSt3__116allocator_traitsINS_9allocatorIPiEEE10deallocateB8ue170006ERS3_PS2_m, symObjAddr: 0x1328, symBinAddr: 0x100002480, symSize: 0x34 }
  - { offsetInCU: 0xBB8B, offset: 0xBB8B, size: 0x8, addend: 0x0, symName: __ZNSt3__114__split_bufferIPiNS_9allocatorIS1_EEE7__allocB8ue170006Ev, symObjAddr: 0x135C, symBinAddr: 0x1000024B4, symSize: 0x28 }
  - { offsetInCU: 0xBBB1, offset: 0xBBB1, size: 0x8, addend: 0x0, symName: __ZNKSt3__114__split_bufferIPiNS_9allocatorIS1_EEE8capacityB8ue170006Ev, symObjAddr: 0x1384, symBinAddr: 0x1000024DC, symSize: 0x40 }
  - { offsetInCU: 0xBBD7, offset: 0xBBD7, size: 0x8, addend: 0x0, symName: __ZNSt3__114__split_bufferIPiNS_9allocatorIS1_EEE17__destruct_at_endB8ue170006EPS1_, symObjAddr: 0x13C4, symBinAddr: 0x10000251C, symSize: 0x2C }
  - { offsetInCU: 0xBC0B, offset: 0xBC0B, size: 0x8, addend: 0x0, symName: __ZNSt3__114__split_bufferIPiNS_9allocatorIS1_EEE17__destruct_at_endB8ue170006EPS1_NS_17integral_constantIbLb0EEE, symObjAddr: 0x13F0, symBinAddr: 0x100002548, symSize: 0x94 }
  - { offsetInCU: 0xBC4B, offset: 0xBC4B, size: 0x8, addend: 0x0, symName: __ZNSt3__116allocator_traitsINS_9allocatorIPiEEE7destroyB8ue170006IS2_vEEvRS3_PT_, symObjAddr: 0x1484, symBinAddr: 0x1000025DC, symSize: 0x2C }
  - { offsetInCU: 0xBC88, offset: 0xBC88, size: 0x8, addend: 0x0, symName: __ZNSt3__19allocatorIPiE7destroyB8ue170006EPS1_, symObjAddr: 0x14C4, symBinAddr: 0x10000261C, symSize: 0x14 }
  - { offsetInCU: 0xBCBC, offset: 0xBCBC, size: 0x8, addend: 0x0, symName: __ZNSt3__19allocatorIPiE10deallocateB8ue170006EPS1_m, symObjAddr: 0x14D8, symBinAddr: 0x100002630, symSize: 0x70 }
  - { offsetInCU: 0xBCFE, offset: 0xBCFE, size: 0x8, addend: 0x0, symName: __ZNSt3__117__compressed_pairIPPiNS_9allocatorIS1_EEE6secondB8ue170006Ev, symObjAddr: 0x15D0, symBinAddr: 0x100002728, symSize: 0x24 }
  - { offsetInCU: 0xBD24, offset: 0xBD24, size: 0x8, addend: 0x0, symName: __ZNSt3__122__compressed_pair_elemINS_9allocatorIPiEELi1ELb1EE5__getB8ue170006Ev, symObjAddr: 0x15F4, symBinAddr: 0x10000274C, symSize: 0x14 }
  - { offsetInCU: 0xBD4A, offset: 0xBD4A, size: 0x8, addend: 0x0, symName: __ZNKSt3__114__split_bufferIPiNS_9allocatorIS1_EEE9__end_capB8ue170006Ev, symObjAddr: 0x1608, symBinAddr: 0x100002760, symSize: 0x28 }
  - { offsetInCU: 0xBD70, offset: 0xBD70, size: 0x8, addend: 0x0, symName: __ZNKSt3__117__compressed_pairIPPiNS_9allocatorIS1_EEE5firstB8ue170006Ev, symObjAddr: 0x1630, symBinAddr: 0x100002788, symSize: 0x24 }
  - { offsetInCU: 0xBD96, offset: 0xBD96, size: 0x8, addend: 0x0, symName: __ZNKSt3__122__compressed_pair_elemIPPiLi0ELb0EE5__getB8ue170006Ev, symObjAddr: 0x1654, symBinAddr: 0x1000027AC, symSize: 0x14 }
  - { offsetInCU: 0xBDBC, offset: 0xBDBC, size: 0x8, addend: 0x0, symName: __ZNSt3__15dequeIiNS_9allocatorIiEEED2B8ue170006Ev, symObjAddr: 0x1668, symBinAddr: 0x1000027C0, symSize: 0xA4 }
  - { offsetInCU: 0xBE13, offset: 0xBE13, size: 0x8, addend: 0x0, symName: __ZNSt3__15dequeIiNS_9allocatorIiEEE5clearEv, symObjAddr: 0x170C, symBinAddr: 0x100002864, symSize: 0x194 }
  - { offsetInCU: 0xBE77, offset: 0xBE77, size: 0x8, addend: 0x0, symName: __ZNKSt3__15dequeIiNS_9allocatorIiEEE17__annotate_deleteB8ue170006Ev, symObjAddr: 0x18A0, symBinAddr: 0x1000029F8, symSize: 0xE8 }
  - { offsetInCU: 0xBEBB, offset: 0xBEBB, size: 0x8, addend: 0x0, symName: __ZNSt3__114__split_bufferIPiNS_9allocatorIS1_EEE5beginB8ue170006Ev, symObjAddr: 0x1988, symBinAddr: 0x100002AE0, symSize: 0x18 }
  - { offsetInCU: 0xBEE1, offset: 0xBEE1, size: 0x8, addend: 0x0, symName: __ZNSt3__114__split_bufferIPiNS_9allocatorIS1_EEE3endB8ue170006Ev, symObjAddr: 0x19A0, symBinAddr: 0x100002AF8, symSize: 0x18 }
  - { offsetInCU: 0xBF07, offset: 0xBF07, size: 0x8, addend: 0x0, symName: __ZNSt3__116allocator_traitsINS_9allocatorIiEEE10deallocateB8ue170006ERS2_Pim, symObjAddr: 0x19B8, symBinAddr: 0x100002B10, symSize: 0x34 }
  - { offsetInCU: 0xBF49, offset: 0xBF49, size: 0x8, addend: 0x0, symName: __ZNSt3__15dequeIiNS_9allocatorIiEEE7__allocB8ue170006Ev, symObjAddr: 0x19EC, symBinAddr: 0x100002B44, symSize: 0x28 }
  - { offsetInCU: 0xBF6F, offset: 0xBF6F, size: 0x8, addend: 0x0, symName: __ZNSt3__116allocator_traitsINS_9allocatorIiEEE7destroyB8ue170006IivEEvRS2_PT_, symObjAddr: 0x1A14, symBinAddr: 0x100002B6C, symSize: 0x2C }
  - { offsetInCU: 0xBFAC, offset: 0xBFAC, size: 0x8, addend: 0x0, symName: __ZNSt3__15dequeIiNS_9allocatorIiEEE6__sizeB8ue170006Ev, symObjAddr: 0x1A40, symBinAddr: 0x100002B98, symSize: 0x28 }
  - { offsetInCU: 0xBFD2, offset: 0xBFD2, size: 0x8, addend: 0x0, symName: __ZNSt3__114__split_bufferIPiNS_9allocatorIS1_EEE5frontB8ue170006Ev, symObjAddr: 0x1A68, symBinAddr: 0x100002BC0, symSize: 0x18 }
  - { offsetInCU: 0xBFF8, offset: 0xBFF8, size: 0x8, addend: 0x0, symName: __ZNSt3__114__split_bufferIPiNS_9allocatorIS1_EEE9pop_frontB8ue170006Ev, symObjAddr: 0x1A80, symBinAddr: 0x100002BD8, symSize: 0x2C }
  - { offsetInCU: 0xC01E, offset: 0xC01E, size: 0x8, addend: 0x0, symName: __ZNSt3__19allocatorIiE7destroyB8ue170006EPi, symObjAddr: 0x1AAC, symBinAddr: 0x100002C04, symSize: 0x14 }
  - { offsetInCU: 0xC052, offset: 0xC052, size: 0x8, addend: 0x0, symName: __ZNSt3__117__compressed_pairImNS_9allocatorIiEEE5firstB8ue170006Ev, symObjAddr: 0x1AC0, symBinAddr: 0x100002C18, symSize: 0x24 }
  - { offsetInCU: 0xC078, offset: 0xC078, size: 0x8, addend: 0x0, symName: __ZNSt3__122__compressed_pair_elemImLi0ELb0EE5__getB8ue170006Ev, symObjAddr: 0x1AE4, symBinAddr: 0x100002C3C, symSize: 0x14 }
  - { offsetInCU: 0xC09E, offset: 0xC09E, size: 0x8, addend: 0x0, symName: __ZNSt3__114__split_bufferIPiNS_9allocatorIS1_EEE19__destruct_at_beginB8ue170006EPS1_, symObjAddr: 0x1AF8, symBinAddr: 0x100002C50, symSize: 0x2C }
  - { offsetInCU: 0xC0D2, offset: 0xC0D2, size: 0x8, addend: 0x0, symName: __ZNSt3__114__split_bufferIPiNS_9allocatorIS1_EEE19__destruct_at_beginEPS1_NS_17integral_constantIbLb1EEE, symObjAddr: 0x1B24, symBinAddr: 0x100002C7C, symSize: 0x20 }
  - { offsetInCU: 0xC112, offset: 0xC112, size: 0x8, addend: 0x0, symName: __ZNKSt3__15dequeIiNS_9allocatorIiEEE22__annotate_whole_blockB8ue170006EmNS3_22__asan_annotation_typeE, symObjAddr: 0x1B44, symBinAddr: 0x100002C9C, symSize: 0xAC }
  - { offsetInCU: 0xC183, offset: 0xC183, size: 0x8, addend: 0x0, symName: __ZNKSt3__15dequeIiNS_9allocatorIiEEE23__annotate_poison_blockB8ue170006EPKvS5_, symObjAddr: 0x1BF0, symBinAddr: 0x100002D48, symSize: 0x44 }
  - { offsetInCU: 0xC1C7, offset: 0xC1C7, size: 0x8, addend: 0x0, symName: __ZNSt3__19allocatorIiE10deallocateB8ue170006EPim, symObjAddr: 0x1C34, symBinAddr: 0x100002D8C, symSize: 0x70 }
  - { offsetInCU: 0xC209, offset: 0xC209, size: 0x8, addend: 0x0, symName: __ZNSt3__117__compressed_pairImNS_9allocatorIiEEE6secondB8ue170006Ev, symObjAddr: 0x1CA4, symBinAddr: 0x100002DFC, symSize: 0x24 }
  - { offsetInCU: 0xC22F, offset: 0xC22F, size: 0x8, addend: 0x0, symName: __ZNSt3__122__compressed_pair_elemINS_9allocatorIiEELi1ELb1EE5__getB8ue170006Ev, symObjAddr: 0x1CC8, symBinAddr: 0x100002E20, symSize: 0x14 }
  - { offsetInCU: 0xC255, offset: 0xC255, size: 0x8, addend: 0x0, symName: __ZNSt3__15dequeIiNS_9allocatorIiEEEC2IPiEET_S6_PNS_9enable_ifIXsr29__has_input_iterator_categoryIS6_EE5valueEvE4typeE, symObjAddr: 0x1CDC, symBinAddr: 0x100002E34, symSize: 0xA8 }
  - { offsetInCU: 0xC2B4, offset: 0xC2B4, size: 0x8, addend: 0x0, symName: __ZNSt3__15dequeIiNS_9allocatorIiEEE8__appendIPiEEvT_S6_PNS_9enable_ifIXsr31__has_forward_iterator_categoryIS6_EE5valueEvE4typeE, symObjAddr: 0x1D84, symBinAddr: 0x100002EDC, symSize: 0x54 }
  - { offsetInCU: 0xC30F, offset: 0xC30F, size: 0x8, addend: 0x0, symName: __ZNSt3__15dequeIiNS_9allocatorIiEEE18__append_with_sizeB8ue170006IPiEEvT_m, symObjAddr: 0x1DD8, symBinAddr: 0x100002F30, symSize: 0x214 }
  - { offsetInCU: 0xC3DF, offset: 0xC3DF, size: 0x8, addend: 0x0, symName: __ZNKSt3__15dequeIiNS_9allocatorIiEEE12__back_spareB8ue170006Ev, symObjAddr: 0x2018, symBinAddr: 0x100003170, symSize: 0x54 }
  - { offsetInCU: 0xC405, offset: 0xC405, size: 0x8, addend: 0x0, symName: __ZNSt3__15dequeIiNS_9allocatorIiEEE19__add_back_capacityEm, symObjAddr: 0x206C, symBinAddr: 0x1000031C4, symSize: 0x648 }
  - { offsetInCU: 0xC50A, offset: 0xC50A, size: 0x8, addend: 0x0, symName: __ZNKSt3__15dequeIiNS_9allocatorIiEEE24__annotate_increase_backB8ue170006Em, symObjAddr: 0x26B4, symBinAddr: 0x10000380C, symSize: 0x7C }
  - { offsetInCU: 0xC53F, offset: 0xC53F, size: 0x8, addend: 0x0, symName: __ZNKSt3__116__deque_iteratorIiPiRiPS1_lLl1024EEplB8ue170006El, symObjAddr: 0x2730, symBinAddr: 0x100003888, symSize: 0x40 }
  - { offsetInCU: 0xC5A6, offset: 0xC5A6, size: 0x8, addend: 0x0, symName: __ZNSt3__15dequeIiNS_9allocatorIiEEE13__deque_rangeC1B8ue170006ENS_16__deque_iteratorIiPiRiPS6_lLl1024EEES9_, symObjAddr: 0x2770, symBinAddr: 0x1000038C8, symSize: 0x4C }
  - { offsetInCU: 0xC5EE, offset: 0xC5EE, size: 0x8, addend: 0x0, symName: __ZNKSt3__15dequeIiNS_9allocatorIiEEE13__deque_range5beginB8ue170006Ev, symObjAddr: 0x27BC, symBinAddr: 0x100003914, symSize: 0x24 }
  - { offsetInCU: 0xC614, offset: 0xC614, size: 0x8, addend: 0x0, symName: __ZNKSt3__15dequeIiNS_9allocatorIiEEE13__deque_range3endB8ue170006Ev, symObjAddr: 0x27E0, symBinAddr: 0x100003938, symSize: 0x50 }
  - { offsetInCU: 0xC63A, offset: 0xC63A, size: 0x8, addend: 0x0, symName: __ZNKSt3__15dequeIiNS_9allocatorIiEEE13__deque_rangedeB8ue170006Ev, symObjAddr: 0x2864, symBinAddr: 0x1000039BC, symSize: 0x7C }
  - { offsetInCU: 0xC674, offset: 0xC674, size: 0x8, addend: 0x0, symName: __ZNSt3__15dequeIiNS_9allocatorIiEEE21_ConstructTransactionC1B8ue170006EPS3_RNS3_19__deque_block_rangeE, symObjAddr: 0x28E0, symBinAddr: 0x100003A38, symSize: 0x3C }
  - { offsetInCU: 0xC6BC, offset: 0xC6BC, size: 0x8, addend: 0x0, symName: __ZNSt3__116allocator_traitsINS_9allocatorIiEEE9constructB8ue170006IiJRiEvEEvRS2_PT_DpOT0_, symObjAddr: 0x291C, symBinAddr: 0x100003A74, symSize: 0x34 }
  - { offsetInCU: 0xC713, offset: 0xC713, size: 0x8, addend: 0x0, symName: __ZNSt3__15dequeIiNS_9allocatorIiEEE21_ConstructTransactionD1B8ue170006Ev, symObjAddr: 0x2950, symBinAddr: 0x100003AA8, symSize: 0x2C }
  - { offsetInCU: 0xC73D, offset: 0xC73D, size: 0x8, addend: 0x0, symName: __ZNSt3__15dequeIiNS_9allocatorIiEEE13__deque_rangeppB8ue170006Ev, symObjAddr: 0x297C, symBinAddr: 0x100003AD4, symSize: 0x64 }
  - { offsetInCU: 0xC763, offset: 0xC763, size: 0x8, addend: 0x0, symName: __ZNKSt3__15dequeIiNS_9allocatorIiEEE10__capacityB8ue170006Ev, symObjAddr: 0x29E0, symBinAddr: 0x100003B38, symSize: 0x60 }
  - { offsetInCU: 0xC789, offset: 0xC789, size: 0x8, addend: 0x0, symName: __ZNSt3__15dequeIiNS_9allocatorIiEEE18__recommend_blocksB8ue170006Em, symObjAddr: 0x2A40, symBinAddr: 0x100003B98, symSize: 0x40 }
  - { offsetInCU: 0xC7AD, offset: 0xC7AD, size: 0x8, addend: 0x0, symName: __ZNKSt3__114__split_bufferIPiNS_9allocatorIS1_EEE5emptyB8ue170006Ev, symObjAddr: 0x2A80, symBinAddr: 0x100003BD8, symSize: 0x28 }
  - { offsetInCU: 0xC7D3, offset: 0xC7D3, size: 0x8, addend: 0x0, symName: __ZNKSt3__15dequeIiNS_9allocatorIiEEE13__front_spareB8ue170006Ev, symObjAddr: 0x2AA8, symBinAddr: 0x100003C00, symSize: 0x18 }
  - { offsetInCU: 0xC7F9, offset: 0xC7F9, size: 0x8, addend: 0x0, symName: __ZNSt3__114__split_bufferIPiNS_9allocatorIS1_EEE9push_backB8ue170006ERKS1_, symObjAddr: 0x2AEC, symBinAddr: 0x100003C44, symSize: 0x270 }
  - { offsetInCU: 0xC872, offset: 0xC872, size: 0x8, addend: 0x0, symName: __ZNKSt3__114__split_bufferIPiNS_9allocatorIS1_EEE12__back_spareB8ue170006Ev, symObjAddr: 0x2D5C, symBinAddr: 0x100003EB4, symSize: 0x40 }
  - { offsetInCU: 0xC898, offset: 0xC898, size: 0x8, addend: 0x0, symName: __ZNSt3__114__split_bufferIPiNS_9allocatorIS1_EEE9push_backEOS1_, symObjAddr: 0x2D9C, symBinAddr: 0x100003EF4, symSize: 0x270 }
  - { offsetInCU: 0xC911, offset: 0xC911, size: 0x8, addend: 0x0, symName: __ZNSt3__116allocator_traitsINS_9allocatorIiEEE8allocateB8ue170006ERS2_m, symObjAddr: 0x300C, symBinAddr: 0x100004164, symSize: 0x2C }
  - { offsetInCU: 0xC944, offset: 0xC944, size: 0x8, addend: 0x0, symName: __ZNSt3__114__split_bufferIPiNS_9allocatorIS1_EEE10push_frontEOS1_, symObjAddr: 0x3038, symBinAddr: 0x100004190, symSize: 0x26C }
  - { offsetInCU: 0xC9BD, offset: 0xC9BD, size: 0x8, addend: 0x0, symName: __ZNSt3__114__split_bufferIPiRNS_9allocatorIS1_EEEC1EmmS4_, symObjAddr: 0x32D0, symBinAddr: 0x100004428, symSize: 0x44 }
  - { offsetInCU: 0xCA13, offset: 0xCA13, size: 0x8, addend: 0x0, symName: __ZNSt3__114__split_bufferIPiRNS_9allocatorIS1_EEE9push_backEOS1_, symObjAddr: 0x3314, symBinAddr: 0x10000446C, symSize: 0x270 }
  - { offsetInCU: 0xCA8C, offset: 0xCA8C, size: 0x8, addend: 0x0, symName: __ZNSt3__114__split_bufferIPiRNS_9allocatorIS1_EEE4backB8ue170006Ev, symObjAddr: 0x3584, symBinAddr: 0x1000046DC, symSize: 0x1C }
  - { offsetInCU: 0xCAB2, offset: 0xCAB2, size: 0x8, addend: 0x0, symName: __ZNSt3__114__split_bufferIPiRNS_9allocatorIS1_EEE5beginB8ue170006Ev, symObjAddr: 0x35A0, symBinAddr: 0x1000046F8, symSize: 0x18 }
  - { offsetInCU: 0xCAD8, offset: 0xCAD8, size: 0x8, addend: 0x0, symName: __ZNSt3__114__split_bufferIPiRNS_9allocatorIS1_EEE3endB8ue170006Ev, symObjAddr: 0x35B8, symBinAddr: 0x100004710, symSize: 0x18 }
  - { offsetInCU: 0xCAFE, offset: 0xCAFE, size: 0x8, addend: 0x0, symName: __ZNSt3__114__split_bufferIPiRNS_9allocatorIS1_EEE9push_backB8ue170006ERKS1_, symObjAddr: 0x35D0, symBinAddr: 0x100004728, symSize: 0x270 }
  - { offsetInCU: 0xCB77, offset: 0xCB77, size: 0x8, addend: 0x0, symName: __ZNSt3__114__split_bufferIPiRNS_9allocatorIS1_EEE10push_frontERKS1_, symObjAddr: 0x3840, symBinAddr: 0x100004998, symSize: 0x26C }
  - { offsetInCU: 0xCBF0, offset: 0xCBF0, size: 0x8, addend: 0x0, symName: __ZNSt3__114__split_bufferIPiNS_9allocatorIS1_EEE9__end_capB8ue170006Ev, symObjAddr: 0x3AE8, symBinAddr: 0x100004C40, symSize: 0x28 }
  - { offsetInCU: 0xCC16, offset: 0xCC16, size: 0x8, addend: 0x0, symName: __ZNSt3__114__split_bufferIPiRNS_9allocatorIS1_EEE9__end_capB8ue170006Ev, symObjAddr: 0x3B10, symBinAddr: 0x100004C68, symSize: 0x28 }
  - { offsetInCU: 0xCC3C, offset: 0xCC3C, size: 0x8, addend: 0x0, symName: __ZNSt3__114__split_bufferIPiRNS_9allocatorIS1_EEED1Ev, symObjAddr: 0x3B38, symBinAddr: 0x100004C90, symSize: 0x2C }
  - { offsetInCU: 0xCC72, offset: 0xCC72, size: 0x8, addend: 0x0, symName: __ZNKSt3__16__lessIvvEclB8ue170006ImmEEbRKT_RKT0_, symObjAddr: 0x3BB8, symBinAddr: 0x100004D10, symSize: 0x34 }
  - { offsetInCU: 0xCCC6, offset: 0xCCC6, size: 0x8, addend: 0x0, symName: __ZNSt3__114__split_bufferIPiRNS_9allocatorIS1_EEE18__construct_at_endINS_13move_iteratorIPS1_EEEENS_9enable_ifIXsr31__has_forward_iterator_categoryIT_EE5valueEvE4typeESB_SB_, symObjAddr: 0x3C2C, symBinAddr: 0x100004D84, symSize: 0x60 }
  - { offsetInCU: 0xCD13, offset: 0xCD13, size: 0x8, addend: 0x0, symName: __ZNSt3__113move_iteratorIPPiEC1B8ue170006ES2_, symObjAddr: 0x3C8C, symBinAddr: 0x100004DE4, symSize: 0x34 }
  - { offsetInCU: 0xCD4B, offset: 0xCD4B, size: 0x8, addend: 0x0, symName: __ZNSt3__116allocator_traitsINS_9allocatorIPiEEE9constructB8ue170006IS2_JRKS2_EvEEvRS3_PT_DpOT0_, symObjAddr: 0x3CC0, symBinAddr: 0x100004E18, symSize: 0x34 }
  - { offsetInCU: 0xCDC5, offset: 0xCDC5, size: 0x8, addend: 0x0, symName: __ZNKSt3__114__move_trivialclB8ue170006IPiS2_Li0EEENS_4pairIPT_PT0_EES5_S5_S7_, symObjAddr: 0x3E90, symBinAddr: 0x100004FE8, symSize: 0x48 }
  - { offsetInCU: 0xCE2D, offset: 0xCE2D, size: 0x8, addend: 0x0, symName: __ZNSt3__14pairIPPiS2_EC1B8ue170006ERKS2_S5_, symObjAddr: 0x4108, symBinAddr: 0x100005260, symSize: 0x3C }
  - { offsetInCU: 0xCE73, offset: 0xCE73, size: 0x8, addend: 0x0, symName: __ZNSt3__14pairIPPiS2_EC2B8ue170006ERKS2_S5_, symObjAddr: 0x4144, symBinAddr: 0x10000529C, symSize: 0x34 }
  - { offsetInCU: 0xCEB9, offset: 0xCEB9, size: 0x8, addend: 0x0, symName: __ZNSt3__118__unwrap_iter_implIPPiLb1EE8__unwrapB8ue170006ES2_, symObjAddr: 0x4178, symBinAddr: 0x1000052D0, symSize: 0x24 }
  - { offsetInCU: 0xCEDC, offset: 0xCEDC, size: 0x8, addend: 0x0, symName: __ZNSt3__118__unwrap_iter_implIPPiLb1EE8__rewrapB8ue170006ES2_S2_, symObjAddr: 0x419C, symBinAddr: 0x1000052F4, symSize: 0x50 }
  - { offsetInCU: 0xCF0D, offset: 0xCF0D, size: 0x8, addend: 0x0, symName: __ZNSt3__114__split_bufferIPiRNS_9allocatorIS1_EEE28__construct_at_end_with_sizeINS_13move_iteratorIPS1_EEEEvT_m, symObjAddr: 0x41EC, symBinAddr: 0x100005344, symSize: 0xE4 }
  - { offsetInCU: 0xCF73, offset: 0xCF73, size: 0x8, addend: 0x0, symName: __ZNSt3__114__split_bufferIPiRNS_9allocatorIS1_EEE21_ConstructTransactionC1B8ue170006EPPS1_m, symObjAddr: 0x430C, symBinAddr: 0x100005464, symSize: 0x3C }
  - { offsetInCU: 0xCFB9, offset: 0xCFB9, size: 0x8, addend: 0x0, symName: __ZNSt3__116allocator_traitsINS_9allocatorIPiEEE9constructB8ue170006IS2_JS2_EvEEvRS3_PT_DpOT0_, symObjAddr: 0x4348, symBinAddr: 0x1000054A0, symSize: 0x34 }
  - { offsetInCU: 0xD010, offset: 0xD010, size: 0x8, addend: 0x0, symName: __ZNSt3__114__split_bufferIPiRNS_9allocatorIS1_EEE7__allocB8ue170006Ev, symObjAddr: 0x437C, symBinAddr: 0x1000054D4, symSize: 0x28 }
  - { offsetInCU: 0xD036, offset: 0xD036, size: 0x8, addend: 0x0, symName: __ZNKSt3__113move_iteratorIPPiEdeB8ue170006Ev, symObjAddr: 0x43A4, symBinAddr: 0x1000054FC, symSize: 0x18 }
  - { offsetInCU: 0xD05C, offset: 0xD05C, size: 0x8, addend: 0x0, symName: __ZNSt3__113move_iteratorIPPiEppB8ue170006Ev, symObjAddr: 0x43BC, symBinAddr: 0x100005514, symSize: 0x20 }
  - { offsetInCU: 0xD082, offset: 0xD082, size: 0x8, addend: 0x0, symName: __ZNSt3__114__split_bufferIPiRNS_9allocatorIS1_EEE21_ConstructTransactionD1B8ue170006Ev, symObjAddr: 0x43DC, symBinAddr: 0x100005534, symSize: 0x2C }
  - { offsetInCU: 0xD0AC, offset: 0xD0AC, size: 0x8, addend: 0x0, symName: __ZNSt3__114__split_bufferIPiRNS_9allocatorIS1_EEE21_ConstructTransactionC2B8ue170006EPPS1_m, symObjAddr: 0x4408, symBinAddr: 0x100005560, symSize: 0x44 }
  - { offsetInCU: 0xD0F2, offset: 0xD0F2, size: 0x8, addend: 0x0, symName: __ZNSt3__19allocatorIPiE9constructB8ue170006IS1_JS1_EEEvPT_DpOT0_, symObjAddr: 0x444C, symBinAddr: 0x1000055A4, symSize: 0x28 }
  - { offsetInCU: 0xD148, offset: 0xD148, size: 0x8, addend: 0x0, symName: __ZNSt3__117__compressed_pairIPPiRNS_9allocatorIS1_EEE6secondB8ue170006Ev, symObjAddr: 0x4474, symBinAddr: 0x1000055CC, symSize: 0x28 }
  - { offsetInCU: 0xD16E, offset: 0xD16E, size: 0x8, addend: 0x0, symName: __ZNSt3__122__compressed_pair_elemIRNS_9allocatorIPiEELi1ELb0EE5__getB8ue170006Ev, symObjAddr: 0x449C, symBinAddr: 0x1000055F4, symSize: 0x18 }
  - { offsetInCU: 0xD194, offset: 0xD194, size: 0x8, addend: 0x0, symName: __ZNSt3__114__split_bufferIPiRNS_9allocatorIS1_EEE21_ConstructTransactionD2B8ue170006Ev, symObjAddr: 0x44B4, symBinAddr: 0x10000560C, symSize: 0x20 }
  - { offsetInCU: 0xD1BE, offset: 0xD1BE, size: 0x8, addend: 0x0, symName: __ZNKSt3__113move_iteratorIPPiE4baseB8ue170006Ev, symObjAddr: 0x454C, symBinAddr: 0x1000056A4, symSize: 0x18 }
  - { offsetInCU: 0xD1E4, offset: 0xD1E4, size: 0x8, addend: 0x0, symName: __ZNSt3__113move_iteratorIPPiEC2B8ue170006ES2_, symObjAddr: 0x4564, symBinAddr: 0x1000056BC, symSize: 0x20 }
  - { offsetInCU: 0xD21C, offset: 0xD21C, size: 0x8, addend: 0x0, symName: __ZNSt3__19allocatorIPiE9constructB8ue170006IS1_JRKS1_EEEvPT_DpOT0_, symObjAddr: 0x4584, symBinAddr: 0x1000056DC, symSize: 0x28 }
  - { offsetInCU: 0xD272, offset: 0xD272, size: 0x8, addend: 0x0, symName: __ZNSt3__19allocatorIiE8allocateB8ue170006Em, symObjAddr: 0x45AC, symBinAddr: 0x100005704, symSize: 0x84 }
  - { offsetInCU: 0xD2B0, offset: 0xD2B0, size: 0x8, addend: 0x0, symName: __ZNSt3__116allocator_traitsINS_9allocatorIiEEE8max_sizeB8ue170006IS2_vEEmRKS2_, symObjAddr: 0x4630, symBinAddr: 0x100005788, symSize: 0x24 }
  - { offsetInCU: 0xD2DE, offset: 0xD2DE, size: 0x8, addend: 0x0, symName: __ZNKSt3__19allocatorIiE8max_sizeB8ue170006Ev, symObjAddr: 0x46B0, symBinAddr: 0x100005808, symSize: 0x14 }
  - { offsetInCU: 0xD30E, offset: 0xD30E, size: 0x8, addend: 0x0, symName: __ZNKSt3__123__move_backward_trivialclB8ue170006IPiS2_Li0EEENS_4pairIPT_PT0_EES5_S5_S7_, symObjAddr: 0x4864, symBinAddr: 0x1000059BC, symSize: 0x48 }
  - { offsetInCU: 0xD376, offset: 0xD376, size: 0x8, addend: 0x0, symName: __ZNSt3__114__split_bufferIPiRNS_9allocatorIS1_EEEC2EmmS4_, symObjAddr: 0x49C8, symBinAddr: 0x100005B20, symSize: 0xD4 }
  - { offsetInCU: 0xD3EA, offset: 0xD3EA, size: 0x8, addend: 0x0, symName: __ZNSt3__117__compressed_pairIPPiRNS_9allocatorIS1_EEEC1B8ue170006IDnS5_EEOT_OT0_, symObjAddr: 0x4A9C, symBinAddr: 0x100005BF4, symSize: 0x3C }
  - { offsetInCU: 0xD442, offset: 0xD442, size: 0x8, addend: 0x0, symName: __ZNSt3__117__compressed_pairIPPiRNS_9allocatorIS1_EEEC2B8ue170006IDnS5_EEOT_OT0_, symObjAddr: 0x4B18, symBinAddr: 0x100005C70, symSize: 0x48 }
  - { offsetInCU: 0xD49A, offset: 0xD49A, size: 0x8, addend: 0x0, symName: __ZNSt3__122__compressed_pair_elemIRNS_9allocatorIPiEELi1ELb0EEC2B8ue170006IS4_vEEOT_, symObjAddr: 0x4B60, symBinAddr: 0x100005CB8, symSize: 0x20 }
  - { offsetInCU: 0xD4DC, offset: 0xD4DC, size: 0x8, addend: 0x0, symName: __ZNSt3__19allocatorIPiE8allocateB8ue170006Em, symObjAddr: 0x4B80, symBinAddr: 0x100005CD8, symSize: 0x84 }
  - { offsetInCU: 0xD51A, offset: 0xD51A, size: 0x8, addend: 0x0, symName: __ZNSt3__116allocator_traitsINS_9allocatorIPiEEE8max_sizeB8ue170006IS3_vEEmRKS3_, symObjAddr: 0x4C04, symBinAddr: 0x100005D5C, symSize: 0x24 }
  - { offsetInCU: 0xD548, offset: 0xD548, size: 0x8, addend: 0x0, symName: __ZNKSt3__19allocatorIPiE8max_sizeB8ue170006Ev, symObjAddr: 0x4C28, symBinAddr: 0x100005D80, symSize: 0x14 }
  - { offsetInCU: 0xD56E, offset: 0xD56E, size: 0x8, addend: 0x0, symName: __ZNSt3__117__compressed_pairIPPiNS_9allocatorIS1_EEE5firstB8ue170006Ev, symObjAddr: 0x4C3C, symBinAddr: 0x100005D94, symSize: 0x24 }
  - { offsetInCU: 0xD594, offset: 0xD594, size: 0x8, addend: 0x0, symName: __ZNSt3__122__compressed_pair_elemIPPiLi0ELb0EE5__getB8ue170006Ev, symObjAddr: 0x4C60, symBinAddr: 0x100005DB8, symSize: 0x14 }
  - { offsetInCU: 0xD5BA, offset: 0xD5BA, size: 0x8, addend: 0x0, symName: __ZNSt3__117__compressed_pairIPPiRNS_9allocatorIS1_EEE5firstB8ue170006Ev, symObjAddr: 0x4C74, symBinAddr: 0x100005DCC, symSize: 0x24 }
  - { offsetInCU: 0xD5E0, offset: 0xD5E0, size: 0x8, addend: 0x0, symName: __ZNSt3__114__split_bufferIPiRNS_9allocatorIS1_EEED2Ev, symObjAddr: 0x4C98, symBinAddr: 0x100005DF0, symSize: 0x80 }
  - { offsetInCU: 0xD60C, offset: 0xD60C, size: 0x8, addend: 0x0, symName: __ZNSt3__114__split_bufferIPiRNS_9allocatorIS1_EEE5clearB8ue170006Ev, symObjAddr: 0x4D18, symBinAddr: 0x100005E70, symSize: 0x28 }
  - { offsetInCU: 0xD632, offset: 0xD632, size: 0x8, addend: 0x0, symName: __ZNKSt3__114__split_bufferIPiRNS_9allocatorIS1_EEE8capacityB8ue170006Ev, symObjAddr: 0x4D40, symBinAddr: 0x100005E98, symSize: 0x40 }
  - { offsetInCU: 0xD658, offset: 0xD658, size: 0x8, addend: 0x0, symName: __ZNSt3__114__split_bufferIPiRNS_9allocatorIS1_EEE17__destruct_at_endB8ue170006EPS1_, symObjAddr: 0x4D80, symBinAddr: 0x100005ED8, symSize: 0x2C }
  - { offsetInCU: 0xD68C, offset: 0xD68C, size: 0x8, addend: 0x0, symName: __ZNSt3__114__split_bufferIPiRNS_9allocatorIS1_EEE17__destruct_at_endB8ue170006EPS1_NS_17integral_constantIbLb0EEE, symObjAddr: 0x4DAC, symBinAddr: 0x100005F04, symSize: 0x94 }
  - { offsetInCU: 0xD6CC, offset: 0xD6CC, size: 0x8, addend: 0x0, symName: __ZNKSt3__114__split_bufferIPiRNS_9allocatorIS1_EEE9__end_capB8ue170006Ev, symObjAddr: 0x4E40, symBinAddr: 0x100005F98, symSize: 0x28 }
  - { offsetInCU: 0xD6F2, offset: 0xD6F2, size: 0x8, addend: 0x0, symName: __ZNKSt3__117__compressed_pairIPPiRNS_9allocatorIS1_EEE5firstB8ue170006Ev, symObjAddr: 0x4E68, symBinAddr: 0x100005FC0, symSize: 0x24 }
  - { offsetInCU: 0xD718, offset: 0xD718, size: 0x8, addend: 0x0, symName: __ZNSt3__116__deque_iteratorIiPiRiPS1_lLl1024EEpLB8ue170006El, symObjAddr: 0x4E8C, symBinAddr: 0x100005FE4, symSize: 0x110 }
  - { offsetInCU: 0xD76B, offset: 0xD76B, size: 0x8, addend: 0x0, symName: __ZNSt3__15dequeIiNS_9allocatorIiEEE13__deque_rangeC2B8ue170006ENS_16__deque_iteratorIiPiRiPS6_lLl1024EEES9_, symObjAddr: 0x4F9C, symBinAddr: 0x1000060F4, symSize: 0x34 }
  - { offsetInCU: 0xD7B3, offset: 0xD7B3, size: 0x8, addend: 0x0, symName: __ZNSt3__15dequeIiNS_9allocatorIiEEE19__deque_block_rangeC1B8ue170006EPiS5_, symObjAddr: 0x5030, symBinAddr: 0x100006188, symSize: 0x3C }
  - { offsetInCU: 0xD7FB, offset: 0xD7FB, size: 0x8, addend: 0x0, symName: __ZNSt3__15dequeIiNS_9allocatorIiEEE19__deque_block_rangeC2B8ue170006EPiS5_, symObjAddr: 0x506C, symBinAddr: 0x1000061C4, symSize: 0x2C }
  - { offsetInCU: 0xD843, offset: 0xD843, size: 0x8, addend: 0x0, symName: __ZNSt3__15dequeIiNS_9allocatorIiEEE21_ConstructTransactionC2B8ue170006EPS3_RNS3_19__deque_block_rangeE, symObjAddr: 0x5098, symBinAddr: 0x1000061F0, symSize: 0x48 }
  - { offsetInCU: 0xD88B, offset: 0xD88B, size: 0x8, addend: 0x0, symName: __ZNSt3__19allocatorIiE9constructB8ue170006IiJRiEEEvPT_DpOT0_, symObjAddr: 0x50E0, symBinAddr: 0x100006238, symSize: 0x28 }
  - { offsetInCU: 0xD8E1, offset: 0xD8E1, size: 0x8, addend: 0x0, symName: __ZNSt3__15dequeIiNS_9allocatorIiEEE21_ConstructTransactionD2B8ue170006Ev, symObjAddr: 0x5108, symBinAddr: 0x100006260, symSize: 0x5C }
  - { offsetInCU: 0xD90B, offset: 0xD90B, size: 0x8, addend: 0x0, symName: __ZNSt3__116__deque_iteratorIiPiRiPS1_lLl1024EEC1B8ue170006ES3_S1_, symObjAddr: 0x518C, symBinAddr: 0x1000062E4, symSize: 0x3C }
  - { offsetInCU: 0xD953, offset: 0xD953, size: 0x8, addend: 0x0, symName: __ZNSt3__116__deque_iteratorIiPiRiPS1_lLl1024EEC2B8ue170006ES3_S1_, symObjAddr: 0x51C8, symBinAddr: 0x100006320, symSize: 0x2C }
  - { offsetInCU: 0xD99B, offset: 0xD99B, size: 0x8, addend: 0x0, symName: __ZNSt3__15dequeIiNS_9allocatorIiEEE19__add_back_capacityEv, symObjAddr: 0x51F4, symBinAddr: 0x10000634C, symSize: 0x35C }
  - { offsetInCU: 0xDA53, offset: 0xDA53, size: 0x8, addend: 0x0, symName: __ZNSt3__116allocator_traitsINS_9allocatorIiEEE9constructB8ue170006IiJRKiEvEEvRS2_PT_DpOT0_, symObjAddr: 0x5550, symBinAddr: 0x1000066A8, symSize: 0x34 }
  - { offsetInCU: 0xDAAF, offset: 0xDAAF, size: 0x8, addend: 0x0, symName: __ZNSt3__122__allocator_destructorINS_9allocatorIiEEEC1B8ue170006ERS2_m, symObjAddr: 0x5584, symBinAddr: 0x1000066DC, symSize: 0x3C }
  - { offsetInCU: 0xDB77, offset: 0xDB77, size: 0x8, addend: 0x0, symName: __ZNSt3__110unique_ptrIPiNS_22__allocator_destructorINS_9allocatorIiEEEEEC1B8ue170006ILb1EvEES1_NS_16__dependent_typeINS_27__unique_ptr_deleter_sfinaeIS5_EEXT_EE20__good_rval_ref_typeE, symObjAddr: 0x55C0, symBinAddr: 0x100006718, symSize: 0x3C }
  - { offsetInCU: 0xDBC8, offset: 0xDBC8, size: 0x8, addend: 0x0, symName: __ZNKSt3__110unique_ptrIPiNS_22__allocator_destructorINS_9allocatorIiEEEEE3getB8ue170006Ev, symObjAddr: 0x55FC, symBinAddr: 0x100006754, symSize: 0x28 }
  - { offsetInCU: 0xDBEE, offset: 0xDBEE, size: 0x8, addend: 0x0, symName: __ZNSt3__110unique_ptrIPiNS_22__allocator_destructorINS_9allocatorIiEEEEE7releaseB8ue170006Ev, symObjAddr: 0x5624, symBinAddr: 0x10000677C, symSize: 0x44 }
  - { offsetInCU: 0xDC23, offset: 0xDC23, size: 0x8, addend: 0x0, symName: __ZNSt3__110unique_ptrIPiNS_22__allocator_destructorINS_9allocatorIiEEEEED1B8ue170006Ev, symObjAddr: 0x5668, symBinAddr: 0x1000067C0, symSize: 0x2C }
  - { offsetInCU: 0xDC4D, offset: 0xDC4D, size: 0x8, addend: 0x0, symName: __ZNSt3__122__allocator_destructorINS_9allocatorIiEEEC2B8ue170006ERS2_m, symObjAddr: 0x5694, symBinAddr: 0x1000067EC, symSize: 0x2C }
  - { offsetInCU: 0xDC93, offset: 0xDC93, size: 0x8, addend: 0x0, symName: __ZNSt3__110unique_ptrIPiNS_22__allocator_destructorINS_9allocatorIiEEEEEC2B8ue170006ILb1EvEES1_NS_16__dependent_typeINS_27__unique_ptr_deleter_sfinaeIS5_EEXT_EE20__good_rval_ref_typeE, symObjAddr: 0x56C0, symBinAddr: 0x100006818, symSize: 0x5C }
  - { offsetInCU: 0xDCE4, offset: 0xDCE4, size: 0x8, addend: 0x0, symName: __ZNSt3__117__compressed_pairIPiNS_22__allocator_destructorINS_9allocatorIiEEEEEC1B8ue170006IRS1_S5_EEOT_OT0_, symObjAddr: 0x571C, symBinAddr: 0x100006874, symSize: 0x3C }
  - { offsetInCU: 0xDD3C, offset: 0xDD3C, size: 0x8, addend: 0x0, symName: __ZNSt3__117__compressed_pairIPiNS_22__allocator_destructorINS_9allocatorIiEEEEEC2B8ue170006IRS1_S5_EEOT_OT0_, symObjAddr: 0x5758, symBinAddr: 0x1000068B0, symSize: 0x48 }
  - { offsetInCU: 0xDD94, offset: 0xDD94, size: 0x8, addend: 0x0, symName: __ZNSt3__122__compressed_pair_elemIPiLi0ELb0EEC2B8ue170006IRS1_vEEOT_, symObjAddr: 0x57A0, symBinAddr: 0x1000068F8, symSize: 0x24 }
  - { offsetInCU: 0xDDD6, offset: 0xDDD6, size: 0x8, addend: 0x0, symName: __ZNSt3__122__compressed_pair_elemINS_22__allocator_destructorINS_9allocatorIiEEEELi1ELb0EEC2B8ue170006IS4_vEEOT_, symObjAddr: 0x57C4, symBinAddr: 0x10000691C, symSize: 0x24 }
  - { offsetInCU: 0xDE18, offset: 0xDE18, size: 0x8, addend: 0x0, symName: __ZNKSt3__117__compressed_pairIPiNS_22__allocator_destructorINS_9allocatorIiEEEEE5firstB8ue170006Ev, symObjAddr: 0x57E8, symBinAddr: 0x100006940, symSize: 0x24 }
  - { offsetInCU: 0xDE3E, offset: 0xDE3E, size: 0x8, addend: 0x0, symName: __ZNKSt3__122__compressed_pair_elemIPiLi0ELb0EE5__getB8ue170006Ev, symObjAddr: 0x580C, symBinAddr: 0x100006964, symSize: 0x14 }
  - { offsetInCU: 0xDE64, offset: 0xDE64, size: 0x8, addend: 0x0, symName: __ZNSt3__117__compressed_pairIPiNS_22__allocator_destructorINS_9allocatorIiEEEEE5firstB8ue170006Ev, symObjAddr: 0x5820, symBinAddr: 0x100006978, symSize: 0x24 }
  - { offsetInCU: 0xDE8A, offset: 0xDE8A, size: 0x8, addend: 0x0, symName: __ZNSt3__122__compressed_pair_elemIPiLi0ELb0EE5__getB8ue170006Ev, symObjAddr: 0x5844, symBinAddr: 0x10000699C, symSize: 0x14 }
  - { offsetInCU: 0xDEB0, offset: 0xDEB0, size: 0x8, addend: 0x0, symName: __ZNSt3__110unique_ptrIPiNS_22__allocator_destructorINS_9allocatorIiEEEEED2B8ue170006Ev, symObjAddr: 0x5858, symBinAddr: 0x1000069B0, symSize: 0x30 }
  - { offsetInCU: 0xDEDA, offset: 0xDEDA, size: 0x8, addend: 0x0, symName: __ZNSt3__110unique_ptrIPiNS_22__allocator_destructorINS_9allocatorIiEEEEE5resetB8ue170006ES1_, symObjAddr: 0x5888, symBinAddr: 0x1000069E0, symSize: 0x78 }
  - { offsetInCU: 0xDF1E, offset: 0xDF1E, size: 0x8, addend: 0x0, symName: __ZNSt3__117__compressed_pairIPiNS_22__allocator_destructorINS_9allocatorIiEEEEE6secondB8ue170006Ev, symObjAddr: 0x5900, symBinAddr: 0x100006A58, symSize: 0x28 }
  - { offsetInCU: 0xDF44, offset: 0xDF44, size: 0x8, addend: 0x0, symName: __ZNSt3__122__allocator_destructorINS_9allocatorIiEEEclB8ue170006EPi, symObjAddr: 0x5928, symBinAddr: 0x100006A80, symSize: 0x34 }
  - { offsetInCU: 0xDF78, offset: 0xDF78, size: 0x8, addend: 0x0, symName: __ZNSt3__122__compressed_pair_elemINS_22__allocator_destructorINS_9allocatorIiEEEELi1ELb0EE5__getB8ue170006Ev, symObjAddr: 0x595C, symBinAddr: 0x100006AB4, symSize: 0x14 }
  - { offsetInCU: 0xDF9E, offset: 0xDF9E, size: 0x8, addend: 0x0, symName: __ZNSt3__19allocatorIiE9constructB8ue170006IiJRKiEEEvPT_DpOT0_, symObjAddr: 0x5970, symBinAddr: 0x100006AC8, symSize: 0x28 }
  - { offsetInCU: 0xDFF4, offset: 0xDFF4, size: 0x8, addend: 0x0, symName: __ZNKSt3__15dequeIiNS_9allocatorIiEEE6__sizeB8ue170006Ev, symObjAddr: 0x5998, symBinAddr: 0x100006AF0, symSize: 0x28 }
  - { offsetInCU: 0xE01A, offset: 0xE01A, size: 0x8, addend: 0x0, symName: __ZNKSt3__117__compressed_pairImNS_9allocatorIiEEE5firstB8ue170006Ev, symObjAddr: 0x59C0, symBinAddr: 0x100006B18, symSize: 0x24 }
  - { offsetInCU: 0xE040, offset: 0xE040, size: 0x8, addend: 0x0, symName: __ZNKSt3__122__compressed_pair_elemImLi0ELb0EE5__getB8ue170006Ev, symObjAddr: 0x59E4, symBinAddr: 0x100006B3C, symSize: 0x14 }
  - { offsetInCU: 0xE066, offset: 0xE066, size: 0x8, addend: 0x0, symName: __ZNSt3__111char_traitsIcE6lengthB8ue170006EPKc, symObjAddr: 0x5BEC, symBinAddr: 0x100006D44, symSize: 0x48 }
  - { offsetInCU: 0xE0A7, offset: 0xE0A7, size: 0x8, addend: 0x0, symName: __ZNKSt3__113basic_ostreamIcNS_11char_traitsIcEEE6sentrycvbB8ue170006Ev, symObjAddr: 0x5C34, symBinAddr: 0x100006D8C, symSize: 0x1C }
  - { offsetInCU: 0xE0CD, offset: 0xE0CD, size: 0x8, addend: 0x0, symName: __ZNSt3__119ostreambuf_iteratorIcNS_11char_traitsIcEEEC1B8ue170006ERNS_13basic_ostreamIcS2_EE, symObjAddr: 0x5E98, symBinAddr: 0x100006FF0, symSize: 0x34 }
  - { offsetInCU: 0xE105, offset: 0xE105, size: 0x8, addend: 0x0, symName: __ZNKSt3__18ios_base5flagsB8ue170006Ev, symObjAddr: 0x5ECC, symBinAddr: 0x100007024, symSize: 0x18 }
  - { offsetInCU: 0xE12D, offset: 0xE12D, size: 0x8, addend: 0x0, symName: __ZNKSt3__19basic_iosIcNS_11char_traitsIcEEE4fillB8ue170006Ev, symObjAddr: 0x5EE4, symBinAddr: 0x10000703C, symSize: 0x64 }
  - { offsetInCU: 0xE155, offset: 0xE155, size: 0x8, addend: 0x0, symName: __ZNKSt3__119ostreambuf_iteratorIcNS_11char_traitsIcEEE6failedB8ue170006Ev, symObjAddr: 0x5F48, symBinAddr: 0x1000070A0, symSize: 0x24 }
  - { offsetInCU: 0xE17B, offset: 0xE17B, size: 0x8, addend: 0x0, symName: __ZNSt3__19basic_iosIcNS_11char_traitsIcEEE8setstateB8ue170006Ej, symObjAddr: 0x5F6C, symBinAddr: 0x1000070C4, symSize: 0x2C }
  - { offsetInCU: 0xE1B0, offset: 0xE1B0, size: 0x8, addend: 0x0, symName: __ZNKSt3__18ios_base5widthB8ue170006Ev, symObjAddr: 0x5F98, symBinAddr: 0x1000070F0, symSize: 0x18 }
  - { offsetInCU: 0xE1D8, offset: 0xE1D8, size: 0x8, addend: 0x0, symName: __ZNSt3__115basic_streambufIcNS_11char_traitsIcEEE5sputnB8ue170006EPKcl, symObjAddr: 0x5FB0, symBinAddr: 0x100007108, symSize: 0x3C }
  - { offsetInCU: 0xE21A, offset: 0xE21A, size: 0x8, addend: 0x0, symName: __ZNSt3__112basic_stringIcNS_11char_traitsIcEENS_9allocatorIcEEEC1B8ue170006Emc, symObjAddr: 0x5FEC, symBinAddr: 0x100007144, symSize: 0x3C }
  - { offsetInCU: 0xE262, offset: 0xE262, size: 0x8, addend: 0x0, symName: __ZNKSt3__112basic_stringIcNS_11char_traitsIcEENS_9allocatorIcEEE4dataB8ue170006Ev, symObjAddr: 0x6028, symBinAddr: 0x100007180, symSize: 0x28 }
  - { offsetInCU: 0xE288, offset: 0xE288, size: 0x8, addend: 0x0, symName: __ZNSt3__18ios_base5widthB8ue170006El, symObjAddr: 0x6050, symBinAddr: 0x1000071A8, symSize: 0x2C }
  - { offsetInCU: 0xE2CE, offset: 0xE2CE, size: 0x8, addend: 0x0, symName: __ZNSt3__112basic_stringIcNS_11char_traitsIcEENS_9allocatorIcEEEC2B8ue170006Emc, symObjAddr: 0x607C, symBinAddr: 0x1000071D4, symSize: 0x4C }
  - { offsetInCU: 0xE316, offset: 0xE316, size: 0x8, addend: 0x0, symName: __ZNSt3__117__compressed_pairINS_12basic_stringIcNS_11char_traitsIcEENS_9allocatorIcEEE5__repES5_EC1B8ue170006INS_18__default_init_tagESA_EEOT_OT0_, symObjAddr: 0x60C8, symBinAddr: 0x100007220, symSize: 0x3C }
  - { offsetInCU: 0xE36E, offset: 0xE36E, size: 0x8, addend: 0x0, symName: __ZNSt3__117__compressed_pairINS_12basic_stringIcNS_11char_traitsIcEENS_9allocatorIcEEE5__repES5_EC2B8ue170006INS_18__default_init_tagESA_EEOT_OT0_, symObjAddr: 0x6104, symBinAddr: 0x10000725C, symSize: 0x3C }
  - { offsetInCU: 0xE3C6, offset: 0xE3C6, size: 0x8, addend: 0x0, symName: __ZNSt3__122__compressed_pair_elemINS_12basic_stringIcNS_11char_traitsIcEENS_9allocatorIcEEE5__repELi0ELb0EEC2B8ue170006ENS_18__default_init_tagE, symObjAddr: 0x6140, symBinAddr: 0x100007298, symSize: 0x14 }
  - { offsetInCU: 0xE3FA, offset: 0xE3FA, size: 0x8, addend: 0x0, symName: __ZNSt3__122__compressed_pair_elemINS_9allocatorIcEELi1ELb1EEC2B8ue170006ENS_18__default_init_tagE, symObjAddr: 0x6154, symBinAddr: 0x1000072AC, symSize: 0x2C }
  - { offsetInCU: 0xE42E, offset: 0xE42E, size: 0x8, addend: 0x0, symName: __ZNSt3__19allocatorIcEC2B8ue170006Ev, symObjAddr: 0x6180, symBinAddr: 0x1000072D8, symSize: 0x2C }
  - { offsetInCU: 0xE458, offset: 0xE458, size: 0x8, addend: 0x0, symName: __ZNSt3__116__non_trivial_ifILb1ENS_9allocatorIcEEEC2B8ue170006Ev, symObjAddr: 0x61AC, symBinAddr: 0x100007304, symSize: 0x14 }
  - { offsetInCU: 0xE482, offset: 0xE482, size: 0x8, addend: 0x0, symName: __ZNKSt3__112basic_stringIcNS_11char_traitsIcEENS_9allocatorIcEEE13__get_pointerB8ue170006Ev, symObjAddr: 0x61D4, symBinAddr: 0x10000732C, symSize: 0x54 }
  - { offsetInCU: 0xE4A8, offset: 0xE4A8, size: 0x8, addend: 0x0, symName: __ZNKSt3__112basic_stringIcNS_11char_traitsIcEENS_9allocatorIcEEE9__is_longB8ue170006Ev, symObjAddr: 0x6228, symBinAddr: 0x100007380, symSize: 0x74 }
  - { offsetInCU: 0xE4CE, offset: 0xE4CE, size: 0x8, addend: 0x0, symName: __ZNKSt3__112basic_stringIcNS_11char_traitsIcEENS_9allocatorIcEEE18__get_long_pointerB8ue170006Ev, symObjAddr: 0x629C, symBinAddr: 0x1000073F4, symSize: 0x28 }
  - { offsetInCU: 0xE4F4, offset: 0xE4F4, size: 0x8, addend: 0x0, symName: __ZNKSt3__112basic_stringIcNS_11char_traitsIcEENS_9allocatorIcEEE19__get_short_pointerB8ue170006Ev, symObjAddr: 0x62C4, symBinAddr: 0x10000741C, symSize: 0x28 }
  - { offsetInCU: 0xE51A, offset: 0xE51A, size: 0x8, addend: 0x0, symName: __ZNKSt3__117__compressed_pairINS_12basic_stringIcNS_11char_traitsIcEENS_9allocatorIcEEE5__repES5_E5firstB8ue170006Ev, symObjAddr: 0x62EC, symBinAddr: 0x100007444, symSize: 0x24 }
  - { offsetInCU: 0xE540, offset: 0xE540, size: 0x8, addend: 0x0, symName: __ZNKSt3__122__compressed_pair_elemINS_12basic_stringIcNS_11char_traitsIcEENS_9allocatorIcEEE5__repELi0ELb0EE5__getB8ue170006Ev, symObjAddr: 0x6310, symBinAddr: 0x100007468, symSize: 0x14 }
  - { offsetInCU: 0xE566, offset: 0xE566, size: 0x8, addend: 0x0, symName: __ZNSt3__114pointer_traitsIPKcE10pointer_toB8ue170006ERS1_, symObjAddr: 0x6324, symBinAddr: 0x10000747C, symSize: 0x14 }
  - { offsetInCU: 0xE589, offset: 0xE589, size: 0x8, addend: 0x0, symName: __ZNSt3__119ostreambuf_iteratorIcNS_11char_traitsIcEEEC2B8ue170006ERNS_13basic_ostreamIcS2_EE, symObjAddr: 0x6338, symBinAddr: 0x100007490, symSize: 0x68 }
  - { offsetInCU: 0xE5C1, offset: 0xE5C1, size: 0x8, addend: 0x0, symName: __ZNKSt3__19basic_iosIcNS_11char_traitsIcEEE5rdbufB8ue170006Ev, symObjAddr: 0x63A0, symBinAddr: 0x1000074F8, symSize: 0x24 }
  - { offsetInCU: 0xE5E9, offset: 0xE5E9, size: 0x8, addend: 0x0, symName: __ZNKSt3__18ios_base5rdbufB8ue170006Ev, symObjAddr: 0x63C4, symBinAddr: 0x10000751C, symSize: 0x18 }
  - { offsetInCU: 0xE60F, offset: 0xE60F, size: 0x8, addend: 0x0, symName: __ZNSt3__111char_traitsIcE11eq_int_typeB8ue170006Eii, symObjAddr: 0x63DC, symBinAddr: 0x100007534, symSize: 0x28 }
  - { offsetInCU: 0xE642, offset: 0xE642, size: 0x8, addend: 0x0, symName: __ZNSt3__111char_traitsIcE3eofB8ue170006Ev, symObjAddr: 0x6404, symBinAddr: 0x10000755C, symSize: 0x8 }
  - { offsetInCU: 0xE656, offset: 0xE656, size: 0x8, addend: 0x0, symName: __ZNKSt3__19basic_iosIcNS_11char_traitsIcEEE5widenB8ue170006Ec, symObjAddr: 0x640C, symBinAddr: 0x100007564, symSize: 0x8C }
  - { offsetInCU: 0xE6BF, offset: 0xE6BF, size: 0x8, addend: 0x0, symName: __ZNKSt3__15ctypeIcE5widenB8ue170006Ec, symObjAddr: 0x64C4, symBinAddr: 0x10000761C, symSize: 0x38 }
  - { offsetInCU: 0xE6F4, offset: 0xE6F4, size: 0x8, addend: 0x0, symName: __ZNSt3__18ios_base8setstateB8ue170006Ej, symObjAddr: 0x64FC, symBinAddr: 0x100007654, symSize: 0x34 }
...
