---
triple:          'arm64-apple-darwin'
binary-path:     '/Users/kajalbormon/Developer/Code/HakerRank/Inherited_Code/output/inherited_code'
relocations:
  - { offsetInCU: 0x33D8, offset: 0x33D8, size: 0x8, addend: 0x0, symName: __ZNSt3__124__put_character_sequenceB8ue170006IcNS_11char_traitsIcEEEERNS_13basic_ostreamIT_T0_EES7_PKS4_m, symObjAddr: 0x1590, symBinAddr: 0x1000032CC, symSize: 0x1F4 }
  - { offsetInCU: 0x4C82, offset: 0x4C82, size: 0x8, addend: 0x0, symName: __ZNSt3__1rsB8ue170006IcNS_11char_traitsIcEENS_9allocatorIcEEEERNS_13basic_istreamIT_T0_EES9_RNS_12basic_stringIS6_S7_T1_EE, symObjAddr: 0x400, symBinAddr: 0x10000213C, symSize: 0x324 }
  - { offsetInCU: 0x4D51, offset: 0x4D51, size: 0x8, addend: 0x0, symName: __ZNSt3__1lsB8ue170006INS_11char_traitsIcEEEERNS_13basic_ostreamIcT_EES6_c, symObjAddr: 0x730, symBinAddr: 0x10000246C, symSize: 0x34 }
  - { offsetInCU: 0x4D97, offset: 0x4D97, size: 0x8, addend: 0x0, symName: __ZNSt3__1lsB8ue170006INS_11char_traitsIcEEEERNS_13basic_ostreamIcT_EES6_PKc, symObjAddr: 0x764, symBinAddr: 0x1000024A0, symSize: 0x48 }
  - { offsetInCU: 0x4DDD, offset: 0x4DDD, size: 0x8, addend: 0x0, symName: __ZNSt3__130__libcpp_is_constant_evaluatedB8ue170006Ev, symObjAddr: 0x908, symBinAddr: 0x100002644, symSize: 0xC }
  - { offsetInCU: 0x4E2D, offset: 0x4E2D, size: 0x8, addend: 0x0, symName: __ZNSt3__117__libcpp_allocateB8ue170006Emm, symObjAddr: 0xEF8, symBinAddr: 0x100002C34, symSize: 0x28 }
  - { offsetInCU: 0x4E6A, offset: 0x4E6A, size: 0x8, addend: 0x0, symName: __ZNSt3__121__libcpp_operator_newB8ue170006IJmEEEPvDpT_, symObjAddr: 0xF34, symBinAddr: 0x100002C70, symSize: 0x24 }
  - { offsetInCU: 0x563A, offset: 0x563A, size: 0x8, addend: 0x0, symName: __ZNSt3__19use_facetB8ue170006INS_5ctypeIcEEEERKT_RKNS_6localeE, symObjAddr: 0x10FC, symBinAddr: 0x100002E38, symSize: 0x2C }
  - { offsetInCU: 0x5C1A, offset: 0x5C1A, size: 0x8, addend: 0x0, symName: __ZNSt3__116__pad_and_outputB8ue170006IcNS_11char_traitsIcEEEENS_19ostreambuf_iteratorIT_T0_EES6_PKS4_S8_S8_RNS_8ios_baseES4_, symObjAddr: 0x17E8, symBinAddr: 0x100003524, symSize: 0x248 }
  - { offsetInCU: 0x5CE9, offset: 0x5CE9, size: 0x8, addend: 0x0, symName: __ZNSt3__112__to_addressB8ue170006IKcEEPT_S3_, symObjAddr: 0x1BF0, symBinAddr: 0x10000392C, symSize: 0x14 }
  - { offsetInCU: 0x5D51, offset: 0x5D51, size: 0x8, addend: 0x0, symName: __ZNSt3__118__constexpr_strlenB8ue170006EPKc, symObjAddr: 0x1DE8, symBinAddr: 0x100003B24, symSize: 0x24 }
  - { offsetInCU: 0x5D7E, offset: 0x5D7E, size: 0x8, addend: 0x0, symName: __ZSt28__throw_bad_array_new_lengthB8ue170006v, symObjAddr: 0xEC4, symBinAddr: 0x100002C00, symSize: 0x34 }
  - { offsetInCU: 0x83AA, offset: 0x83AA, size: 0x8, addend: 0x0, symName: __Z13checkUsernameNSt3__112basic_stringIcNS_11char_traitsIcEENS_9allocatorIcEEEE, symObjAddr: 0x0, symBinAddr: 0x100001D3C, symSize: 0x130 }
  - { offsetInCU: 0x840F, offset: 0x840F, size: 0x8, addend: 0x0, symName: __ZNKSt3__112basic_stringIcNS_11char_traitsIcEENS_9allocatorIcEEE6lengthB8ue170006Ev, symObjAddr: 0x130, symBinAddr: 0x100001E6C, symSize: 0x24 }
  - { offsetInCU: 0x8433, offset: 0x8433, size: 0x8, addend: 0x0, symName: __ZN18BadLengthExceptionC1Ei, symObjAddr: 0x154, symBinAddr: 0x100001E90, symSize: 0x34 }
  - { offsetInCU: 0x8469, offset: 0x8469, size: 0x8, addend: 0x0, symName: __ZNSt3__112basic_stringIcNS_11char_traitsIcEENS_9allocatorIcEEEixB8ue170006Em, symObjAddr: 0x188, symBinAddr: 0x100001EC4, symSize: 0x30 }
  - { offsetInCU: 0x849C, offset: 0x849C, size: 0x8, addend: 0x0, symName: _main, symObjAddr: 0x1B8, symBinAddr: 0x100001EF4, symSize: 0x21C }
  - { offsetInCU: 0x84FB, offset: 0x84FB, size: 0x8, addend: 0x0, symName: __ZNSt3__112basic_stringIcNS_11char_traitsIcEENS_9allocatorIcEEEC1B8ue170006Ev, symObjAddr: 0x3D4, symBinAddr: 0x100002110, symSize: 0x2C }
  - { offsetInCU: 0x8524, offset: 0x8524, size: 0x8, addend: 0x0, symName: __ZNK18BadLengthException4whatEv, symObjAddr: 0x7AC, symBinAddr: 0x1000024E8, symSize: 0x18 }
  - { offsetInCU: 0x8548, offset: 0x8548, size: 0x8, addend: 0x0, symName: __ZN18BadLengthExceptionC2Ei, symObjAddr: 0x7C4, symBinAddr: 0x100002500, symSize: 0x20 }
  - { offsetInCU: 0x857E, offset: 0x857E, size: 0x8, addend: 0x0, symName: __ZNKSt3__112basic_stringIcNS_11char_traitsIcEENS_9allocatorIcEEE4sizeB8ue170006Ev, symObjAddr: 0x7E4, symBinAddr: 0x100002520, symSize: 0x54 }
  - { offsetInCU: 0x85A2, offset: 0x85A2, size: 0x8, addend: 0x0, symName: __ZNKSt3__112basic_stringIcNS_11char_traitsIcEENS_9allocatorIcEEE9__is_longB8ue170006Ev, symObjAddr: 0x838, symBinAddr: 0x100002574, symSize: 0x74 }
  - { offsetInCU: 0x85C6, offset: 0x85C6, size: 0x8, addend: 0x0, symName: __ZNKSt3__112basic_stringIcNS_11char_traitsIcEENS_9allocatorIcEEE15__get_long_sizeB8ue170006Ev, symObjAddr: 0x8AC, symBinAddr: 0x1000025E8, symSize: 0x28 }
  - { offsetInCU: 0x85EA, offset: 0x85EA, size: 0x8, addend: 0x0, symName: __ZNKSt3__112basic_stringIcNS_11char_traitsIcEENS_9allocatorIcEEE16__get_short_sizeB8ue170006Ev, symObjAddr: 0x8D4, symBinAddr: 0x100002610, symSize: 0x34 }
  - { offsetInCU: 0x860E, offset: 0x860E, size: 0x8, addend: 0x0, symName: __ZNKSt3__117__compressed_pairINS_12basic_stringIcNS_11char_traitsIcEENS_9allocatorIcEEE5__repES5_E5firstB8ue170006Ev, symObjAddr: 0x914, symBinAddr: 0x100002650, symSize: 0x24 }
  - { offsetInCU: 0x8633, offset: 0x8633, size: 0x8, addend: 0x0, symName: __ZNKSt3__122__compressed_pair_elemINS_12basic_stringIcNS_11char_traitsIcEENS_9allocatorIcEEE5__repELi0ELb0EE5__getB8ue170006Ev, symObjAddr: 0x938, symBinAddr: 0x100002674, symSize: 0x14 }
  - { offsetInCU: 0x8656, offset: 0x8656, size: 0x8, addend: 0x0, symName: __ZNSt3__112basic_stringIcNS_11char_traitsIcEENS_9allocatorIcEEE13__get_pointerB8ue170006Ev, symObjAddr: 0x94C, symBinAddr: 0x100002688, symSize: 0x54 }
  - { offsetInCU: 0x867A, offset: 0x867A, size: 0x8, addend: 0x0, symName: __ZNSt3__112basic_stringIcNS_11char_traitsIcEENS_9allocatorIcEEE18__get_long_pointerB8ue170006Ev, symObjAddr: 0x9A0, symBinAddr: 0x1000026DC, symSize: 0x28 }
  - { offsetInCU: 0x869E, offset: 0x869E, size: 0x8, addend: 0x0, symName: __ZNSt3__112basic_stringIcNS_11char_traitsIcEENS_9allocatorIcEEE19__get_short_pointerB8ue170006Ev, symObjAddr: 0x9C8, symBinAddr: 0x100002704, symSize: 0x28 }
  - { offsetInCU: 0x86C2, offset: 0x86C2, size: 0x8, addend: 0x0, symName: __ZNSt3__117__compressed_pairINS_12basic_stringIcNS_11char_traitsIcEENS_9allocatorIcEEE5__repES5_E5firstB8ue170006Ev, symObjAddr: 0x9F0, symBinAddr: 0x10000272C, symSize: 0x24 }
  - { offsetInCU: 0x86E7, offset: 0x86E7, size: 0x8, addend: 0x0, symName: __ZNSt3__122__compressed_pair_elemINS_12basic_stringIcNS_11char_traitsIcEENS_9allocatorIcEEE5__repELi0ELb0EE5__getB8ue170006Ev, symObjAddr: 0xA14, symBinAddr: 0x100002750, symSize: 0x14 }
  - { offsetInCU: 0x870B, offset: 0x870B, size: 0x8, addend: 0x0, symName: __ZNSt3__114pointer_traitsIPcE10pointer_toB8ue170006ERc, symObjAddr: 0xA28, symBinAddr: 0x100002764, symSize: 0x14 }
  - { offsetInCU: 0x872D, offset: 0x872D, size: 0x8, addend: 0x0, symName: __ZNSt3__112basic_stringIcNS_11char_traitsIcEENS_9allocatorIcEEEC2B8ue170006Ev, symObjAddr: 0xA3C, symBinAddr: 0x100002778, symSize: 0x3C }
  - { offsetInCU: 0x875A, offset: 0x875A, size: 0x8, addend: 0x0, symName: __ZNSt3__117__compressed_pairINS_12basic_stringIcNS_11char_traitsIcEENS_9allocatorIcEEE5__repES5_EC1B8ue170006INS_18__default_init_tagESA_EEOT_OT0_, symObjAddr: 0xA78, symBinAddr: 0x1000027B4, symSize: 0x3C }
  - { offsetInCU: 0x87B0, offset: 0x87B0, size: 0x8, addend: 0x0, symName: __ZNSt3__112basic_stringIcNS_11char_traitsIcEENS_9allocatorIcEEE14__default_initB8ue170006Ev, symObjAddr: 0xAB4, symBinAddr: 0x1000027F0, symSize: 0xB0 }
  - { offsetInCU: 0x8800, offset: 0x8800, size: 0x8, addend: 0x0, symName: __ZNSt3__117__compressed_pairINS_12basic_stringIcNS_11char_traitsIcEENS_9allocatorIcEEE5__repES5_EC2B8ue170006INS_18__default_init_tagESA_EEOT_OT0_, symObjAddr: 0xB64, symBinAddr: 0x1000028A0, symSize: 0x3C }
  - { offsetInCU: 0x8857, offset: 0x8857, size: 0x8, addend: 0x0, symName: __ZNSt3__122__compressed_pair_elemINS_12basic_stringIcNS_11char_traitsIcEENS_9allocatorIcEEE5__repELi0ELb0EEC2B8ue170006ENS_18__default_init_tagE, symObjAddr: 0xBA0, symBinAddr: 0x1000028DC, symSize: 0x14 }
  - { offsetInCU: 0x888A, offset: 0x888A, size: 0x8, addend: 0x0, symName: __ZNSt3__122__compressed_pair_elemINS_9allocatorIcEELi1ELb1EEC2B8ue170006ENS_18__default_init_tagE, symObjAddr: 0xBB4, symBinAddr: 0x1000028F0, symSize: 0x2C }
  - { offsetInCU: 0x88BD, offset: 0x88BD, size: 0x8, addend: 0x0, symName: __ZNSt3__19allocatorIcEC2B8ue170006Ev, symObjAddr: 0xBE0, symBinAddr: 0x10000291C, symSize: 0x2C }
  - { offsetInCU: 0x88E6, offset: 0x88E6, size: 0x8, addend: 0x0, symName: __ZNSt3__116__non_trivial_ifILb1ENS_9allocatorIcEEEC2B8ue170006Ev, symObjAddr: 0xC0C, symBinAddr: 0x100002948, symSize: 0x14 }
  - { offsetInCU: 0x890F, offset: 0x890F, size: 0x8, addend: 0x0, symName: __ZNSt3__112basic_stringIcNS_11char_traitsIcEENS_9allocatorIcEEE11__recommendB8ue170006Em, symObjAddr: 0xC20, symBinAddr: 0x10000295C, symSize: 0x9C }
  - { offsetInCU: 0x8942, offset: 0x8942, size: 0x8, addend: 0x0, symName: __ZNSt3__116allocator_traitsINS_9allocatorIcEEE8allocateB8ue170006ERS2_m, symObjAddr: 0xCBC, symBinAddr: 0x1000029F8, symSize: 0x2C }
  - { offsetInCU: 0x8974, offset: 0x8974, size: 0x8, addend: 0x0, symName: __ZNSt3__112basic_stringIcNS_11char_traitsIcEENS_9allocatorIcEEE7__allocB8ue170006Ev, symObjAddr: 0xCE8, symBinAddr: 0x100002A24, symSize: 0x24 }
  - { offsetInCU: 0x8999, offset: 0x8999, size: 0x8, addend: 0x0, symName: __ZNSt3__112basic_stringIcNS_11char_traitsIcEENS_9allocatorIcEEE16__begin_lifetimeB8ue170006EPcm, symObjAddr: 0xD0C, symBinAddr: 0x100002A48, symSize: 0x14 }
  - { offsetInCU: 0x89CB, offset: 0x89CB, size: 0x8, addend: 0x0, symName: __ZNSt3__112basic_stringIcNS_11char_traitsIcEENS_9allocatorIcEEE18__set_long_pointerB8ue170006EPc, symObjAddr: 0xD20, symBinAddr: 0x100002A5C, symSize: 0x38 }
  - { offsetInCU: 0x89FE, offset: 0x89FE, size: 0x8, addend: 0x0, symName: __ZNSt3__112basic_stringIcNS_11char_traitsIcEENS_9allocatorIcEEE14__set_long_capB8ue170006Em, symObjAddr: 0xD58, symBinAddr: 0x100002A94, symSize: 0x70 }
  - { offsetInCU: 0x8A31, offset: 0x8A31, size: 0x8, addend: 0x0, symName: __ZNSt3__112basic_stringIcNS_11char_traitsIcEENS_9allocatorIcEEE15__set_long_sizeB8ue170006Em, symObjAddr: 0xDC8, symBinAddr: 0x100002B04, symSize: 0x38 }
  - { offsetInCU: 0x8A65, offset: 0x8A65, size: 0x8, addend: 0x0, symName: __ZNSt3__112basic_stringIcNS_11char_traitsIcEENS_9allocatorIcEEE10__align_itB8ue170006ILm16EEEmm, symObjAddr: 0xE00, symBinAddr: 0x100002B3C, symSize: 0x1C }
  - { offsetInCU: 0x8A92, offset: 0x8A92, size: 0x8, addend: 0x0, symName: __ZNSt3__19allocatorIcE8allocateB8ue170006Em, symObjAddr: 0xE1C, symBinAddr: 0x100002B58, symSize: 0x84 }
  - { offsetInCU: 0x8ACF, offset: 0x8ACF, size: 0x8, addend: 0x0, symName: __ZNSt3__116allocator_traitsINS_9allocatorIcEEE8max_sizeB8ue170006IS2_vEEmRKS2_, symObjAddr: 0xEA0, symBinAddr: 0x100002BDC, symSize: 0x24 }
  - { offsetInCU: 0x8AFD, offset: 0x8AFD, size: 0x8, addend: 0x0, symName: __ZNKSt3__19allocatorIcE8max_sizeB8ue170006Ev, symObjAddr: 0xF20, symBinAddr: 0x100002C5C, symSize: 0x14 }
  - { offsetInCU: 0x8B20, offset: 0x8B20, size: 0x8, addend: 0x0, symName: __ZNSt3__117__compressed_pairINS_12basic_stringIcNS_11char_traitsIcEENS_9allocatorIcEEE5__repES5_E6secondB8ue170006Ev, symObjAddr: 0xF58, symBinAddr: 0x100002C94, symSize: 0x24 }
  - { offsetInCU: 0x8B45, offset: 0x8B45, size: 0x8, addend: 0x0, symName: __ZNSt3__122__compressed_pair_elemINS_9allocatorIcEELi1ELb1EE5__getB8ue170006Ev, symObjAddr: 0xF7C, symBinAddr: 0x100002CB8, symSize: 0x14 }
  - { offsetInCU: 0x8C10, offset: 0x8C10, size: 0x8, addend: 0x0, symName: __ZNKSt3__113basic_istreamIcNS_11char_traitsIcEEE6sentrycvbB8ue170006Ev, symObjAddr: 0xF90, symBinAddr: 0x100002CCC, symSize: 0x1C }
  - { offsetInCU: 0x8C34, offset: 0x8C34, size: 0x8, addend: 0x0, symName: __ZNSt3__112basic_stringIcNS_11char_traitsIcEENS_9allocatorIcEEE5clearB8ue170006Ev, symObjAddr: 0xFAC, symBinAddr: 0x100002CE8, symSize: 0x78 }
  - { offsetInCU: 0x8C5B, offset: 0x8C5B, size: 0x8, addend: 0x0, symName: __ZNKSt3__18ios_base5widthB8ue170006Ev, symObjAddr: 0x1024, symBinAddr: 0x100002D60, symSize: 0x18 }
  - { offsetInCU: 0x8C81, offset: 0x8C81, size: 0x8, addend: 0x0, symName: __ZNKSt3__112basic_stringIcNS_11char_traitsIcEENS_9allocatorIcEEE8max_sizeB8ue170006Ev, symObjAddr: 0x103C, symBinAddr: 0x100002D78, symSize: 0xAC }
  - { offsetInCU: 0x8CD2, offset: 0x8CD2, size: 0x8, addend: 0x0, symName: __ZNSt3__114numeric_limitsIlE3maxB8ue170006Ev, symObjAddr: 0x10E8, symBinAddr: 0x100002E24, symSize: 0x14 }
  - { offsetInCU: 0x8CE6, offset: 0x8CE6, size: 0x8, addend: 0x0, symName: __ZNKSt3__19basic_iosIcNS_11char_traitsIcEEE5rdbufB8ue170006Ev, symObjAddr: 0x1128, symBinAddr: 0x100002E64, symSize: 0x24 }
  - { offsetInCU: 0x8D0C, offset: 0x8D0C, size: 0x8, addend: 0x0, symName: __ZNSt3__115basic_streambufIcNS_11char_traitsIcEEE5sgetcB8ue170006Ev, symObjAddr: 0x114C, symBinAddr: 0x100002E88, symSize: 0x70 }
  - { offsetInCU: 0x8D31, offset: 0x8D31, size: 0x8, addend: 0x0, symName: __ZNSt3__111char_traitsIcE11eq_int_typeB8ue170006Eii, symObjAddr: 0x11BC, symBinAddr: 0x100002EF8, symSize: 0x28 }
  - { offsetInCU: 0x8D64, offset: 0x8D64, size: 0x8, addend: 0x0, symName: __ZNSt3__111char_traitsIcE3eofB8ue170006Ev, symObjAddr: 0x11E4, symBinAddr: 0x100002F20, symSize: 0x8 }
  - { offsetInCU: 0x8D78, offset: 0x8D78, size: 0x8, addend: 0x0, symName: __ZNSt3__111char_traitsIcE12to_char_typeB8ue170006Ei, symObjAddr: 0x11EC, symBinAddr: 0x100002F28, symSize: 0x18 }
  - { offsetInCU: 0x8DC7, offset: 0x8DC7, size: 0x8, addend: 0x0, symName: __ZNKSt3__15ctypeIcE2isB8ue170006Ejc, symObjAddr: 0x1204, symBinAddr: 0x100002F40, symSize: 0x7C }
  - { offsetInCU: 0x8E09, offset: 0x8E09, size: 0x8, addend: 0x0, symName: __ZNSt3__115basic_streambufIcNS_11char_traitsIcEEE6sbumpcB8ue170006Ev, symObjAddr: 0x1280, symBinAddr: 0x100002FBC, symSize: 0x78 }
  - { offsetInCU: 0x8E2E, offset: 0x8E2E, size: 0x8, addend: 0x0, symName: __ZNSt3__18ios_base5widthB8ue170006El, symObjAddr: 0x12F8, symBinAddr: 0x100003034, symSize: 0x2C }
  - { offsetInCU: 0x8E73, offset: 0x8E73, size: 0x8, addend: 0x0, symName: __ZNSt3__18ios_base18__setstate_nothrowB8ue170006Ej, symObjAddr: 0x1324, symBinAddr: 0x100003060, symSize: 0x64 }
  - { offsetInCU: 0x8EA5, offset: 0x8EA5, size: 0x8, addend: 0x0, symName: __ZNKSt3__19basic_iosIcNS_11char_traitsIcEEE10exceptionsB8ue170006Ev, symObjAddr: 0x1388, symBinAddr: 0x1000030C4, symSize: 0x24 }
  - { offsetInCU: 0x8EC9, offset: 0x8EC9, size: 0x8, addend: 0x0, symName: __ZNSt3__19basic_iosIcNS_11char_traitsIcEEE8setstateB8ue170006Ej, symObjAddr: 0x13AC, symBinAddr: 0x1000030E8, symSize: 0x2C }
  - { offsetInCU: 0x8EFD, offset: 0x8EFD, size: 0x8, addend: 0x0, symName: __ZNSt3__111char_traitsIcE6assignB8ue170006ERcRKc, symObjAddr: 0x13D8, symBinAddr: 0x100003114, symSize: 0x24 }
  - { offsetInCU: 0x8F2D, offset: 0x8F2D, size: 0x8, addend: 0x0, symName: __ZNSt3__112basic_stringIcNS_11char_traitsIcEENS_9allocatorIcEEE16__set_short_sizeB8ue170006Em, symObjAddr: 0x13FC, symBinAddr: 0x100003138, symSize: 0x78 }
  - { offsetInCU: 0x8F60, offset: 0x8F60, size: 0x8, addend: 0x0, symName: __ZNKSt3__112basic_stringIcNS_11char_traitsIcEENS_9allocatorIcEEE7__allocB8ue170006Ev, symObjAddr: 0x1474, symBinAddr: 0x1000031B0, symSize: 0x24 }
  - { offsetInCU: 0x8F85, offset: 0x8F85, size: 0x8, addend: 0x0, symName: __ZNSt3__114numeric_limitsImE3maxB8ue170006Ev, symObjAddr: 0x1498, symBinAddr: 0x1000031D4, symSize: 0x14 }
  - { offsetInCU: 0x8F98, offset: 0x8F98, size: 0x8, addend: 0x0, symName: __ZNKSt3__117__compressed_pairINS_12basic_stringIcNS_11char_traitsIcEENS_9allocatorIcEEE5__repES5_E6secondB8ue170006Ev, symObjAddr: 0x14AC, symBinAddr: 0x1000031E8, symSize: 0x24 }
  - { offsetInCU: 0x8FBD, offset: 0x8FBD, size: 0x8, addend: 0x0, symName: __ZNKSt3__122__compressed_pair_elemINS_9allocatorIcEELi1ELb1EE5__getB8ue170006Ev, symObjAddr: 0x14D0, symBinAddr: 0x10000320C, symSize: 0x14 }
  - { offsetInCU: 0x8FE1, offset: 0x8FE1, size: 0x8, addend: 0x0, symName: __ZNSt3__123__libcpp_numeric_limitsImLb1EE3maxB8ue170006Ev, symObjAddr: 0x14E4, symBinAddr: 0x100003220, symSize: 0x8 }
  - { offsetInCU: 0x8FF5, offset: 0x8FF5, size: 0x8, addend: 0x0, symName: __ZNSt3__123__libcpp_numeric_limitsIlLb1EE3maxB8ue170006Ev, symObjAddr: 0x14EC, symBinAddr: 0x100003228, symSize: 0x8 }
  - { offsetInCU: 0x9009, offset: 0x9009, size: 0x8, addend: 0x0, symName: __ZNKSt3__18ios_base5rdbufB8ue170006Ev, symObjAddr: 0x14F4, symBinAddr: 0x100003230, symSize: 0x18 }
  - { offsetInCU: 0x902D, offset: 0x902D, size: 0x8, addend: 0x0, symName: __ZNSt3__111char_traitsIcE11to_int_typeB8ue170006Ec, symObjAddr: 0x150C, symBinAddr: 0x100003248, symSize: 0x14 }
  - { offsetInCU: 0x9050, offset: 0x9050, size: 0x8, addend: 0x0, symName: __Z7isasciii, symObjAddr: 0x1520, symBinAddr: 0x10000325C, symSize: 0x24 }
  - { offsetInCU: 0x907D, offset: 0x907D, size: 0x8, addend: 0x0, symName: __ZNKSt3__18ios_base10exceptionsB8ue170006Ev, symObjAddr: 0x1544, symBinAddr: 0x100003280, symSize: 0x18 }
  - { offsetInCU: 0x90A4, offset: 0x90A4, size: 0x8, addend: 0x0, symName: __ZNSt3__18ios_base8setstateB8ue170006Ej, symObjAddr: 0x155C, symBinAddr: 0x100003298, symSize: 0x34 }
  - { offsetInCU: 0x90DA, offset: 0x90DA, size: 0x8, addend: 0x0, symName: __ZNSt3__111char_traitsIcE6lengthB8ue170006EPKc, symObjAddr: 0x1784, symBinAddr: 0x1000034C0, symSize: 0x48 }
  - { offsetInCU: 0x911B, offset: 0x911B, size: 0x8, addend: 0x0, symName: __ZNKSt3__113basic_ostreamIcNS_11char_traitsIcEEE6sentrycvbB8ue170006Ev, symObjAddr: 0x17CC, symBinAddr: 0x100003508, symSize: 0x1C }
  - { offsetInCU: 0x913E, offset: 0x913E, size: 0x8, addend: 0x0, symName: __ZNSt3__119ostreambuf_iteratorIcNS_11char_traitsIcEEEC1B8ue170006ERNS_13basic_ostreamIcS2_EE, symObjAddr: 0x1A30, symBinAddr: 0x10000376C, symSize: 0x34 }
  - { offsetInCU: 0x9175, offset: 0x9175, size: 0x8, addend: 0x0, symName: __ZNKSt3__18ios_base5flagsB8ue170006Ev, symObjAddr: 0x1A64, symBinAddr: 0x1000037A0, symSize: 0x18 }
  - { offsetInCU: 0x919C, offset: 0x919C, size: 0x8, addend: 0x0, symName: __ZNKSt3__19basic_iosIcNS_11char_traitsIcEEE4fillB8ue170006Ev, symObjAddr: 0x1A7C, symBinAddr: 0x1000037B8, symSize: 0x64 }
  - { offsetInCU: 0x91C3, offset: 0x91C3, size: 0x8, addend: 0x0, symName: __ZNKSt3__119ostreambuf_iteratorIcNS_11char_traitsIcEEE6failedB8ue170006Ev, symObjAddr: 0x1AE0, symBinAddr: 0x10000381C, symSize: 0x24 }
  - { offsetInCU: 0x91E6, offset: 0x91E6, size: 0x8, addend: 0x0, symName: __ZNSt3__115basic_streambufIcNS_11char_traitsIcEEE5sputnB8ue170006EPKcl, symObjAddr: 0x1B04, symBinAddr: 0x100003840, symSize: 0x3C }
  - { offsetInCU: 0x9226, offset: 0x9226, size: 0x8, addend: 0x0, symName: __ZNSt3__112basic_stringIcNS_11char_traitsIcEENS_9allocatorIcEEEC1B8ue170006Emc, symObjAddr: 0x1B40, symBinAddr: 0x10000387C, symSize: 0x3C }
  - { offsetInCU: 0x926C, offset: 0x926C, size: 0x8, addend: 0x0, symName: __ZNKSt3__112basic_stringIcNS_11char_traitsIcEENS_9allocatorIcEEE4dataB8ue170006Ev, symObjAddr: 0x1B7C, symBinAddr: 0x1000038B8, symSize: 0x28 }
  - { offsetInCU: 0x9290, offset: 0x9290, size: 0x8, addend: 0x0, symName: __ZNSt3__112basic_stringIcNS_11char_traitsIcEENS_9allocatorIcEEEC2B8ue170006Emc, symObjAddr: 0x1BA4, symBinAddr: 0x1000038E0, symSize: 0x4C }
  - { offsetInCU: 0x92D6, offset: 0x92D6, size: 0x8, addend: 0x0, symName: __ZNKSt3__112basic_stringIcNS_11char_traitsIcEENS_9allocatorIcEEE13__get_pointerB8ue170006Ev, symObjAddr: 0x1C04, symBinAddr: 0x100003940, symSize: 0x54 }
  - { offsetInCU: 0x92FA, offset: 0x92FA, size: 0x8, addend: 0x0, symName: __ZNKSt3__112basic_stringIcNS_11char_traitsIcEENS_9allocatorIcEEE18__get_long_pointerB8ue170006Ev, symObjAddr: 0x1C58, symBinAddr: 0x100003994, symSize: 0x28 }
  - { offsetInCU: 0x931E, offset: 0x931E, size: 0x8, addend: 0x0, symName: __ZNKSt3__112basic_stringIcNS_11char_traitsIcEENS_9allocatorIcEEE19__get_short_pointerB8ue170006Ev, symObjAddr: 0x1C80, symBinAddr: 0x1000039BC, symSize: 0x28 }
  - { offsetInCU: 0x9343, offset: 0x9343, size: 0x8, addend: 0x0, symName: __ZNSt3__114pointer_traitsIPKcE10pointer_toB8ue170006ERS1_, symObjAddr: 0x1CA8, symBinAddr: 0x1000039E4, symSize: 0x14 }
  - { offsetInCU: 0x9365, offset: 0x9365, size: 0x8, addend: 0x0, symName: __ZNSt3__119ostreambuf_iteratorIcNS_11char_traitsIcEEEC2B8ue170006ERNS_13basic_ostreamIcS2_EE, symObjAddr: 0x1CBC, symBinAddr: 0x1000039F8, symSize: 0x68 }
  - { offsetInCU: 0x939C, offset: 0x939C, size: 0x8, addend: 0x0, symName: __ZNKSt3__19basic_iosIcNS_11char_traitsIcEEE5widenB8ue170006Ec, symObjAddr: 0x1D24, symBinAddr: 0x100003A60, symSize: 0x8C }
  - { offsetInCU: 0x93D1, offset: 0x93D1, size: 0x8, addend: 0x0, symName: __ZNKSt3__15ctypeIcE5widenB8ue170006Ec, symObjAddr: 0x1DB0, symBinAddr: 0x100003AEC, symSize: 0x38 }
...
