---
triple:          'arm64-apple-darwin'
binary-path:     '/Users/kajalbormon/Developer/Code/HakerRank/Hotel_Prices/output/Hotel_Prices'
relocations:
  - { offsetInCU: 0x5D9F, offset: 0x5D9F, size: 0x8, addend: 0x0, symName: __ZNSt3__1rsB8ue170006IcNS_11char_traitsIcEENS_9allocatorIcEEEERNS_13basic_istreamIT_T0_EES9_RNS_12basic_stringIS6_S7_T1_EE, symObjAddr: 0x38C, symBinAddr: 0x1000042F0, symSize: 0x324 }
  - { offsetInCU: 0x5E6E, offset: 0x5E6E, size: 0x8, addend: 0x0, symName: __ZNSt3__1eqB8ue170006IcNS_11char_traitsIcEENS_9allocatorIcEEEEbRKNS_12basic_stringIT_T0_T1_EEPKS6_, symObjAddr: 0x6B0, symBinAddr: 0x100004614, symSize: 0xC0 }
  - { offsetInCU: 0x5ED5, offset: 0x5ED5, size: 0x8, addend: 0x0, symName: __ZNSt3__1neB8ue170006IPP9HotelRoomEEbRKNS_11__wrap_iterIT_EES8_, symObjAddr: 0x8C0, symBinAddr: 0x100004824, symSize: 0x34 }
  - { offsetInCU: 0x65BC, offset: 0x65BC, size: 0x8, addend: 0x0, symName: __ZNSt3__14endlB8ue170006IcNS_11char_traitsIcEEEERNS_13basic_ostreamIT_T0_EES7_, symObjAddr: 0x958, symBinAddr: 0x1000048BC, symSize: 0x58 }
  - { offsetInCU: 0x65FC, offset: 0x65FC, size: 0x8, addend: 0x0, symName: __ZNSt3__112__to_addressB8ue170006IP9HotelRoomEEPT_S4_, symObjAddr: 0x1100, symBinAddr: 0x100005064, symSize: 0x14 }
  - { offsetInCU: 0x6631, offset: 0x6631, size: 0x8, addend: 0x0, symName: __ZNSt3__130__libcpp_is_constant_evaluatedB8ue170006Ev, symObjAddr: 0x1208, symBinAddr: 0x10000516C, symSize: 0xC }
  - { offsetInCU: 0x664E, offset: 0x664E, size: 0x8, addend: 0x0, symName: __ZNSt3__119__libcpp_deallocateB8ue170006EPvmm, symObjAddr: 0x1214, symBinAddr: 0x100005178, symSize: 0x30 }
  - { offsetInCU: 0x6696, offset: 0x6696, size: 0x8, addend: 0x0, symName: __ZNSt3__127__do_deallocate_handle_sizeB8ue170006IJEEEvPvmDpT_, symObjAddr: 0x1244, symBinAddr: 0x1000051A8, symSize: 0x28 }
  - { offsetInCU: 0x66D4, offset: 0x66D4, size: 0x8, addend: 0x0, symName: __ZNSt3__124__libcpp_operator_deleteB8ue170006IJPvEEEvDpT_, symObjAddr: 0x126C, symBinAddr: 0x1000051D0, symSize: 0x24 }
  - { offsetInCU: 0x6709, offset: 0x6709, size: 0x8, addend: 0x0, symName: __ZNSt3__117__libcpp_allocateB8ue170006Emm, symObjAddr: 0x181C, symBinAddr: 0x100005780, symSize: 0x28 }
  - { offsetInCU: 0x6746, offset: 0x6746, size: 0x8, addend: 0x0, symName: __ZNSt3__121__libcpp_operator_newB8ue170006IJmEEEPvDpT_, symObjAddr: 0x1858, symBinAddr: 0x1000057BC, symSize: 0x24 }
  - { offsetInCU: 0x6F16, offset: 0x6F16, size: 0x8, addend: 0x0, symName: __ZNSt3__19use_facetB8ue170006INS_5ctypeIcEEEERKT_RKNS_6localeE, symObjAddr: 0x1A20, symBinAddr: 0x100005984, symSize: 0x2C }
  - { offsetInCU: 0x7529, offset: 0x7529, size: 0x8, addend: 0x0, symName: __ZNSt3__118__constexpr_strlenB8ue170006EPKc, symObjAddr: 0x2060, symBinAddr: 0x100005FC4, symSize: 0x24 }
  - { offsetInCU: 0x7555, offset: 0x7555, size: 0x8, addend: 0x0, symName: __ZNSt3__13maxB8ue170006ImEERKT_S3_S3_, symObjAddr: 0x26A4, symBinAddr: 0x100006608, symSize: 0x2C }
  - { offsetInCU: 0x7598, offset: 0x7598, size: 0x8, addend: 0x0, symName: __ZNSt3__13minB8ue170006ImEERKT_S3_S3_, symObjAddr: 0x26D0, symBinAddr: 0x100006634, symSize: 0x2C }
  - { offsetInCU: 0x75DB, offset: 0x75DB, size: 0x8, addend: 0x0, symName: __ZNSt3__13minB8ue170006ImNS_6__lessIvvEEEERKT_S5_S5_T0_, symObjAddr: 0x2748, symBinAddr: 0x1000066AC, symSize: 0x54 }
  - { offsetInCU: 0x767A, offset: 0x767A, size: 0x8, addend: 0x0, symName: __ZNSt3__120__throw_length_errorB8ue170006EPKc, symObjAddr: 0x281C, symBinAddr: 0x100006780, symSize: 0x64 }
  - { offsetInCU: 0x76A4, offset: 0x76A4, size: 0x8, addend: 0x0, symName: __ZNSt3__13maxB8ue170006ImNS_6__lessIvvEEEERKT_S5_S5_T0_, symObjAddr: 0x2900, symBinAddr: 0x100006864, symSize: 0x54 }
  - { offsetInCU: 0x76FE, offset: 0x76FE, size: 0x8, addend: 0x0, symName: __ZNSt3__119__allocate_at_leastB8ue170006INS_9allocatorIP9HotelRoomEEEENS_19__allocation_resultINS_16allocator_traitsIT_E7pointerEEERS7_m, symObjAddr: 0x2A64, symBinAddr: 0x1000069C8, symSize: 0x40 }
  - { offsetInCU: 0x7741, offset: 0x7741, size: 0x8, addend: 0x0, symName: __ZNSt3__142__uninitialized_allocator_move_if_noexceptB8ue170006INS_9allocatorIP9HotelRoomEENS_16reverse_iteratorIPS3_EES7_S3_vEET1_RT_T0_SB_S8_, symObjAddr: 0x2C44, symBinAddr: 0x100006BA8, symSize: 0xE8 }
  - { offsetInCU: 0x77BE, offset: 0x77BE, size: 0x8, addend: 0x0, symName: __ZNSt3__14swapB8ue170006IPP9HotelRoomEEvRT_S5_, symObjAddr: 0x2D78, symBinAddr: 0x100006CDC, symSize: 0x3C }
  - { offsetInCU: 0x780F, offset: 0x780F, size: 0x8, addend: 0x0, symName: __ZNSt3__1neB8ue170006IPP9HotelRoomS3_EEbRKNS_16reverse_iteratorIT_EERKNS4_IT0_EE, symObjAddr: 0x2E60, symBinAddr: 0x100006DC4, symSize: 0x48 }
  - { offsetInCU: 0x7880, offset: 0x7880, size: 0x8, addend: 0x0, symName: __ZNSt3__114__construct_atB8ue170006IP9HotelRoomJS2_EPS2_EEPT_S5_DpOT0_, symObjAddr: 0x2EA8, symBinAddr: 0x100006E0C, symSize: 0x2C }
  - { offsetInCU: 0x78F0, offset: 0x78F0, size: 0x8, addend: 0x0, symName: __ZNSt3__112__to_addressB8ue170006INS_16reverse_iteratorIPP9HotelRoomEEvEEu7__decayIDTclsr19__to_address_helperIT_EE6__callclsr3stdE7declvalIRKS6_EEEEES8_, symObjAddr: 0x2ED4, symBinAddr: 0x100006E38, symSize: 0x24 }
  - { offsetInCU: 0x7926, offset: 0x7926, size: 0x8, addend: 0x0, symName: __ZNSt3__14moveB8ue170006INS_16reverse_iteratorIPP9HotelRoomEES5_EET0_T_S7_S6_, symObjAddr: 0x2F40, symBinAddr: 0x100006EA4, symSize: 0x78 }
  - { offsetInCU: 0x79A9, offset: 0x79A9, size: 0x8, addend: 0x0, symName: __ZNSt3__16__moveB8ue170006INS_17_ClassicAlgPolicyENS_16reverse_iteratorIPP9HotelRoomEES6_S6_EENS_4pairIT0_T2_EES8_T1_S9_, symObjAddr: 0x3028, symBinAddr: 0x100006F8C, symSize: 0x64 }
  - { offsetInCU: 0x7A15, offset: 0x7A15, size: 0x8, addend: 0x0, symName: __ZNSt3__123__dispatch_copy_or_moveB8ue170006INS_17_ClassicAlgPolicyENS_11__move_loopIS1_EENS_14__move_trivialENS_16reverse_iteratorIPP9HotelRoomEES9_S9_EENS_4pairIT2_T4_EESB_T3_SC_, symObjAddr: 0x308C, symBinAddr: 0x100006FF0, symSize: 0x64 }
  - { offsetInCU: 0x7A93, offset: 0x7A93, size: 0x8, addend: 0x0, symName: __ZNSt3__121__unwrap_and_dispatchB8ue170006INS_10__overloadINS_11__move_loopINS_17_ClassicAlgPolicyEEENS_14__move_trivialEEENS_16reverse_iteratorIPP9HotelRoomEESB_SB_Li0EEENS_4pairIT0_T2_EESD_T1_SE_, symObjAddr: 0x30F0, symBinAddr: 0x100007054, symSize: 0x12C }
  - { offsetInCU: 0x7B23, offset: 0x7B23, size: 0x8, addend: 0x0, symName: __ZNSt3__114__unwrap_rangeB8ue170006INS_16reverse_iteratorIPP9HotelRoomEES5_EENS_4pairIT0_S7_EET_S9_, symObjAddr: 0x321C, symBinAddr: 0x100007180, symSize: 0x84 }
  - { offsetInCU: 0x7C77, offset: 0x7C77, size: 0x8, addend: 0x0, symName: __ZNSt3__113__unwrap_iterB8ue170006INS_16reverse_iteratorIPP9HotelRoomEENS_18__unwrap_iter_implIS5_Lb0EEELi0EEEDTclsrT0_8__unwrapclsr3stdE7declvalIT_EEEES9_, symObjAddr: 0x3340, symBinAddr: 0x1000072A4, symSize: 0x44 }
  - { offsetInCU: 0x7CBB, offset: 0x7CBB, size: 0x8, addend: 0x0, symName: __ZNSt3__19make_pairB8ue170006INS_16reverse_iteratorIPP9HotelRoomEES5_EENS_4pairINS_18__unwrap_ref_decayIT_E4typeENS7_IT0_E4typeEEEOS8_OSB_, symObjAddr: 0x3384, symBinAddr: 0x1000072E8, symSize: 0x38 }
  - { offsetInCU: 0x7D0A, offset: 0x7D0A, size: 0x8, addend: 0x0, symName: __ZNSt3__114__rewrap_rangeB8ue170006INS_16reverse_iteratorIPP9HotelRoomEES5_EET_S6_T0_, symObjAddr: 0x33BC, symBinAddr: 0x100007320, symSize: 0x5C }
  - { offsetInCU: 0x7D56, offset: 0x7D56, size: 0x8, addend: 0x0, symName: __ZNSt3__113__rewrap_iterB8ue170006INS_16reverse_iteratorIPP9HotelRoomEES5_NS_18__unwrap_iter_implIS5_Lb0EEEEET_S8_T0_, symObjAddr: 0x3418, symBinAddr: 0x10000737C, symSize: 0x88 }
  - { offsetInCU: 0x7E5D, offset: 0x7E5D, size: 0x8, addend: 0x0, symName: __ZNSt3__1eqB8ue170006IPP9HotelRoomEEbRKNS_11__wrap_iterIT_EES8_, symObjAddr: 0x382C, symBinAddr: 0x100007790, symSize: 0x48 }
  - { offsetInCU: 0x807E, offset: 0x807E, size: 0x8, addend: 0x0, symName: __ZSt28__throw_bad_array_new_lengthB8ue170006v, symObjAddr: 0x17E8, symBinAddr: 0x10000574C, symSize: 0x34 }
  - { offsetInCU: 0x85D9, offset: 0x85D9, size: 0x8, addend: 0x0, symName: __ZNSt3__16vectorIP9HotelRoomNS_9allocatorIS2_EEE26__swap_out_circular_bufferERNS_14__split_bufferIS2_RS4_EE, symObjAddr: 0x24D8, symBinAddr: 0x10000643C, symSize: 0x110 }
  - { offsetInCU: 0xA914, offset: 0xA914, size: 0x8, addend: 0x0, symName: _main, symObjAddr: 0x0, symBinAddr: 0x100003F64, symSize: 0x334 }
  - { offsetInCU: 0xAA4F, offset: 0xAA4F, size: 0x8, addend: 0x0, symName: __ZNSt3__16vectorIP9HotelRoomNS_9allocatorIS2_EEEC1B8ue170006Ev, symObjAddr: 0x334, symBinAddr: 0x100004298, symSize: 0x2C }
  - { offsetInCU: 0xAA78, offset: 0xAA78, size: 0x8, addend: 0x0, symName: __ZNSt3__112basic_stringIcNS_11char_traitsIcEENS_9allocatorIcEEEC1B8ue170006Ev, symObjAddr: 0x360, symBinAddr: 0x1000042C4, symSize: 0x2C }
  - { offsetInCU: 0xAAA0, offset: 0xAAA0, size: 0x8, addend: 0x0, symName: __ZNSt3__16vectorIP9HotelRoomNS_9allocatorIS2_EEE9push_backB8ue170006EOS2_, symObjAddr: 0x770, symBinAddr: 0x1000046D4, symSize: 0x6C }
  - { offsetInCU: 0xAAD6, offset: 0xAAD6, size: 0x8, addend: 0x0, symName: __ZN9HotelRoomC1Eii, symObjAddr: 0x7DC, symBinAddr: 0x100004740, symSize: 0x3C }
  - { offsetInCU: 0xAB80, offset: 0xAB80, size: 0x8, addend: 0x0, symName: __ZN14HotelApartmentC1Eii, symObjAddr: 0x818, symBinAddr: 0x10000477C, symSize: 0x3C }
  - { offsetInCU: 0xABC4, offset: 0xABC4, size: 0x8, addend: 0x0, symName: __ZNSt3__16vectorIP9HotelRoomNS_9allocatorIS2_EEE5beginB8ue170006Ev, symObjAddr: 0x860, symBinAddr: 0x1000047C4, symSize: 0x30 }
  - { offsetInCU: 0xABEA, offset: 0xABEA, size: 0x8, addend: 0x0, symName: __ZNSt3__16vectorIP9HotelRoomNS_9allocatorIS2_EEE3endB8ue170006Ev, symObjAddr: 0x890, symBinAddr: 0x1000047F4, symSize: 0x30 }
  - { offsetInCU: 0xAC11, offset: 0xAC11, size: 0x8, addend: 0x0, symName: __ZNKSt3__111__wrap_iterIPP9HotelRoomEdeB8ue170006Ev, symObjAddr: 0x8F4, symBinAddr: 0x100004858, symSize: 0x18 }
  - { offsetInCU: 0xAC36, offset: 0xAC36, size: 0x8, addend: 0x0, symName: __ZNSt3__111__wrap_iterIPP9HotelRoomEppB8ue170006Ev, symObjAddr: 0x90C, symBinAddr: 0x100004870, symSize: 0x20 }
  - { offsetInCU: 0xACD4, offset: 0xACD4, size: 0x8, addend: 0x0, symName: __ZNSt3__113basic_ostreamIcNS_11char_traitsIcEEElsB8ue170006EPFRS3_S4_E, symObjAddr: 0x92C, symBinAddr: 0x100004890, symSize: 0x2C }
  - { offsetInCU: 0xAD07, offset: 0xAD07, size: 0x8, addend: 0x0, symName: __ZNSt3__16vectorIP9HotelRoomNS_9allocatorIS2_EEE5clearB8ue170006Ev, symObjAddr: 0x9B0, symBinAddr: 0x100004914, symSize: 0x44 }
  - { offsetInCU: 0xAD3B, offset: 0xAD3B, size: 0x8, addend: 0x0, symName: __ZNSt3__16vectorIP9HotelRoomNS_9allocatorIS2_EEED1B8ue170006Ev, symObjAddr: 0x9F4, symBinAddr: 0x100004958, symSize: 0x2C }
  - { offsetInCU: 0xAD64, offset: 0xAD64, size: 0x8, addend: 0x0, symName: __ZN9HotelRoomC2Eii, symObjAddr: 0xA20, symBinAddr: 0x100004984, symSize: 0x3C }
  - { offsetInCU: 0xADA9, offset: 0xADA9, size: 0x8, addend: 0x0, symName: __ZN9HotelRoom9get_priceEv, symObjAddr: 0xA5C, symBinAddr: 0x1000049C0, symSize: 0x30 }
  - { offsetInCU: 0xADCE, offset: 0xADCE, size: 0x8, addend: 0x0, symName: __ZN9HotelRoomD1Ev, symObjAddr: 0xA8C, symBinAddr: 0x1000049F0, symSize: 0x2C }
  - { offsetInCU: 0xADF7, offset: 0xADF7, size: 0x8, addend: 0x0, symName: __ZN9HotelRoomD0Ev, symObjAddr: 0xAB8, symBinAddr: 0x100004A1C, symSize: 0x58 }
  - { offsetInCU: 0xAE20, offset: 0xAE20, size: 0x8, addend: 0x0, symName: __ZN9HotelRoomD2Ev, symObjAddr: 0xB10, symBinAddr: 0x100004A74, symSize: 0x14 }
  - { offsetInCU: 0xAE49, offset: 0xAE49, size: 0x8, addend: 0x0, symName: __ZN14HotelApartmentC2Eii, symObjAddr: 0xB24, symBinAddr: 0x100004A88, symSize: 0x54 }
  - { offsetInCU: 0xAE8E, offset: 0xAE8E, size: 0x8, addend: 0x0, symName: __ZN14HotelApartment9get_priceEv, symObjAddr: 0xB78, symBinAddr: 0x100004ADC, symSize: 0x28 }
  - { offsetInCU: 0xAEB3, offset: 0xAEB3, size: 0x8, addend: 0x0, symName: __ZN14HotelApartmentD1Ev, symObjAddr: 0xBA0, symBinAddr: 0x100004B04, symSize: 0x2C }
  - { offsetInCU: 0xAEDE, offset: 0xAEDE, size: 0x8, addend: 0x0, symName: __ZN14HotelApartmentD0Ev, symObjAddr: 0xBCC, symBinAddr: 0x100004B30, symSize: 0x58 }
  - { offsetInCU: 0xAF09, offset: 0xAF09, size: 0x8, addend: 0x0, symName: __ZN14HotelApartmentD2Ev, symObjAddr: 0xC24, symBinAddr: 0x100004B88, symSize: 0x2C }
  - { offsetInCU: 0xAF34, offset: 0xAF34, size: 0x8, addend: 0x0, symName: __ZNSt3__16vectorIP9HotelRoomNS_9allocatorIS2_EEEC2B8ue170006Ev, symObjAddr: 0xC50, symBinAddr: 0x100004BB4, symSize: 0x44 }
  - { offsetInCU: 0xAF67, offset: 0xAF67, size: 0x8, addend: 0x0, symName: __ZNSt3__117__compressed_pairIPP9HotelRoomNS_9allocatorIS2_EEEC1B8ue170006IDnNS_18__default_init_tagEEEOT_OT0_, symObjAddr: 0xC94, symBinAddr: 0x100004BF8, symSize: 0x3C }
  - { offsetInCU: 0xAFBE, offset: 0xAFBE, size: 0x8, addend: 0x0, symName: __ZNSt3__117__compressed_pairIPP9HotelRoomNS_9allocatorIS2_EEEC2B8ue170006IDnNS_18__default_init_tagEEEOT_OT0_, symObjAddr: 0xCD0, symBinAddr: 0x100004C34, symSize: 0x40 }
  - { offsetInCU: 0xB015, offset: 0xB015, size: 0x8, addend: 0x0, symName: __ZNSt3__122__compressed_pair_elemIPP9HotelRoomLi0ELb0EEC2B8ue170006IDnvEEOT_, symObjAddr: 0xD10, symBinAddr: 0x100004C74, symSize: 0x1C }
  - { offsetInCU: 0xB056, offset: 0xB056, size: 0x8, addend: 0x0, symName: __ZNSt3__122__compressed_pair_elemINS_9allocatorIP9HotelRoomEELi1ELb1EEC2B8ue170006ENS_18__default_init_tagE, symObjAddr: 0xD2C, symBinAddr: 0x100004C90, symSize: 0x2C }
  - { offsetInCU: 0xB08A, offset: 0xB08A, size: 0x8, addend: 0x0, symName: __ZNSt3__19allocatorIP9HotelRoomEC2B8ue170006Ev, symObjAddr: 0xD58, symBinAddr: 0x100004CBC, symSize: 0x2C }
  - { offsetInCU: 0xB0B3, offset: 0xB0B3, size: 0x8, addend: 0x0, symName: __ZNSt3__116__non_trivial_ifILb1ENS_9allocatorIP9HotelRoomEEEC2B8ue170006Ev, symObjAddr: 0xD84, symBinAddr: 0x100004CE8, symSize: 0x14 }
  - { offsetInCU: 0xB0DC, offset: 0xB0DC, size: 0x8, addend: 0x0, symName: __ZNSt3__16vectorIP9HotelRoomNS_9allocatorIS2_EEED2B8ue170006Ev, symObjAddr: 0xD98, symBinAddr: 0x100004CFC, symSize: 0x3C }
  - { offsetInCU: 0xB105, offset: 0xB105, size: 0x8, addend: 0x0, symName: __ZNSt3__16vectorIP9HotelRoomNS_9allocatorIS2_EEE16__destroy_vectorC1B8ue170006ERS5_, symObjAddr: 0xDD4, symBinAddr: 0x100004D38, symSize: 0x34 }
  - { offsetInCU: 0xB13D, offset: 0xB13D, size: 0x8, addend: 0x0, symName: __ZNSt3__16vectorIP9HotelRoomNS_9allocatorIS2_EEE16__destroy_vectorclB8ue170006Ev, symObjAddr: 0xE08, symBinAddr: 0x100004D6C, symSize: 0x90 }
  - { offsetInCU: 0xB162, offset: 0xB162, size: 0x8, addend: 0x0, symName: __ZNSt3__16vectorIP9HotelRoomNS_9allocatorIS2_EEE16__destroy_vectorC2B8ue170006ERS5_, symObjAddr: 0xE98, symBinAddr: 0x100004DFC, symSize: 0x20 }
  - { offsetInCU: 0xB19A, offset: 0xB19A, size: 0x8, addend: 0x0, symName: __ZNSt3__16vectorIP9HotelRoomNS_9allocatorIS2_EEE7__clearB8ue170006Ev, symObjAddr: 0xEB8, symBinAddr: 0x100004E1C, symSize: 0x28 }
  - { offsetInCU: 0xB1BF, offset: 0xB1BF, size: 0x8, addend: 0x0, symName: __ZNKSt3__16vectorIP9HotelRoomNS_9allocatorIS2_EEE17__annotate_deleteB8ue170006Ev, symObjAddr: 0xEE0, symBinAddr: 0x100004E44, symSize: 0xB8 }
  - { offsetInCU: 0xB1E4, offset: 0xB1E4, size: 0x8, addend: 0x0, symName: __ZNSt3__116allocator_traitsINS_9allocatorIP9HotelRoomEEE10deallocateB8ue170006ERS4_PS3_m, symObjAddr: 0xF98, symBinAddr: 0x100004EFC, symSize: 0x34 }
  - { offsetInCU: 0xB226, offset: 0xB226, size: 0x8, addend: 0x0, symName: __ZNSt3__16vectorIP9HotelRoomNS_9allocatorIS2_EEE7__allocB8ue170006Ev, symObjAddr: 0xFCC, symBinAddr: 0x100004F30, symSize: 0x28 }
  - { offsetInCU: 0xB24B, offset: 0xB24B, size: 0x8, addend: 0x0, symName: __ZNKSt3__16vectorIP9HotelRoomNS_9allocatorIS2_EEE8capacityB8ue170006Ev, symObjAddr: 0xFF4, symBinAddr: 0x100004F58, symSize: 0x40 }
  - { offsetInCU: 0xB270, offset: 0xB270, size: 0x8, addend: 0x0, symName: __ZNSt3__16vectorIP9HotelRoomNS_9allocatorIS2_EEE22__base_destruct_at_endB8ue170006EPS2_, symObjAddr: 0x1034, symBinAddr: 0x100004F98, symSize: 0xA0 }
  - { offsetInCU: 0xB2B3, offset: 0xB2B3, size: 0x8, addend: 0x0, symName: __ZNSt3__116allocator_traitsINS_9allocatorIP9HotelRoomEEE7destroyB8ue170006IS3_vEEvRS4_PT_, symObjAddr: 0x10D4, symBinAddr: 0x100005038, symSize: 0x2C }
  - { offsetInCU: 0xB2F0, offset: 0xB2F0, size: 0x8, addend: 0x0, symName: __ZNSt3__19allocatorIP9HotelRoomE7destroyB8ue170006EPS2_, symObjAddr: 0x1114, symBinAddr: 0x100005078, symSize: 0x14 }
  - { offsetInCU: 0xB323, offset: 0xB323, size: 0x8, addend: 0x0, symName: __ZNKSt3__16vectorIP9HotelRoomNS_9allocatorIS2_EEE31__annotate_contiguous_containerB8ue170006EPKvS7_S7_S7_, symObjAddr: 0x1128, symBinAddr: 0x10000508C, symSize: 0x20 }
  - { offsetInCU: 0xB374, offset: 0xB374, size: 0x8, addend: 0x0, symName: __ZNKSt3__16vectorIP9HotelRoomNS_9allocatorIS2_EEE4dataB8ue170006Ev, symObjAddr: 0x1148, symBinAddr: 0x1000050AC, symSize: 0x28 }
  - { offsetInCU: 0xB399, offset: 0xB399, size: 0x8, addend: 0x0, symName: __ZNKSt3__16vectorIP9HotelRoomNS_9allocatorIS2_EEE4sizeB8ue170006Ev, symObjAddr: 0x1170, symBinAddr: 0x1000050D4, symSize: 0x28 }
  - { offsetInCU: 0xB3BE, offset: 0xB3BE, size: 0x8, addend: 0x0, symName: __ZNSt3__19allocatorIP9HotelRoomE10deallocateB8ue170006EPS2_m, symObjAddr: 0x1198, symBinAddr: 0x1000050FC, symSize: 0x70 }
  - { offsetInCU: 0xB3FF, offset: 0xB3FF, size: 0x8, addend: 0x0, symName: __ZNSt3__117__compressed_pairIPP9HotelRoomNS_9allocatorIS2_EEE6secondB8ue170006Ev, symObjAddr: 0x1290, symBinAddr: 0x1000051F4, symSize: 0x24 }
  - { offsetInCU: 0xB424, offset: 0xB424, size: 0x8, addend: 0x0, symName: __ZNSt3__122__compressed_pair_elemINS_9allocatorIP9HotelRoomEELi1ELb1EE5__getB8ue170006Ev, symObjAddr: 0x12B4, symBinAddr: 0x100005218, symSize: 0x14 }
  - { offsetInCU: 0xB449, offset: 0xB449, size: 0x8, addend: 0x0, symName: __ZNKSt3__16vectorIP9HotelRoomNS_9allocatorIS2_EEE9__end_capB8ue170006Ev, symObjAddr: 0x12C8, symBinAddr: 0x10000522C, symSize: 0x28 }
  - { offsetInCU: 0xB46E, offset: 0xB46E, size: 0x8, addend: 0x0, symName: __ZNKSt3__117__compressed_pairIPP9HotelRoomNS_9allocatorIS2_EEE5firstB8ue170006Ev, symObjAddr: 0x12F0, symBinAddr: 0x100005254, symSize: 0x24 }
  - { offsetInCU: 0xB493, offset: 0xB493, size: 0x8, addend: 0x0, symName: __ZNKSt3__122__compressed_pair_elemIPP9HotelRoomLi0ELb0EE5__getB8ue170006Ev, symObjAddr: 0x1314, symBinAddr: 0x100005278, symSize: 0x14 }
  - { offsetInCU: 0xB4B8, offset: 0xB4B8, size: 0x8, addend: 0x0, symName: __ZNSt3__112basic_stringIcNS_11char_traitsIcEENS_9allocatorIcEEEC2B8ue170006Ev, symObjAddr: 0x1328, symBinAddr: 0x10000528C, symSize: 0x3C }
  - { offsetInCU: 0xB4E1, offset: 0xB4E1, size: 0x8, addend: 0x0, symName: __ZNSt3__117__compressed_pairINS_12basic_stringIcNS_11char_traitsIcEENS_9allocatorIcEEE5__repES5_EC1B8ue170006INS_18__default_init_tagESA_EEOT_OT0_, symObjAddr: 0x1364, symBinAddr: 0x1000052C8, symSize: 0x3C }
  - { offsetInCU: 0xB538, offset: 0xB538, size: 0x8, addend: 0x0, symName: __ZNSt3__112basic_stringIcNS_11char_traitsIcEENS_9allocatorIcEEE14__default_initB8ue170006Ev, symObjAddr: 0x13A0, symBinAddr: 0x100005304, symSize: 0xB0 }
  - { offsetInCU: 0xB58A, offset: 0xB58A, size: 0x8, addend: 0x0, symName: __ZNSt3__117__compressed_pairINS_12basic_stringIcNS_11char_traitsIcEENS_9allocatorIcEEE5__repES5_EC2B8ue170006INS_18__default_init_tagESA_EEOT_OT0_, symObjAddr: 0x1450, symBinAddr: 0x1000053B4, symSize: 0x3C }
  - { offsetInCU: 0xB5E1, offset: 0xB5E1, size: 0x8, addend: 0x0, symName: __ZNSt3__122__compressed_pair_elemINS_12basic_stringIcNS_11char_traitsIcEENS_9allocatorIcEEE5__repELi0ELb0EEC2B8ue170006ENS_18__default_init_tagE, symObjAddr: 0x148C, symBinAddr: 0x1000053F0, symSize: 0x14 }
  - { offsetInCU: 0xB615, offset: 0xB615, size: 0x8, addend: 0x0, symName: __ZNSt3__122__compressed_pair_elemINS_9allocatorIcEELi1ELb1EEC2B8ue170006ENS_18__default_init_tagE, symObjAddr: 0x14A0, symBinAddr: 0x100005404, symSize: 0x2C }
  - { offsetInCU: 0xB649, offset: 0xB649, size: 0x8, addend: 0x0, symName: __ZNSt3__19allocatorIcEC2B8ue170006Ev, symObjAddr: 0x14CC, symBinAddr: 0x100005430, symSize: 0x2C }
  - { offsetInCU: 0xB672, offset: 0xB672, size: 0x8, addend: 0x0, symName: __ZNSt3__116__non_trivial_ifILb1ENS_9allocatorIcEEEC2B8ue170006Ev, symObjAddr: 0x14F8, symBinAddr: 0x10000545C, symSize: 0x14 }
  - { offsetInCU: 0xB69B, offset: 0xB69B, size: 0x8, addend: 0x0, symName: __ZNSt3__117__compressed_pairINS_12basic_stringIcNS_11char_traitsIcEENS_9allocatorIcEEE5__repES5_E5firstB8ue170006Ev, symObjAddr: 0x150C, symBinAddr: 0x100005470, symSize: 0x24 }
  - { offsetInCU: 0xB6C0, offset: 0xB6C0, size: 0x8, addend: 0x0, symName: __ZNSt3__112basic_stringIcNS_11char_traitsIcEENS_9allocatorIcEEE11__recommendB8ue170006Em, symObjAddr: 0x1530, symBinAddr: 0x100005494, symSize: 0x9C }
  - { offsetInCU: 0xB6F3, offset: 0xB6F3, size: 0x8, addend: 0x0, symName: __ZNSt3__116allocator_traitsINS_9allocatorIcEEE8allocateB8ue170006ERS2_m, symObjAddr: 0x15CC, symBinAddr: 0x100005530, symSize: 0x2C }
  - { offsetInCU: 0xB726, offset: 0xB726, size: 0x8, addend: 0x0, symName: __ZNSt3__112basic_stringIcNS_11char_traitsIcEENS_9allocatorIcEEE7__allocB8ue170006Ev, symObjAddr: 0x15F8, symBinAddr: 0x10000555C, symSize: 0x24 }
  - { offsetInCU: 0xB74B, offset: 0xB74B, size: 0x8, addend: 0x0, symName: __ZNSt3__112basic_stringIcNS_11char_traitsIcEENS_9allocatorIcEEE16__begin_lifetimeB8ue170006EPcm, symObjAddr: 0x161C, symBinAddr: 0x100005580, symSize: 0x14 }
  - { offsetInCU: 0xB77E, offset: 0xB77E, size: 0x8, addend: 0x0, symName: __ZNSt3__112basic_stringIcNS_11char_traitsIcEENS_9allocatorIcEEE18__set_long_pointerB8ue170006EPc, symObjAddr: 0x1630, symBinAddr: 0x100005594, symSize: 0x38 }
  - { offsetInCU: 0xB7B2, offset: 0xB7B2, size: 0x8, addend: 0x0, symName: __ZNSt3__112basic_stringIcNS_11char_traitsIcEENS_9allocatorIcEEE14__set_long_capB8ue170006Em, symObjAddr: 0x1668, symBinAddr: 0x1000055CC, symSize: 0x70 }
  - { offsetInCU: 0xB7E6, offset: 0xB7E6, size: 0x8, addend: 0x0, symName: __ZNSt3__112basic_stringIcNS_11char_traitsIcEENS_9allocatorIcEEE15__set_long_sizeB8ue170006Em, symObjAddr: 0x16D8, symBinAddr: 0x10000563C, symSize: 0x38 }
  - { offsetInCU: 0xB81A, offset: 0xB81A, size: 0x8, addend: 0x0, symName: __ZNSt3__122__compressed_pair_elemINS_12basic_stringIcNS_11char_traitsIcEENS_9allocatorIcEEE5__repELi0ELb0EE5__getB8ue170006Ev, symObjAddr: 0x1710, symBinAddr: 0x100005674, symSize: 0x14 }
  - { offsetInCU: 0xB83F, offset: 0xB83F, size: 0x8, addend: 0x0, symName: __ZNSt3__112basic_stringIcNS_11char_traitsIcEENS_9allocatorIcEEE10__align_itB8ue170006ILm16EEEmm, symObjAddr: 0x1724, symBinAddr: 0x100005688, symSize: 0x1C }
  - { offsetInCU: 0xB86D, offset: 0xB86D, size: 0x8, addend: 0x0, symName: __ZNSt3__19allocatorIcE8allocateB8ue170006Em, symObjAddr: 0x1740, symBinAddr: 0x1000056A4, symSize: 0x84 }
  - { offsetInCU: 0xB8AA, offset: 0xB8AA, size: 0x8, addend: 0x0, symName: __ZNSt3__116allocator_traitsINS_9allocatorIcEEE8max_sizeB8ue170006IS2_vEEmRKS2_, symObjAddr: 0x17C4, symBinAddr: 0x100005728, symSize: 0x24 }
  - { offsetInCU: 0xB8D8, offset: 0xB8D8, size: 0x8, addend: 0x0, symName: __ZNKSt3__19allocatorIcE8max_sizeB8ue170006Ev, symObjAddr: 0x1844, symBinAddr: 0x1000057A8, symSize: 0x14 }
  - { offsetInCU: 0xB8FD, offset: 0xB8FD, size: 0x8, addend: 0x0, symName: __ZNSt3__117__compressed_pairINS_12basic_stringIcNS_11char_traitsIcEENS_9allocatorIcEEE5__repES5_E6secondB8ue170006Ev, symObjAddr: 0x187C, symBinAddr: 0x1000057E0, symSize: 0x24 }
  - { offsetInCU: 0xB922, offset: 0xB922, size: 0x8, addend: 0x0, symName: __ZNSt3__122__compressed_pair_elemINS_9allocatorIcEELi1ELb1EE5__getB8ue170006Ev, symObjAddr: 0x18A0, symBinAddr: 0x100005804, symSize: 0x14 }
  - { offsetInCU: 0xB9F0, offset: 0xB9F0, size: 0x8, addend: 0x0, symName: __ZNKSt3__113basic_istreamIcNS_11char_traitsIcEEE6sentrycvbB8ue170006Ev, symObjAddr: 0x18B4, symBinAddr: 0x100005818, symSize: 0x1C }
  - { offsetInCU: 0xBA14, offset: 0xBA14, size: 0x8, addend: 0x0, symName: __ZNSt3__112basic_stringIcNS_11char_traitsIcEENS_9allocatorIcEEE5clearB8ue170006Ev, symObjAddr: 0x18D0, symBinAddr: 0x100005834, symSize: 0x78 }
  - { offsetInCU: 0xBA3B, offset: 0xBA3B, size: 0x8, addend: 0x0, symName: __ZNKSt3__18ios_base5widthB8ue170006Ev, symObjAddr: 0x1948, symBinAddr: 0x1000058AC, symSize: 0x18 }
  - { offsetInCU: 0xBA62, offset: 0xBA62, size: 0x8, addend: 0x0, symName: __ZNKSt3__112basic_stringIcNS_11char_traitsIcEENS_9allocatorIcEEE8max_sizeB8ue170006Ev, symObjAddr: 0x1960, symBinAddr: 0x1000058C4, symSize: 0xAC }
  - { offsetInCU: 0xBAB4, offset: 0xBAB4, size: 0x8, addend: 0x0, symName: __ZNSt3__114numeric_limitsIlE3maxB8ue170006Ev, symObjAddr: 0x1A0C, symBinAddr: 0x100005970, symSize: 0x14 }
  - { offsetInCU: 0xBAC7, offset: 0xBAC7, size: 0x8, addend: 0x0, symName: __ZNKSt3__19basic_iosIcNS_11char_traitsIcEEE5rdbufB8ue170006Ev, symObjAddr: 0x1A4C, symBinAddr: 0x1000059B0, symSize: 0x24 }
  - { offsetInCU: 0xBAEE, offset: 0xBAEE, size: 0x8, addend: 0x0, symName: __ZNSt3__115basic_streambufIcNS_11char_traitsIcEEE5sgetcB8ue170006Ev, symObjAddr: 0x1A70, symBinAddr: 0x1000059D4, symSize: 0x70 }
  - { offsetInCU: 0xBB13, offset: 0xBB13, size: 0x8, addend: 0x0, symName: __ZNSt3__111char_traitsIcE11eq_int_typeB8ue170006Eii, symObjAddr: 0x1AE0, symBinAddr: 0x100005A44, symSize: 0x28 }
  - { offsetInCU: 0xBB46, offset: 0xBB46, size: 0x8, addend: 0x0, symName: __ZNSt3__111char_traitsIcE3eofB8ue170006Ev, symObjAddr: 0x1B08, symBinAddr: 0x100005A6C, symSize: 0x8 }
  - { offsetInCU: 0xBB5A, offset: 0xBB5A, size: 0x8, addend: 0x0, symName: __ZNSt3__111char_traitsIcE12to_char_typeB8ue170006Ei, symObjAddr: 0x1B10, symBinAddr: 0x100005A74, symSize: 0x18 }
  - { offsetInCU: 0xBBAA, offset: 0xBBAA, size: 0x8, addend: 0x0, symName: __ZNKSt3__15ctypeIcE2isB8ue170006Ejc, symObjAddr: 0x1B28, symBinAddr: 0x100005A8C, symSize: 0x7C }
  - { offsetInCU: 0xBBED, offset: 0xBBED, size: 0x8, addend: 0x0, symName: __ZNSt3__115basic_streambufIcNS_11char_traitsIcEEE6sbumpcB8ue170006Ev, symObjAddr: 0x1BA4, symBinAddr: 0x100005B08, symSize: 0x78 }
  - { offsetInCU: 0xBC12, offset: 0xBC12, size: 0x8, addend: 0x0, symName: __ZNSt3__18ios_base5widthB8ue170006El, symObjAddr: 0x1C1C, symBinAddr: 0x100005B80, symSize: 0x2C }
  - { offsetInCU: 0xBC57, offset: 0xBC57, size: 0x8, addend: 0x0, symName: __ZNSt3__18ios_base18__setstate_nothrowB8ue170006Ej, symObjAddr: 0x1C48, symBinAddr: 0x100005BAC, symSize: 0x64 }
  - { offsetInCU: 0xBC8B, offset: 0xBC8B, size: 0x8, addend: 0x0, symName: __ZNKSt3__19basic_iosIcNS_11char_traitsIcEEE10exceptionsB8ue170006Ev, symObjAddr: 0x1CAC, symBinAddr: 0x100005C10, symSize: 0x24 }
  - { offsetInCU: 0xBCB0, offset: 0xBCB0, size: 0x8, addend: 0x0, symName: __ZNSt3__19basic_iosIcNS_11char_traitsIcEEE8setstateB8ue170006Ej, symObjAddr: 0x1CD0, symBinAddr: 0x100005C34, symSize: 0x2C }
  - { offsetInCU: 0xBCE4, offset: 0xBCE4, size: 0x8, addend: 0x0, symName: __ZNKSt3__112basic_stringIcNS_11char_traitsIcEENS_9allocatorIcEEE9__is_longB8ue170006Ev, symObjAddr: 0x1CFC, symBinAddr: 0x100005C60, symSize: 0x74 }
  - { offsetInCU: 0xBD09, offset: 0xBD09, size: 0x8, addend: 0x0, symName: __ZNSt3__111char_traitsIcE6assignB8ue170006ERcRKc, symObjAddr: 0x1D70, symBinAddr: 0x100005CD4, symSize: 0x24 }
  - { offsetInCU: 0xBD3A, offset: 0xBD3A, size: 0x8, addend: 0x0, symName: __ZNSt3__112basic_stringIcNS_11char_traitsIcEENS_9allocatorIcEEE18__get_long_pointerB8ue170006Ev, symObjAddr: 0x1D94, symBinAddr: 0x100005CF8, symSize: 0x28 }
  - { offsetInCU: 0xBD5F, offset: 0xBD5F, size: 0x8, addend: 0x0, symName: __ZNSt3__112basic_stringIcNS_11char_traitsIcEENS_9allocatorIcEEE19__get_short_pointerB8ue170006Ev, symObjAddr: 0x1DBC, symBinAddr: 0x100005D20, symSize: 0x28 }
  - { offsetInCU: 0xBD84, offset: 0xBD84, size: 0x8, addend: 0x0, symName: __ZNSt3__112basic_stringIcNS_11char_traitsIcEENS_9allocatorIcEEE16__set_short_sizeB8ue170006Em, symObjAddr: 0x1DE4, symBinAddr: 0x100005D48, symSize: 0x78 }
  - { offsetInCU: 0xBDB8, offset: 0xBDB8, size: 0x8, addend: 0x0, symName: __ZNKSt3__117__compressed_pairINS_12basic_stringIcNS_11char_traitsIcEENS_9allocatorIcEEE5__repES5_E5firstB8ue170006Ev, symObjAddr: 0x1E5C, symBinAddr: 0x100005DC0, symSize: 0x24 }
  - { offsetInCU: 0xBDDD, offset: 0xBDDD, size: 0x8, addend: 0x0, symName: __ZNKSt3__122__compressed_pair_elemINS_12basic_stringIcNS_11char_traitsIcEENS_9allocatorIcEEE5__repELi0ELb0EE5__getB8ue170006Ev, symObjAddr: 0x1E80, symBinAddr: 0x100005DE4, symSize: 0x14 }
  - { offsetInCU: 0xBE02, offset: 0xBE02, size: 0x8, addend: 0x0, symName: __ZNSt3__114pointer_traitsIPcE10pointer_toB8ue170006ERc, symObjAddr: 0x1E94, symBinAddr: 0x100005DF8, symSize: 0x14 }
  - { offsetInCU: 0xBE25, offset: 0xBE25, size: 0x8, addend: 0x0, symName: __ZNKSt3__112basic_stringIcNS_11char_traitsIcEENS_9allocatorIcEEE7__allocB8ue170006Ev, symObjAddr: 0x1EA8, symBinAddr: 0x100005E0C, symSize: 0x24 }
  - { offsetInCU: 0xBE4A, offset: 0xBE4A, size: 0x8, addend: 0x0, symName: __ZNSt3__114numeric_limitsImE3maxB8ue170006Ev, symObjAddr: 0x1ECC, symBinAddr: 0x100005E30, symSize: 0x14 }
  - { offsetInCU: 0xBE5E, offset: 0xBE5E, size: 0x8, addend: 0x0, symName: __ZNKSt3__117__compressed_pairINS_12basic_stringIcNS_11char_traitsIcEENS_9allocatorIcEEE5__repES5_E6secondB8ue170006Ev, symObjAddr: 0x1EE0, symBinAddr: 0x100005E44, symSize: 0x24 }
  - { offsetInCU: 0xBE83, offset: 0xBE83, size: 0x8, addend: 0x0, symName: __ZNKSt3__122__compressed_pair_elemINS_9allocatorIcEELi1ELb1EE5__getB8ue170006Ev, symObjAddr: 0x1F04, symBinAddr: 0x100005E68, symSize: 0x14 }
  - { offsetInCU: 0xBEA8, offset: 0xBEA8, size: 0x8, addend: 0x0, symName: __ZNSt3__123__libcpp_numeric_limitsImLb1EE3maxB8ue170006Ev, symObjAddr: 0x1F18, symBinAddr: 0x100005E7C, symSize: 0x8 }
  - { offsetInCU: 0xBEBC, offset: 0xBEBC, size: 0x8, addend: 0x0, symName: __ZNSt3__123__libcpp_numeric_limitsIlLb1EE3maxB8ue170006Ev, symObjAddr: 0x1F20, symBinAddr: 0x100005E84, symSize: 0x8 }
  - { offsetInCU: 0xBED0, offset: 0xBED0, size: 0x8, addend: 0x0, symName: __ZNKSt3__18ios_base5rdbufB8ue170006Ev, symObjAddr: 0x1F28, symBinAddr: 0x100005E8C, symSize: 0x18 }
  - { offsetInCU: 0xBEF5, offset: 0xBEF5, size: 0x8, addend: 0x0, symName: __ZNSt3__111char_traitsIcE11to_int_typeB8ue170006Ec, symObjAddr: 0x1F40, symBinAddr: 0x100005EA4, symSize: 0x14 }
  - { offsetInCU: 0xBF18, offset: 0xBF18, size: 0x8, addend: 0x0, symName: __Z7isasciii, symObjAddr: 0x1F54, symBinAddr: 0x100005EB8, symSize: 0x24 }
  - { offsetInCU: 0xBF45, offset: 0xBF45, size: 0x8, addend: 0x0, symName: __ZNKSt3__18ios_base10exceptionsB8ue170006Ev, symObjAddr: 0x1F78, symBinAddr: 0x100005EDC, symSize: 0x18 }
  - { offsetInCU: 0xBF6B, offset: 0xBF6B, size: 0x8, addend: 0x0, symName: __ZNSt3__18ios_base8setstateB8ue170006Ej, symObjAddr: 0x1F90, symBinAddr: 0x100005EF4, symSize: 0x34 }
  - { offsetInCU: 0xBFA1, offset: 0xBFA1, size: 0x8, addend: 0x0, symName: __ZNSt3__111char_traitsIcE6lengthB8ue170006EPKc, symObjAddr: 0x1FC4, symBinAddr: 0x100005F28, symSize: 0x48 }
  - { offsetInCU: 0xBFC4, offset: 0xBFC4, size: 0x8, addend: 0x0, symName: __ZNKSt3__112basic_stringIcNS_11char_traitsIcEENS_9allocatorIcEEE4sizeB8ue170006Ev, symObjAddr: 0x200C, symBinAddr: 0x100005F70, symSize: 0x54 }
  - { offsetInCU: 0xBFE9, offset: 0xBFE9, size: 0x8, addend: 0x0, symName: __ZNKSt3__112basic_stringIcNS_11char_traitsIcEENS_9allocatorIcEEE15__get_long_sizeB8ue170006Ev, symObjAddr: 0x2084, symBinAddr: 0x100005FE8, symSize: 0x28 }
  - { offsetInCU: 0xC00E, offset: 0xC00E, size: 0x8, addend: 0x0, symName: __ZNKSt3__112basic_stringIcNS_11char_traitsIcEENS_9allocatorIcEEE16__get_short_sizeB8ue170006Ev, symObjAddr: 0x20AC, symBinAddr: 0x100006010, symSize: 0x34 }
  - { offsetInCU: 0xC033, offset: 0xC033, size: 0x8, addend: 0x0, symName: __ZNSt3__16vectorIP9HotelRoomNS_9allocatorIS2_EEE9__end_capB8ue170006Ev, symObjAddr: 0x20E0, symBinAddr: 0x100006044, symSize: 0x28 }
  - { offsetInCU: 0xC05D, offset: 0xC05D, size: 0x8, addend: 0x0, symName: __ZNSt3__16vectorIP9HotelRoomNS_9allocatorIS2_EEE22__construct_one_at_endB8ue170006IJS2_EEEvDpOT_, symObjAddr: 0x2108, symBinAddr: 0x10000606C, symSize: 0x98 }
  - { offsetInCU: 0xC0AA, offset: 0xC0AA, size: 0x8, addend: 0x0, symName: __ZNSt3__16vectorIP9HotelRoomNS_9allocatorIS2_EEE21__push_back_slow_pathIS2_EEvOT_, symObjAddr: 0x21A0, symBinAddr: 0x100006104, symSize: 0xE0 }
  - { offsetInCU: 0xC107, offset: 0xC107, size: 0x8, addend: 0x0, symName: __ZNSt3__117__compressed_pairIPP9HotelRoomNS_9allocatorIS2_EEE5firstB8ue170006Ev, symObjAddr: 0x2280, symBinAddr: 0x1000061E4, symSize: 0x24 }
  - { offsetInCU: 0xC12C, offset: 0xC12C, size: 0x8, addend: 0x0, symName: __ZNSt3__122__compressed_pair_elemIPP9HotelRoomLi0ELb0EE5__getB8ue170006Ev, symObjAddr: 0x22A4, symBinAddr: 0x100006208, symSize: 0x14 }
  - { offsetInCU: 0xC16A, offset: 0xC16A, size: 0x8, addend: 0x0, symName: __ZNSt3__16vectorIP9HotelRoomNS_9allocatorIS2_EEE21_ConstructTransactionC1B8ue170006ERS5_m, symObjAddr: 0x22B8, symBinAddr: 0x10000621C, symSize: 0x3C }
  - { offsetInCU: 0xC1B1, offset: 0xC1B1, size: 0x8, addend: 0x0, symName: __ZNSt3__116allocator_traitsINS_9allocatorIP9HotelRoomEEE9constructB8ue170006IS3_JS3_EvEEvRS4_PT_DpOT0_, symObjAddr: 0x22F4, symBinAddr: 0x100006258, symSize: 0x34 }
  - { offsetInCU: 0xC208, offset: 0xC208, size: 0x8, addend: 0x0, symName: __ZNSt3__16vectorIP9HotelRoomNS_9allocatorIS2_EEE21_ConstructTransactionD1B8ue170006Ev, symObjAddr: 0x2328, symBinAddr: 0x10000628C, symSize: 0x2C }
  - { offsetInCU: 0xC231, offset: 0xC231, size: 0x8, addend: 0x0, symName: __ZNSt3__16vectorIP9HotelRoomNS_9allocatorIS2_EEE21_ConstructTransactionC2B8ue170006ERS5_m, symObjAddr: 0x2354, symBinAddr: 0x1000062B8, symSize: 0x44 }
  - { offsetInCU: 0xC278, offset: 0xC278, size: 0x8, addend: 0x0, symName: __ZNSt3__19allocatorIP9HotelRoomE9constructB8ue170006IS2_JS2_EEEvPT_DpOT0_, symObjAddr: 0x2398, symBinAddr: 0x1000062FC, symSize: 0x28 }
  - { offsetInCU: 0xC2CD, offset: 0xC2CD, size: 0x8, addend: 0x0, symName: __ZNSt3__16vectorIP9HotelRoomNS_9allocatorIS2_EEE21_ConstructTransactionD2B8ue170006Ev, symObjAddr: 0x23C0, symBinAddr: 0x100006324, symSize: 0x20 }
  - { offsetInCU: 0xC2F5, offset: 0xC2F5, size: 0x8, addend: 0x0, symName: __ZNKSt3__16vectorIP9HotelRoomNS_9allocatorIS2_EEE11__recommendB8ue170006Em, symObjAddr: 0x23E0, symBinAddr: 0x100006344, symSize: 0xB4 }
  - { offsetInCU: 0xC349, offset: 0xC349, size: 0x8, addend: 0x0, symName: __ZNSt3__114__split_bufferIP9HotelRoomRNS_9allocatorIS2_EEEC1EmmS5_, symObjAddr: 0x2494, symBinAddr: 0x1000063F8, symSize: 0x44 }
  - { offsetInCU: 0xC39E, offset: 0xC39E, size: 0x8, addend: 0x0, symName: __ZNSt3__114__split_bufferIP9HotelRoomRNS_9allocatorIS2_EEED1Ev, symObjAddr: 0x25E8, symBinAddr: 0x10000654C, symSize: 0x2C }
  - { offsetInCU: 0xC3C8, offset: 0xC3C8, size: 0x8, addend: 0x0, symName: __ZNKSt3__16vectorIP9HotelRoomNS_9allocatorIS2_EEE8max_sizeEv, symObjAddr: 0x2614, symBinAddr: 0x100006578, symSize: 0x74 }
  - { offsetInCU: 0xC3EF, offset: 0xC3EF, size: 0x8, addend: 0x0, symName: __ZNKSt3__16vectorIP9HotelRoomNS_9allocatorIS2_EEE20__throw_length_errorB8ue170006Ev, symObjAddr: 0x2688, symBinAddr: 0x1000065EC, symSize: 0x1C }
  - { offsetInCU: 0xC41E, offset: 0xC41E, size: 0x8, addend: 0x0, symName: __ZNSt3__116allocator_traitsINS_9allocatorIP9HotelRoomEEE8max_sizeB8ue170006IS4_vEEmRKS4_, symObjAddr: 0x26FC, symBinAddr: 0x100006660, symSize: 0x24 }
  - { offsetInCU: 0xC44C, offset: 0xC44C, size: 0x8, addend: 0x0, symName: __ZNKSt3__16vectorIP9HotelRoomNS_9allocatorIS2_EEE7__allocB8ue170006Ev, symObjAddr: 0x2720, symBinAddr: 0x100006684, symSize: 0x28 }
  - { offsetInCU: 0xC485, offset: 0xC485, size: 0x8, addend: 0x0, symName: __ZNKSt3__16__lessIvvEclB8ue170006ImmEEbRKT_RKT0_, symObjAddr: 0x279C, symBinAddr: 0x100006700, symSize: 0x34 }
  - { offsetInCU: 0xC4D8, offset: 0xC4D8, size: 0x8, addend: 0x0, symName: __ZNKSt3__19allocatorIP9HotelRoomE8max_sizeB8ue170006Ev, symObjAddr: 0x27D0, symBinAddr: 0x100006734, symSize: 0x14 }
  - { offsetInCU: 0xC4FD, offset: 0xC4FD, size: 0x8, addend: 0x0, symName: __ZNKSt3__117__compressed_pairIPP9HotelRoomNS_9allocatorIS2_EEE6secondB8ue170006Ev, symObjAddr: 0x27E4, symBinAddr: 0x100006748, symSize: 0x24 }
  - { offsetInCU: 0xC522, offset: 0xC522, size: 0x8, addend: 0x0, symName: __ZNKSt3__122__compressed_pair_elemINS_9allocatorIP9HotelRoomEELi1ELb1EE5__getB8ue170006Ev, symObjAddr: 0x2808, symBinAddr: 0x10000676C, symSize: 0x14 }
  - { offsetInCU: 0xC547, offset: 0xC547, size: 0x8, addend: 0x0, symName: __ZNSt12length_errorC1B8ue170006EPKc, symObjAddr: 0x2880, symBinAddr: 0x1000067E4, symSize: 0x34 }
  - { offsetInCU: 0xC57E, offset: 0xC57E, size: 0x8, addend: 0x0, symName: __ZNSt12length_errorC2B8ue170006EPKc, symObjAddr: 0x28B4, symBinAddr: 0x100006818, symSize: 0x4C }
  - { offsetInCU: 0xC5B5, offset: 0xC5B5, size: 0x8, addend: 0x0, symName: __ZNSt3__114__split_bufferIP9HotelRoomRNS_9allocatorIS2_EEEC2EmmS5_, symObjAddr: 0x2954, symBinAddr: 0x1000068B8, symSize: 0xD4 }
  - { offsetInCU: 0xC628, offset: 0xC628, size: 0x8, addend: 0x0, symName: __ZNSt3__117__compressed_pairIPP9HotelRoomRNS_9allocatorIS2_EEEC1B8ue170006IDnS6_EEOT_OT0_, symObjAddr: 0x2A28, symBinAddr: 0x10000698C, symSize: 0x3C }
  - { offsetInCU: 0xC67F, offset: 0xC67F, size: 0x8, addend: 0x0, symName: __ZNSt3__114__split_bufferIP9HotelRoomRNS_9allocatorIS2_EEE7__allocB8ue170006Ev, symObjAddr: 0x2AA4, symBinAddr: 0x100006A08, symSize: 0x28 }
  - { offsetInCU: 0xC6A4, offset: 0xC6A4, size: 0x8, addend: 0x0, symName: __ZNSt3__114__split_bufferIP9HotelRoomRNS_9allocatorIS2_EEE9__end_capB8ue170006Ev, symObjAddr: 0x2ACC, symBinAddr: 0x100006A30, symSize: 0x28 }
  - { offsetInCU: 0xC6C9, offset: 0xC6C9, size: 0x8, addend: 0x0, symName: __ZNSt3__117__compressed_pairIPP9HotelRoomRNS_9allocatorIS2_EEEC2B8ue170006IDnS6_EEOT_OT0_, symObjAddr: 0x2AF4, symBinAddr: 0x100006A58, symSize: 0x48 }
  - { offsetInCU: 0xC720, offset: 0xC720, size: 0x8, addend: 0x0, symName: __ZNSt3__122__compressed_pair_elemIRNS_9allocatorIP9HotelRoomEELi1ELb0EEC2B8ue170006IS5_vEEOT_, symObjAddr: 0x2B3C, symBinAddr: 0x100006AA0, symSize: 0x20 }
  - { offsetInCU: 0xC761, offset: 0xC761, size: 0x8, addend: 0x0, symName: __ZNSt3__19allocatorIP9HotelRoomE8allocateB8ue170006Em, symObjAddr: 0x2B5C, symBinAddr: 0x100006AC0, symSize: 0x84 }
  - { offsetInCU: 0xC794, offset: 0xC794, size: 0x8, addend: 0x0, symName: __ZNSt3__117__compressed_pairIPP9HotelRoomRNS_9allocatorIS2_EEE6secondB8ue170006Ev, symObjAddr: 0x2BE0, symBinAddr: 0x100006B44, symSize: 0x28 }
  - { offsetInCU: 0xC7B9, offset: 0xC7B9, size: 0x8, addend: 0x0, symName: __ZNSt3__122__compressed_pair_elemIRNS_9allocatorIP9HotelRoomEELi1ELb0EE5__getB8ue170006Ev, symObjAddr: 0x2C08, symBinAddr: 0x100006B6C, symSize: 0x18 }
  - { offsetInCU: 0xC7DE, offset: 0xC7DE, size: 0x8, addend: 0x0, symName: __ZNSt3__117__compressed_pairIPP9HotelRoomRNS_9allocatorIS2_EEE5firstB8ue170006Ev, symObjAddr: 0x2C20, symBinAddr: 0x100006B84, symSize: 0x24 }
  - { offsetInCU: 0xC803, offset: 0xC803, size: 0x8, addend: 0x0, symName: __ZNSt3__116reverse_iteratorIPP9HotelRoomEC1B8ue170006ES3_, symObjAddr: 0x2D2C, symBinAddr: 0x100006C90, symSize: 0x34 }
  - { offsetInCU: 0xC83A, offset: 0xC83A, size: 0x8, addend: 0x0, symName: __ZNKSt3__116reverse_iteratorIPP9HotelRoomE4baseB8ue170006Ev, symObjAddr: 0x2D60, symBinAddr: 0x100006CC4, symSize: 0x18 }
  - { offsetInCU: 0xC85F, offset: 0xC85F, size: 0x8, addend: 0x0, symName: __ZNKSt3__16vectorIP9HotelRoomNS_9allocatorIS2_EEE14__annotate_newB8ue170006Em, symObjAddr: 0x2DB4, symBinAddr: 0x100006D18, symSize: 0xAC }
  - { offsetInCU: 0xC893, offset: 0xC893, size: 0x8, addend: 0x0, symName: __ZNKSt3__116reverse_iteratorIPP9HotelRoomEdeB8ue170006Ev, symObjAddr: 0x2EF8, symBinAddr: 0x100006E5C, symSize: 0x28 }
  - { offsetInCU: 0xC8C6, offset: 0xC8C6, size: 0x8, addend: 0x0, symName: __ZNSt3__116reverse_iteratorIPP9HotelRoomEppB8ue170006Ev, symObjAddr: 0x2F20, symBinAddr: 0x100006E84, symSize: 0x20 }
  - { offsetInCU: 0xC8F0, offset: 0xC8F0, size: 0x8, addend: 0x0, symName: __ZNSt3__119__to_address_helperINS_16reverse_iteratorIPP9HotelRoomEEvE6__callB8ue170006ERKS5_, symObjAddr: 0x2FB8, symBinAddr: 0x100006F1C, symSize: 0x4C }
  - { offsetInCU: 0xC913, offset: 0xC913, size: 0x8, addend: 0x0, symName: __ZNKSt3__116reverse_iteratorIPP9HotelRoomEptB8ue170006Ev, symObjAddr: 0x3004, symBinAddr: 0x100006F68, symSize: 0x24 }
  - { offsetInCU: 0xC95B, offset: 0xC95B, size: 0x8, addend: 0x0, symName: __ZNKSt3__111__move_loopINS_17_ClassicAlgPolicyEEclB8ue170006INS_16reverse_iteratorIPP9HotelRoomEES8_S8_EENS_4pairIT_T1_EESA_T0_SB_, symObjAddr: 0x32A0, symBinAddr: 0x100007204, symSize: 0xA0 }
  - { offsetInCU: 0xC9C5, offset: 0xC9C5, size: 0x8, addend: 0x0, symName: __ZNSt3__18_IterOpsINS_17_ClassicAlgPolicyEE11__iter_moveB8ue170006IRNS_16reverse_iteratorIPP9HotelRoomEEEENS_9enable_ifIXsr12is_referenceIDTdeclsr3stdE7declvalIRT_EEEEE5valueEDTclsr3stdE4movedeclsr3stdE7declvalISC_EEEEE4typeEOSB_, symObjAddr: 0x34A0, symBinAddr: 0x100007404, symSize: 0x28 }
  - { offsetInCU: 0xC9F1, offset: 0xC9F1, size: 0x8, addend: 0x0, symName: __ZNSt3__18_IterOpsINS_17_ClassicAlgPolicyEE25__validate_iter_referenceB8ue170006IRNS_16reverse_iteratorIPP9HotelRoomEEEEvv, symObjAddr: 0x34C8, symBinAddr: 0x10000742C, symSize: 0x4 }
  - { offsetInCU: 0xCA0F, offset: 0xCA0F, size: 0x8, addend: 0x0, symName: __ZNSt3__118__unwrap_iter_implINS_16reverse_iteratorIPP9HotelRoomEELb0EE8__unwrapB8ue170006ES5_, symObjAddr: 0x34CC, symBinAddr: 0x100007430, symSize: 0x24 }
  - { offsetInCU: 0xCA32, offset: 0xCA32, size: 0x8, addend: 0x0, symName: __ZNSt3__14pairINS_16reverse_iteratorIPP9HotelRoomEES5_EC1B8ue170006ERKS5_S8_, symObjAddr: 0x34F0, symBinAddr: 0x100007454, symSize: 0x3C }
  - { offsetInCU: 0xCA77, offset: 0xCA77, size: 0x8, addend: 0x0, symName: __ZNSt3__14pairINS_16reverse_iteratorIPP9HotelRoomEES5_EC2B8ue170006ERKS5_S8_, symObjAddr: 0x352C, symBinAddr: 0x100007490, symSize: 0x34 }
  - { offsetInCU: 0xCABC, offset: 0xCABC, size: 0x8, addend: 0x0, symName: __ZNSt3__118__unwrap_iter_implINS_16reverse_iteratorIPP9HotelRoomEELb0EE8__rewrapB8ue170006ES5_S5_, symObjAddr: 0x3560, symBinAddr: 0x1000074C4, symSize: 0x2C }
  - { offsetInCU: 0xCAEA, offset: 0xCAEA, size: 0x8, addend: 0x0, symName: __ZNSt3__116reverse_iteratorIPP9HotelRoomEC2B8ue170006ES3_, symObjAddr: 0x358C, symBinAddr: 0x1000074F0, symSize: 0x28 }
  - { offsetInCU: 0xCB21, offset: 0xCB21, size: 0x8, addend: 0x0, symName: __ZNSt3__114__split_bufferIP9HotelRoomRNS_9allocatorIS2_EEED2Ev, symObjAddr: 0x35B4, symBinAddr: 0x100007518, symSize: 0x80 }
  - { offsetInCU: 0xCB4C, offset: 0xCB4C, size: 0x8, addend: 0x0, symName: __ZNSt3__114__split_bufferIP9HotelRoomRNS_9allocatorIS2_EEE5clearB8ue170006Ev, symObjAddr: 0x3634, symBinAddr: 0x100007598, symSize: 0x28 }
  - { offsetInCU: 0xCB71, offset: 0xCB71, size: 0x8, addend: 0x0, symName: __ZNKSt3__114__split_bufferIP9HotelRoomRNS_9allocatorIS2_EEE8capacityB8ue170006Ev, symObjAddr: 0x365C, symBinAddr: 0x1000075C0, symSize: 0x40 }
  - { offsetInCU: 0xCB96, offset: 0xCB96, size: 0x8, addend: 0x0, symName: __ZNSt3__114__split_bufferIP9HotelRoomRNS_9allocatorIS2_EEE17__destruct_at_endB8ue170006EPS2_, symObjAddr: 0x369C, symBinAddr: 0x100007600, symSize: 0x2C }
  - { offsetInCU: 0xCBC8, offset: 0xCBC8, size: 0x8, addend: 0x0, symName: __ZNSt3__114__split_bufferIP9HotelRoomRNS_9allocatorIS2_EEE17__destruct_at_endB8ue170006EPS2_NS_17integral_constantIbLb0EEE, symObjAddr: 0x36C8, symBinAddr: 0x10000762C, symSize: 0x94 }
  - { offsetInCU: 0xCC08, offset: 0xCC08, size: 0x8, addend: 0x0, symName: __ZNKSt3__114__split_bufferIP9HotelRoomRNS_9allocatorIS2_EEE9__end_capB8ue170006Ev, symObjAddr: 0x375C, symBinAddr: 0x1000076C0, symSize: 0x28 }
  - { offsetInCU: 0xCC2D, offset: 0xCC2D, size: 0x8, addend: 0x0, symName: __ZNKSt3__117__compressed_pairIPP9HotelRoomRNS_9allocatorIS2_EEE5firstB8ue170006Ev, symObjAddr: 0x3784, symBinAddr: 0x1000076E8, symSize: 0x24 }
  - { offsetInCU: 0xCC52, offset: 0xCC52, size: 0x8, addend: 0x0, symName: __ZNSt3__16vectorIP9HotelRoomNS_9allocatorIS2_EEE11__make_iterB8ue170006EPS2_, symObjAddr: 0x37A8, symBinAddr: 0x10000770C, symSize: 0x30 }
  - { offsetInCU: 0xCC86, offset: 0xCC86, size: 0x8, addend: 0x0, symName: __ZNSt3__111__wrap_iterIPP9HotelRoomEC1B8ue170006ES3_, symObjAddr: 0x37D8, symBinAddr: 0x10000773C, symSize: 0x34 }
  - { offsetInCU: 0xCCBD, offset: 0xCCBD, size: 0x8, addend: 0x0, symName: __ZNSt3__111__wrap_iterIPP9HotelRoomEC2B8ue170006ES3_, symObjAddr: 0x380C, symBinAddr: 0x100007770, symSize: 0x20 }
  - { offsetInCU: 0xCCF4, offset: 0xCCF4, size: 0x8, addend: 0x0, symName: __ZNKSt3__111__wrap_iterIPP9HotelRoomE4baseB8ue170006Ev, symObjAddr: 0x3874, symBinAddr: 0x1000077D8, symSize: 0x18 }
  - { offsetInCU: 0xCD18, offset: 0xCD18, size: 0x8, addend: 0x0, symName: __ZNKSt3__19basic_iosIcNS_11char_traitsIcEEE5widenB8ue170006Ec, symObjAddr: 0x388C, symBinAddr: 0x1000077F0, symSize: 0x8C }
  - { offsetInCU: 0xCD4E, offset: 0xCD4E, size: 0x8, addend: 0x0, symName: __ZNKSt3__15ctypeIcE5widenB8ue170006Ec, symObjAddr: 0x3918, symBinAddr: 0x10000787C, symSize: 0x38 }
  - { offsetInCU: 0xCD82, offset: 0xCD82, size: 0x8, addend: 0x0, symName: __ZNKSt3__16vectorIP9HotelRoomNS_9allocatorIS2_EEE17__annotate_shrinkB8ue170006Em, symObjAddr: 0x3950, symBinAddr: 0x1000078B4, symSize: 0xB4 }
...
