---
triple:          'arm64-apple-darwin'
binary-path:     '/Users/kajalbormon/Developer/Code/HakerRank/vector_erase/output/vector_erase'
relocations:
  - { offsetInCU: 0x49E3, offset: 0x49E3, size: 0x8, addend: 0x0, symName: __ZNSt3__124__put_character_sequenceB8ue170006IcNS_11char_traitsIcEEEERNS_13basic_ostreamIT_T0_EES7_PKS4_m, symObjAddr: 0x2F58, symBinAddr: 0x100006F5C, symSize: 0x1F4 }
  - { offsetInCU: 0x6558, offset: 0x6558, size: 0x8, addend: 0x0, symName: __ZNSt3__14endlB8ue170006IcNS_11char_traitsIcEEEERNS_13basic_ostreamIT_T0_EES7_, symObjAddr: 0x618, symBinAddr: 0x10000461C, symSize: 0x58 }
  - { offsetInCU: 0x6598, offset: 0x6598, size: 0x8, addend: 0x0, symName: __ZNSt3__1lsB8ue170006INS_11char_traitsIcEEEERNS_13basic_ostreamIcT_EES6_PKc, symObjAddr: 0x670, symBinAddr: 0x100004674, symSize: 0x48 }
  - { offsetInCU: 0x65DE, offset: 0x65DE, size: 0x8, addend: 0x0, symName: __ZNSt3__112__to_addressB8ue170006IiEEPT_S2_, symObjAddr: 0xBC4, symBinAddr: 0x100004BC8, symSize: 0x14 }
  - { offsetInCU: 0x6613, offset: 0x6613, size: 0x8, addend: 0x0, symName: __ZNSt3__130__libcpp_is_constant_evaluatedB8ue170006Ev, symObjAddr: 0xCA4, symBinAddr: 0x100004CA8, symSize: 0xC }
  - { offsetInCU: 0x6630, offset: 0x6630, size: 0x8, addend: 0x0, symName: __ZNSt3__119__libcpp_deallocateB8ue170006EPvmm, symObjAddr: 0xCB0, symBinAddr: 0x100004CB4, symSize: 0x30 }
  - { offsetInCU: 0x6678, offset: 0x6678, size: 0x8, addend: 0x0, symName: __ZNSt3__127__do_deallocate_handle_sizeB8ue170006IJEEEvPvmDpT_, symObjAddr: 0xCE0, symBinAddr: 0x100004CE4, symSize: 0x28 }
  - { offsetInCU: 0x66B6, offset: 0x66B6, size: 0x8, addend: 0x0, symName: __ZNSt3__124__libcpp_operator_deleteB8ue170006IJPvEEEvDpT_, symObjAddr: 0xD08, symBinAddr: 0x100004D0C, symSize: 0x24 }
  - { offsetInCU: 0x66EB, offset: 0x66EB, size: 0x8, addend: 0x0, symName: __ZNSt3__13maxB8ue170006ImEERKT_S3_S3_, symObjAddr: 0x1388, symBinAddr: 0x10000538C, symSize: 0x2C }
  - { offsetInCU: 0x672E, offset: 0x672E, size: 0x8, addend: 0x0, symName: __ZNSt3__13minB8ue170006ImEERKT_S3_S3_, symObjAddr: 0x13B4, symBinAddr: 0x1000053B8, symSize: 0x2C }
  - { offsetInCU: 0x6972, offset: 0x6972, size: 0x8, addend: 0x0, symName: __ZNSt3__13minB8ue170006ImNS_6__lessIvvEEEERKT_S5_S5_T0_, symObjAddr: 0x1440, symBinAddr: 0x100005444, symSize: 0x54 }
  - { offsetInCU: 0x6A11, offset: 0x6A11, size: 0x8, addend: 0x0, symName: __ZNSt3__120__throw_length_errorB8ue170006EPKc, symObjAddr: 0x151C, symBinAddr: 0x100005520, symSize: 0x64 }
  - { offsetInCU: 0x6A3B, offset: 0x6A3B, size: 0x8, addend: 0x0, symName: __ZNSt3__13maxB8ue170006ImNS_6__lessIvvEEEERKT_S5_S5_T0_, symObjAddr: 0x1600, symBinAddr: 0x100005604, symSize: 0x54 }
  - { offsetInCU: 0x6A95, offset: 0x6A95, size: 0x8, addend: 0x0, symName: __ZNSt3__119__allocate_at_leastB8ue170006INS_9allocatorIiEEEENS_19__allocation_resultINS_16allocator_traitsIT_E7pointerEEERS5_m, symObjAddr: 0x1764, symBinAddr: 0x100005768, symSize: 0x40 }
  - { offsetInCU: 0x6AD8, offset: 0x6AD8, size: 0x8, addend: 0x0, symName: __ZNSt3__117__libcpp_allocateB8ue170006Emm, symObjAddr: 0x1914, symBinAddr: 0x100005918, symSize: 0x28 }
  - { offsetInCU: 0x6B15, offset: 0x6B15, size: 0x8, addend: 0x0, symName: __ZNSt3__121__libcpp_operator_newB8ue170006IJmEEEPvDpT_, symObjAddr: 0x193C, symBinAddr: 0x100005940, symSize: 0x24 }
  - { offsetInCU: 0x6B4E, offset: 0x6B4E, size: 0x8, addend: 0x0, symName: __ZNSt3__142__uninitialized_allocator_move_if_noexceptB8ue170006INS_9allocatorIiEENS_16reverse_iteratorIPiEES5_ivEET1_RT_T0_S9_S6_, symObjAddr: 0x19C4, symBinAddr: 0x1000059C8, symSize: 0xE8 }
  - { offsetInCU: 0x6BCB, offset: 0x6BCB, size: 0x8, addend: 0x0, symName: __ZNSt3__14swapB8ue170006IPiEEvRT_S3_, symObjAddr: 0x1AF8, symBinAddr: 0x100005AFC, symSize: 0x3C }
  - { offsetInCU: 0x6C1C, offset: 0x6C1C, size: 0x8, addend: 0x0, symName: __ZNSt3__1neB8ue170006IPiS1_EEbRKNS_16reverse_iteratorIT_EERKNS2_IT0_EE, symObjAddr: 0x1BE0, symBinAddr: 0x100005BE4, symSize: 0x48 }
  - { offsetInCU: 0x6C8D, offset: 0x6C8D, size: 0x8, addend: 0x0, symName: __ZNSt3__114__construct_atB8ue170006IiJiEPiEEPT_S3_DpOT0_, symObjAddr: 0x1C28, symBinAddr: 0x100005C2C, symSize: 0x2C }
  - { offsetInCU: 0x6CFD, offset: 0x6CFD, size: 0x8, addend: 0x0, symName: __ZNSt3__112__to_addressB8ue170006INS_16reverse_iteratorIPiEEvEEu7__decayIDTclsr19__to_address_helperIT_EE6__callclsr3stdE7declvalIRKS4_EEEEES6_, symObjAddr: 0x1C54, symBinAddr: 0x100005C58, symSize: 0x24 }
  - { offsetInCU: 0x6D33, offset: 0x6D33, size: 0x8, addend: 0x0, symName: __ZNSt3__14moveB8ue170006INS_16reverse_iteratorIPiEES3_EET0_T_S5_S4_, symObjAddr: 0x1CC0, symBinAddr: 0x100005CC4, symSize: 0x78 }
  - { offsetInCU: 0x6DB6, offset: 0x6DB6, size: 0x8, addend: 0x0, symName: __ZNSt3__16__moveB8ue170006INS_17_ClassicAlgPolicyENS_16reverse_iteratorIPiEES4_S4_EENS_4pairIT0_T2_EES6_T1_S7_, symObjAddr: 0x1DA8, symBinAddr: 0x100005DAC, symSize: 0x64 }
  - { offsetInCU: 0x6E22, offset: 0x6E22, size: 0x8, addend: 0x0, symName: __ZNSt3__123__dispatch_copy_or_moveB8ue170006INS_17_ClassicAlgPolicyENS_11__move_loopIS1_EENS_14__move_trivialENS_16reverse_iteratorIPiEES7_S7_EENS_4pairIT2_T4_EES9_T3_SA_, symObjAddr: 0x1E0C, symBinAddr: 0x100005E10, symSize: 0x64 }
  - { offsetInCU: 0x6EA0, offset: 0x6EA0, size: 0x8, addend: 0x0, symName: __ZNSt3__121__unwrap_and_dispatchB8ue170006INS_10__overloadINS_11__move_loopINS_17_ClassicAlgPolicyEEENS_14__move_trivialEEENS_16reverse_iteratorIPiEES9_S9_Li0EEENS_4pairIT0_T2_EESB_T1_SC_, symObjAddr: 0x1E70, symBinAddr: 0x100005E74, symSize: 0x12C }
  - { offsetInCU: 0x6F30, offset: 0x6F30, size: 0x8, addend: 0x0, symName: __ZNSt3__114__unwrap_rangeB8ue170006INS_16reverse_iteratorIPiEES3_EENS_4pairIT0_S5_EET_S7_, symObjAddr: 0x1F9C, symBinAddr: 0x100005FA0, symSize: 0x84 }
  - { offsetInCU: 0x7084, offset: 0x7084, size: 0x8, addend: 0x0, symName: __ZNSt3__113__unwrap_iterB8ue170006INS_16reverse_iteratorIPiEENS_18__unwrap_iter_implIS3_Lb0EEELi0EEEDTclsrT0_8__unwrapclsr3stdE7declvalIT_EEEES7_, symObjAddr: 0x20C0, symBinAddr: 0x1000060C4, symSize: 0x44 }
  - { offsetInCU: 0x70C8, offset: 0x70C8, size: 0x8, addend: 0x0, symName: __ZNSt3__19make_pairB8ue170006INS_16reverse_iteratorIPiEES3_EENS_4pairINS_18__unwrap_ref_decayIT_E4typeENS5_IT0_E4typeEEEOS6_OS9_, symObjAddr: 0x2104, symBinAddr: 0x100006108, symSize: 0x38 }
  - { offsetInCU: 0x7117, offset: 0x7117, size: 0x8, addend: 0x0, symName: __ZNSt3__114__rewrap_rangeB8ue170006INS_16reverse_iteratorIPiEES3_EET_S4_T0_, symObjAddr: 0x213C, symBinAddr: 0x100006140, symSize: 0x5C }
  - { offsetInCU: 0x7163, offset: 0x7163, size: 0x8, addend: 0x0, symName: __ZNSt3__113__rewrap_iterB8ue170006INS_16reverse_iteratorIPiEES3_NS_18__unwrap_iter_implIS3_Lb0EEEEET_S6_T0_, symObjAddr: 0x2198, symBinAddr: 0x10000619C, symSize: 0x88 }
  - { offsetInCU: 0x726A, offset: 0x726A, size: 0x8, addend: 0x0, symName: __ZNSt3__1miB8ue170006IPKiS2_EENS_11__wrap_iterIT_E15difference_typeERKS5_RKNS3_IT0_EE, symObjAddr: 0x25D4, symBinAddr: 0x1000065D8, symSize: 0x48 }
  - { offsetInCU: 0x72B6, offset: 0x72B6, size: 0x8, addend: 0x0, symName: __ZNSt3__14moveB8ue170006IPiS1_EET0_T_S3_S2_, symObjAddr: 0x2694, symBinAddr: 0x100006698, symSize: 0x40 }
  - { offsetInCU: 0x7310, offset: 0x7310, size: 0x8, addend: 0x0, symName: __ZNSt3__16__moveB8ue170006INS_17_ClassicAlgPolicyEPiS2_S2_EENS_4pairIT0_T2_EES4_T1_S5_, symObjAddr: 0x2854, symBinAddr: 0x100006858, symSize: 0x44 }
  - { offsetInCU: 0x737C, offset: 0x737C, size: 0x8, addend: 0x0, symName: __ZNSt3__123__dispatch_copy_or_moveB8ue170006INS_17_ClassicAlgPolicyENS_11__move_loopIS1_EENS_14__move_trivialEPiS5_S5_EENS_4pairIT2_T4_EES7_T3_S8_, symObjAddr: 0x2898, symBinAddr: 0x10000689C, symSize: 0x44 }
  - { offsetInCU: 0x73FA, offset: 0x73FA, size: 0x8, addend: 0x0, symName: __ZNSt3__121__unwrap_and_dispatchB8ue170006INS_10__overloadINS_11__move_loopINS_17_ClassicAlgPolicyEEENS_14__move_trivialEEEPiS7_S7_Li0EEENS_4pairIT0_T2_EES9_T1_SA_, symObjAddr: 0x28DC, symBinAddr: 0x1000068E0, symSize: 0xB4 }
  - { offsetInCU: 0x7488, offset: 0x7488, size: 0x8, addend: 0x0, symName: __ZNSt3__114__unwrap_rangeB8ue170006IPiS1_EENS_4pairIT0_S3_EET_S5_, symObjAddr: 0x2990, symBinAddr: 0x100006994, symSize: 0x60 }
  - { offsetInCU: 0x75C7, offset: 0x75C7, size: 0x8, addend: 0x0, symName: __ZNSt3__113__unwrap_iterB8ue170006IPiNS_18__unwrap_iter_implIS1_Lb1EEELi0EEEDTclsrT0_8__unwrapclsr3stdE7declvalIT_EEEES5_, symObjAddr: 0x2A38, symBinAddr: 0x100006A3C, symSize: 0x24 }
  - { offsetInCU: 0x760B, offset: 0x760B, size: 0x8, addend: 0x0, symName: __ZNSt3__19make_pairB8ue170006IPiS1_EENS_4pairINS_18__unwrap_ref_decayIT_E4typeENS3_IT0_E4typeEEEOS4_OS7_, symObjAddr: 0x2A5C, symBinAddr: 0x100006A60, symSize: 0x38 }
  - { offsetInCU: 0x765A, offset: 0x765A, size: 0x8, addend: 0x0, symName: __ZNSt3__114__rewrap_rangeB8ue170006IPiS1_EET_S2_T0_, symObjAddr: 0x2A94, symBinAddr: 0x100006A98, symSize: 0x2C }
  - { offsetInCU: 0x76A6, offset: 0x76A6, size: 0x8, addend: 0x0, symName: __ZNSt3__113__rewrap_iterB8ue170006IPiS1_NS_18__unwrap_iter_implIS1_Lb1EEEEET_S4_T0_, symObjAddr: 0x2AC0, symBinAddr: 0x100006AC4, symSize: 0x50 }
  - { offsetInCU: 0x76FB, offset: 0x76FB, size: 0x8, addend: 0x0, symName: __ZNSt3__119__copy_trivial_implB8ue170006IiiEENS_4pairIPT_PT0_EES3_S3_S5_, symObjAddr: 0x2B10, symBinAddr: 0x100006B14, symSize: 0x80 }
  - { offsetInCU: 0x7763, offset: 0x7763, size: 0x8, addend: 0x0, symName: __ZNSt3__119__constexpr_memmoveB8ue170006IiiLi0EEEPT_S2_PT0_NS_15__element_countE, symObjAddr: 0x2B90, symBinAddr: 0x100006B94, symSize: 0xA0 }
  - { offsetInCU: 0x77D1, offset: 0x77D1, size: 0x8, addend: 0x0, symName: __ZNSt3__19make_pairB8ue170006IRPiS1_EENS_4pairINS_18__unwrap_ref_decayIT_E4typeENS4_IT0_E4typeEEEOS5_OS8_, symObjAddr: 0x2C30, symBinAddr: 0x100006C34, symSize: 0x38 }
  - { offsetInCU: 0x7873, offset: 0x7873, size: 0x8, addend: 0x0, symName: __ZNSt3__1miB8ue170006IPKiPiEENS_11__wrap_iterIT_E15difference_typeERKS6_RKNS4_IT0_EE, symObjAddr: 0x2DA4, symBinAddr: 0x100006DA8, symSize: 0x48 }
  - { offsetInCU: 0x78BF, offset: 0x78BF, size: 0x8, addend: 0x0, symName: __ZNSt3__1neB8ue170006IPKiEEbRKNS_11__wrap_iterIT_EES7_, symObjAddr: 0x2DEC, symBinAddr: 0x100006DF0, symSize: 0x34 }
  - { offsetInCU: 0x7902, offset: 0x7902, size: 0x8, addend: 0x0, symName: __ZNSt3__1eqB8ue170006IPKiEEbRKNS_11__wrap_iterIT_EES7_, symObjAddr: 0x2E20, symBinAddr: 0x100006E24, symSize: 0x48 }
  - { offsetInCU: 0x7945, offset: 0x7945, size: 0x8, addend: 0x0, symName: __ZNSt3__19use_facetB8ue170006INS_5ctypeIcEEEERKT_RKNS_6localeE, symObjAddr: 0x2EF4, symBinAddr: 0x100006EF8, symSize: 0x2C }
  - { offsetInCU: 0x7E12, offset: 0x7E12, size: 0x8, addend: 0x0, symName: __ZNSt3__116__pad_and_outputB8ue170006IcNS_11char_traitsIcEEEENS_19ostreambuf_iteratorIT_T0_EES6_PKS4_S8_S8_RNS_8ios_baseES4_, symObjAddr: 0x31B0, symBinAddr: 0x1000071B4, symSize: 0x248 }
  - { offsetInCU: 0x7EE1, offset: 0x7EE1, size: 0x8, addend: 0x0, symName: __ZNSt3__112__to_addressB8ue170006IKcEEPT_S3_, symObjAddr: 0x3720, symBinAddr: 0x100007724, symSize: 0x14 }
  - { offsetInCU: 0x7F49, offset: 0x7F49, size: 0x8, addend: 0x0, symName: __ZNSt3__118__constexpr_strlenB8ue170006EPKc, symObjAddr: 0x39A0, symBinAddr: 0x1000079A4, symSize: 0x24 }
  - { offsetInCU: 0x814A, offset: 0x814A, size: 0x8, addend: 0x0, symName: __ZSt28__throw_bad_array_new_lengthB8ue170006v, symObjAddr: 0x18E0, symBinAddr: 0x1000058E4, symSize: 0x34 }
  - { offsetInCU: 0x85F5, offset: 0x85F5, size: 0x8, addend: 0x0, symName: __ZNSt3__16vectorIiNS_9allocatorIiEEE26__swap_out_circular_bufferERNS_14__split_bufferIiRS2_EE, symObjAddr: 0x11BC, symBinAddr: 0x1000051C0, symSize: 0x110 }
  - { offsetInCU: 0xAA0A, offset: 0xAA0A, size: 0x8, addend: 0x0, symName: _main, symObjAddr: 0x0, symBinAddr: 0x100004004, symSize: 0x2E4 }
  - { offsetInCU: 0xAA97, offset: 0xAA97, size: 0x8, addend: 0x0, symName: __ZNSt3__16vectorIiNS_9allocatorIiEEEC1B8ue170006Ev, symObjAddr: 0x2E4, symBinAddr: 0x1000042E8, symSize: 0x2C }
  - { offsetInCU: 0xAABF, offset: 0xAABF, size: 0x8, addend: 0x0, symName: __ZNSt3__16vectorIiNS_9allocatorIiEEE9push_backB8ue170006ERKi, symObjAddr: 0x310, symBinAddr: 0x100004314, symSize: 0x6C }
  - { offsetInCU: 0xAAF4, offset: 0xAAF4, size: 0x8, addend: 0x0, symName: __ZNSt3__16vectorIiNS_9allocatorIiEEE5eraseB8ue170006ENS_11__wrap_iterIPKiEE, symObjAddr: 0x37C, symBinAddr: 0x100004380, symSize: 0x94 }
  - { offsetInCU: 0xAB47, offset: 0xAB47, size: 0x8, addend: 0x0, symName: __ZNSt3__16vectorIiNS_9allocatorIiEEE5beginB8ue170006Ev, symObjAddr: 0x410, symBinAddr: 0x100004414, symSize: 0x30 }
  - { offsetInCU: 0xAB6E, offset: 0xAB6E, size: 0x8, addend: 0x0, symName: __ZNKSt3__111__wrap_iterIPiEplB8ue170006El, symObjAddr: 0x440, symBinAddr: 0x100004444, symSize: 0x3C }
  - { offsetInCU: 0xABAF, offset: 0xABAF, size: 0x8, addend: 0x0, symName: __ZNKSt3__111__wrap_iterIPiEmiB8ue170006El, symObjAddr: 0x47C, symBinAddr: 0x100004480, symSize: 0x3C }
  - { offsetInCU: 0xABEC, offset: 0xABEC, size: 0x8, addend: 0x0, symName: __ZNSt3__111__wrap_iterIPKiEC1B8ue170006IPiEERKNS0_IT_EEPNS_9enable_ifIXsr14is_convertibleIS6_S2_EE5valueEvE4typeE, symObjAddr: 0x4B8, symBinAddr: 0x1000044BC, symSize: 0x3C }
  - { offsetInCU: 0xAC36, offset: 0xAC36, size: 0x8, addend: 0x0, symName: __ZNSt3__16vectorIiNS_9allocatorIiEEE5eraseENS_11__wrap_iterIPKiEES7_, symObjAddr: 0x4F4, symBinAddr: 0x1000044F8, symSize: 0xD0 }
  - { offsetInCU: 0xAC8A, offset: 0xAC8A, size: 0x8, addend: 0x0, symName: __ZNKSt3__16vectorIiNS_9allocatorIiEEE4sizeB8ue170006Ev, symObjAddr: 0x5C4, symBinAddr: 0x1000045C8, symSize: 0x28 }
  - { offsetInCU: 0xACAF, offset: 0xACAF, size: 0x8, addend: 0x0, symName: __ZNSt3__113basic_ostreamIcNS_11char_traitsIcEEElsB8ue170006EPFRS3_S4_E, symObjAddr: 0x5EC, symBinAddr: 0x1000045F0, symSize: 0x2C }
  - { offsetInCU: 0xACE2, offset: 0xACE2, size: 0x8, addend: 0x0, symName: __ZNSt3__16vectorIiNS_9allocatorIiEEEixB8ue170006Em, symObjAddr: 0x6B8, symBinAddr: 0x1000046BC, symSize: 0x24 }
  - { offsetInCU: 0xAD18, offset: 0xAD18, size: 0x8, addend: 0x0, symName: __ZNSt3__16vectorIiNS_9allocatorIiEEED1B8ue170006Ev, symObjAddr: 0x6DC, symBinAddr: 0x1000046E0, symSize: 0x2C }
  - { offsetInCU: 0xAD41, offset: 0xAD41, size: 0x8, addend: 0x0, symName: __ZNSt3__16vectorIiNS_9allocatorIiEEEC2B8ue170006Ev, symObjAddr: 0x714, symBinAddr: 0x100004718, symSize: 0x44 }
  - { offsetInCU: 0xAD74, offset: 0xAD74, size: 0x8, addend: 0x0, symName: __ZNSt3__117__compressed_pairIPiNS_9allocatorIiEEEC1B8ue170006IDnNS_18__default_init_tagEEEOT_OT0_, symObjAddr: 0x758, symBinAddr: 0x10000475C, symSize: 0x3C }
  - { offsetInCU: 0xADCB, offset: 0xADCB, size: 0x8, addend: 0x0, symName: __ZNSt3__117__compressed_pairIPiNS_9allocatorIiEEEC2B8ue170006IDnNS_18__default_init_tagEEEOT_OT0_, symObjAddr: 0x794, symBinAddr: 0x100004798, symSize: 0x40 }
  - { offsetInCU: 0xAE22, offset: 0xAE22, size: 0x8, addend: 0x0, symName: __ZNSt3__122__compressed_pair_elemIPiLi0ELb0EEC2B8ue170006IDnvEEOT_, symObjAddr: 0x7D4, symBinAddr: 0x1000047D8, symSize: 0x1C }
  - { offsetInCU: 0xAE63, offset: 0xAE63, size: 0x8, addend: 0x0, symName: __ZNSt3__122__compressed_pair_elemINS_9allocatorIiEELi1ELb1EEC2B8ue170006ENS_18__default_init_tagE, symObjAddr: 0x7F0, symBinAddr: 0x1000047F4, symSize: 0x2C }
  - { offsetInCU: 0xAE97, offset: 0xAE97, size: 0x8, addend: 0x0, symName: __ZNSt3__19allocatorIiEC2B8ue170006Ev, symObjAddr: 0x81C, symBinAddr: 0x100004820, symSize: 0x2C }
  - { offsetInCU: 0xAEC0, offset: 0xAEC0, size: 0x8, addend: 0x0, symName: __ZNSt3__116__non_trivial_ifILb1ENS_9allocatorIiEEEC2B8ue170006Ev, symObjAddr: 0x848, symBinAddr: 0x10000484C, symSize: 0x14 }
  - { offsetInCU: 0xAEE9, offset: 0xAEE9, size: 0x8, addend: 0x0, symName: __ZNSt3__16vectorIiNS_9allocatorIiEEED2B8ue170006Ev, symObjAddr: 0x85C, symBinAddr: 0x100004860, symSize: 0x3C }
  - { offsetInCU: 0xAF12, offset: 0xAF12, size: 0x8, addend: 0x0, symName: __ZNSt3__16vectorIiNS_9allocatorIiEEE16__destroy_vectorC1B8ue170006ERS3_, symObjAddr: 0x898, symBinAddr: 0x10000489C, symSize: 0x34 }
  - { offsetInCU: 0xAF4A, offset: 0xAF4A, size: 0x8, addend: 0x0, symName: __ZNSt3__16vectorIiNS_9allocatorIiEEE16__destroy_vectorclB8ue170006Ev, symObjAddr: 0x8CC, symBinAddr: 0x1000048D0, symSize: 0x90 }
  - { offsetInCU: 0xAF6F, offset: 0xAF6F, size: 0x8, addend: 0x0, symName: __ZNSt3__16vectorIiNS_9allocatorIiEEE16__destroy_vectorC2B8ue170006ERS3_, symObjAddr: 0x95C, symBinAddr: 0x100004960, symSize: 0x20 }
  - { offsetInCU: 0xAFA7, offset: 0xAFA7, size: 0x8, addend: 0x0, symName: __ZNSt3__16vectorIiNS_9allocatorIiEEE7__clearB8ue170006Ev, symObjAddr: 0x97C, symBinAddr: 0x100004980, symSize: 0x28 }
  - { offsetInCU: 0xAFCC, offset: 0xAFCC, size: 0x8, addend: 0x0, symName: __ZNKSt3__16vectorIiNS_9allocatorIiEEE17__annotate_deleteB8ue170006Ev, symObjAddr: 0x9A4, symBinAddr: 0x1000049A8, symSize: 0xB8 }
  - { offsetInCU: 0xAFF1, offset: 0xAFF1, size: 0x8, addend: 0x0, symName: __ZNSt3__116allocator_traitsINS_9allocatorIiEEE10deallocateB8ue170006ERS2_Pim, symObjAddr: 0xA5C, symBinAddr: 0x100004A60, symSize: 0x34 }
  - { offsetInCU: 0xB033, offset: 0xB033, size: 0x8, addend: 0x0, symName: __ZNSt3__16vectorIiNS_9allocatorIiEEE7__allocB8ue170006Ev, symObjAddr: 0xA90, symBinAddr: 0x100004A94, symSize: 0x28 }
  - { offsetInCU: 0xB058, offset: 0xB058, size: 0x8, addend: 0x0, symName: __ZNKSt3__16vectorIiNS_9allocatorIiEEE8capacityB8ue170006Ev, symObjAddr: 0xAB8, symBinAddr: 0x100004ABC, symSize: 0x40 }
  - { offsetInCU: 0xB07D, offset: 0xB07D, size: 0x8, addend: 0x0, symName: __ZNSt3__16vectorIiNS_9allocatorIiEEE22__base_destruct_at_endB8ue170006EPi, symObjAddr: 0xAF8, symBinAddr: 0x100004AFC, symSize: 0xA0 }
  - { offsetInCU: 0xB0C0, offset: 0xB0C0, size: 0x8, addend: 0x0, symName: __ZNSt3__116allocator_traitsINS_9allocatorIiEEE7destroyB8ue170006IivEEvRS2_PT_, symObjAddr: 0xB98, symBinAddr: 0x100004B9C, symSize: 0x2C }
  - { offsetInCU: 0xB0FD, offset: 0xB0FD, size: 0x8, addend: 0x0, symName: __ZNSt3__19allocatorIiE7destroyB8ue170006EPi, symObjAddr: 0xBD8, symBinAddr: 0x100004BDC, symSize: 0x14 }
  - { offsetInCU: 0xB130, offset: 0xB130, size: 0x8, addend: 0x0, symName: __ZNKSt3__16vectorIiNS_9allocatorIiEEE31__annotate_contiguous_containerB8ue170006EPKvS5_S5_S5_, symObjAddr: 0xBEC, symBinAddr: 0x100004BF0, symSize: 0x20 }
  - { offsetInCU: 0xB181, offset: 0xB181, size: 0x8, addend: 0x0, symName: __ZNKSt3__16vectorIiNS_9allocatorIiEEE4dataB8ue170006Ev, symObjAddr: 0xC0C, symBinAddr: 0x100004C10, symSize: 0x28 }
  - { offsetInCU: 0xB1A6, offset: 0xB1A6, size: 0x8, addend: 0x0, symName: __ZNSt3__19allocatorIiE10deallocateB8ue170006EPim, symObjAddr: 0xC34, symBinAddr: 0x100004C38, symSize: 0x70 }
  - { offsetInCU: 0xB1E7, offset: 0xB1E7, size: 0x8, addend: 0x0, symName: __ZNSt3__117__compressed_pairIPiNS_9allocatorIiEEE6secondB8ue170006Ev, symObjAddr: 0xD2C, symBinAddr: 0x100004D30, symSize: 0x24 }
  - { offsetInCU: 0xB20C, offset: 0xB20C, size: 0x8, addend: 0x0, symName: __ZNSt3__122__compressed_pair_elemINS_9allocatorIiEELi1ELb1EE5__getB8ue170006Ev, symObjAddr: 0xD50, symBinAddr: 0x100004D54, symSize: 0x14 }
  - { offsetInCU: 0xB231, offset: 0xB231, size: 0x8, addend: 0x0, symName: __ZNKSt3__16vectorIiNS_9allocatorIiEEE9__end_capB8ue170006Ev, symObjAddr: 0xD64, symBinAddr: 0x100004D68, symSize: 0x28 }
  - { offsetInCU: 0xB256, offset: 0xB256, size: 0x8, addend: 0x0, symName: __ZNKSt3__117__compressed_pairIPiNS_9allocatorIiEEE5firstB8ue170006Ev, symObjAddr: 0xD8C, symBinAddr: 0x100004D90, symSize: 0x24 }
  - { offsetInCU: 0xB27B, offset: 0xB27B, size: 0x8, addend: 0x0, symName: __ZNKSt3__122__compressed_pair_elemIPiLi0ELb0EE5__getB8ue170006Ev, symObjAddr: 0xDB0, symBinAddr: 0x100004DB4, symSize: 0x14 }
  - { offsetInCU: 0xB2A0, offset: 0xB2A0, size: 0x8, addend: 0x0, symName: __ZNSt3__16vectorIiNS_9allocatorIiEEE9__end_capB8ue170006Ev, symObjAddr: 0xDC4, symBinAddr: 0x100004DC8, symSize: 0x28 }
  - { offsetInCU: 0xB2C5, offset: 0xB2C5, size: 0x8, addend: 0x0, symName: __ZNSt3__16vectorIiNS_9allocatorIiEEE22__construct_one_at_endB8ue170006IJRKiEEEvDpOT_, symObjAddr: 0xDEC, symBinAddr: 0x100004DF0, symSize: 0x98 }
  - { offsetInCU: 0xB312, offset: 0xB312, size: 0x8, addend: 0x0, symName: __ZNSt3__16vectorIiNS_9allocatorIiEEE21__push_back_slow_pathIRKiEEvOT_, symObjAddr: 0xE84, symBinAddr: 0x100004E88, symSize: 0xE0 }
  - { offsetInCU: 0xB36F, offset: 0xB36F, size: 0x8, addend: 0x0, symName: __ZNSt3__117__compressed_pairIPiNS_9allocatorIiEEE5firstB8ue170006Ev, symObjAddr: 0xF64, symBinAddr: 0x100004F68, symSize: 0x24 }
  - { offsetInCU: 0xB394, offset: 0xB394, size: 0x8, addend: 0x0, symName: __ZNSt3__122__compressed_pair_elemIPiLi0ELb0EE5__getB8ue170006Ev, symObjAddr: 0xF88, symBinAddr: 0x100004F8C, symSize: 0x14 }
  - { offsetInCU: 0xB3D2, offset: 0xB3D2, size: 0x8, addend: 0x0, symName: __ZNSt3__16vectorIiNS_9allocatorIiEEE21_ConstructTransactionC1B8ue170006ERS3_m, symObjAddr: 0xF9C, symBinAddr: 0x100004FA0, symSize: 0x3C }
  - { offsetInCU: 0xB419, offset: 0xB419, size: 0x8, addend: 0x0, symName: __ZNSt3__116allocator_traitsINS_9allocatorIiEEE9constructB8ue170006IiJRKiEvEEvRS2_PT_DpOT0_, symObjAddr: 0xFD8, symBinAddr: 0x100004FDC, symSize: 0x34 }
  - { offsetInCU: 0xB470, offset: 0xB470, size: 0x8, addend: 0x0, symName: __ZNSt3__16vectorIiNS_9allocatorIiEEE21_ConstructTransactionD1B8ue170006Ev, symObjAddr: 0x100C, symBinAddr: 0x100005010, symSize: 0x2C }
  - { offsetInCU: 0xB499, offset: 0xB499, size: 0x8, addend: 0x0, symName: __ZNSt3__16vectorIiNS_9allocatorIiEEE21_ConstructTransactionC2B8ue170006ERS3_m, symObjAddr: 0x1038, symBinAddr: 0x10000503C, symSize: 0x44 }
  - { offsetInCU: 0xB4E0, offset: 0xB4E0, size: 0x8, addend: 0x0, symName: __ZNSt3__19allocatorIiE9constructB8ue170006IiJRKiEEEvPT_DpOT0_, symObjAddr: 0x107C, symBinAddr: 0x100005080, symSize: 0x28 }
  - { offsetInCU: 0xB535, offset: 0xB535, size: 0x8, addend: 0x0, symName: __ZNSt3__16vectorIiNS_9allocatorIiEEE21_ConstructTransactionD2B8ue170006Ev, symObjAddr: 0x10A4, symBinAddr: 0x1000050A8, symSize: 0x20 }
  - { offsetInCU: 0xB55D, offset: 0xB55D, size: 0x8, addend: 0x0, symName: __ZNKSt3__16vectorIiNS_9allocatorIiEEE11__recommendB8ue170006Em, symObjAddr: 0x10C4, symBinAddr: 0x1000050C8, symSize: 0xB4 }
  - { offsetInCU: 0xB5B1, offset: 0xB5B1, size: 0x8, addend: 0x0, symName: __ZNSt3__114__split_bufferIiRNS_9allocatorIiEEEC1EmmS3_, symObjAddr: 0x1178, symBinAddr: 0x10000517C, symSize: 0x44 }
  - { offsetInCU: 0xB606, offset: 0xB606, size: 0x8, addend: 0x0, symName: __ZNSt3__114__split_bufferIiRNS_9allocatorIiEEED1Ev, symObjAddr: 0x12CC, symBinAddr: 0x1000052D0, symSize: 0x2C }
  - { offsetInCU: 0xB630, offset: 0xB630, size: 0x8, addend: 0x0, symName: __ZNKSt3__16vectorIiNS_9allocatorIiEEE8max_sizeEv, symObjAddr: 0x12F8, symBinAddr: 0x1000052FC, symSize: 0x74 }
  - { offsetInCU: 0xB657, offset: 0xB657, size: 0x8, addend: 0x0, symName: __ZNKSt3__16vectorIiNS_9allocatorIiEEE20__throw_length_errorB8ue170006Ev, symObjAddr: 0x136C, symBinAddr: 0x100005370, symSize: 0x1C }
  - { offsetInCU: 0xB686, offset: 0xB686, size: 0x8, addend: 0x0, symName: __ZNSt3__116allocator_traitsINS_9allocatorIiEEE8max_sizeB8ue170006IS2_vEEmRKS2_, symObjAddr: 0x13E0, symBinAddr: 0x1000053E4, symSize: 0x24 }
  - { offsetInCU: 0xB6B4, offset: 0xB6B4, size: 0x8, addend: 0x0, symName: __ZNKSt3__16vectorIiNS_9allocatorIiEEE7__allocB8ue170006Ev, symObjAddr: 0x1404, symBinAddr: 0x100005408, symSize: 0x28 }
  - { offsetInCU: 0xB6D9, offset: 0xB6D9, size: 0x8, addend: 0x0, symName: __ZNSt3__114numeric_limitsIlE3maxB8ue170006Ev, symObjAddr: 0x142C, symBinAddr: 0x100005430, symSize: 0x14 }
  - { offsetInCU: 0xB701, offset: 0xB701, size: 0x8, addend: 0x0, symName: __ZNKSt3__16__lessIvvEclB8ue170006ImmEEbRKT_RKT0_, symObjAddr: 0x1494, symBinAddr: 0x100005498, symSize: 0x34 }
  - { offsetInCU: 0xB754, offset: 0xB754, size: 0x8, addend: 0x0, symName: __ZNKSt3__19allocatorIiE8max_sizeB8ue170006Ev, symObjAddr: 0x14C8, symBinAddr: 0x1000054CC, symSize: 0x14 }
  - { offsetInCU: 0xB779, offset: 0xB779, size: 0x8, addend: 0x0, symName: __ZNKSt3__117__compressed_pairIPiNS_9allocatorIiEEE6secondB8ue170006Ev, symObjAddr: 0x14DC, symBinAddr: 0x1000054E0, symSize: 0x24 }
  - { offsetInCU: 0xB79E, offset: 0xB79E, size: 0x8, addend: 0x0, symName: __ZNKSt3__122__compressed_pair_elemINS_9allocatorIiEELi1ELb1EE5__getB8ue170006Ev, symObjAddr: 0x1500, symBinAddr: 0x100005504, symSize: 0x14 }
  - { offsetInCU: 0xB7C3, offset: 0xB7C3, size: 0x8, addend: 0x0, symName: __ZNSt3__123__libcpp_numeric_limitsIlLb1EE3maxB8ue170006Ev, symObjAddr: 0x1514, symBinAddr: 0x100005518, symSize: 0x8 }
  - { offsetInCU: 0xB7D7, offset: 0xB7D7, size: 0x8, addend: 0x0, symName: __ZNSt12length_errorC1B8ue170006EPKc, symObjAddr: 0x1580, symBinAddr: 0x100005584, symSize: 0x34 }
  - { offsetInCU: 0xB80E, offset: 0xB80E, size: 0x8, addend: 0x0, symName: __ZNSt12length_errorC2B8ue170006EPKc, symObjAddr: 0x15B4, symBinAddr: 0x1000055B8, symSize: 0x4C }
  - { offsetInCU: 0xB845, offset: 0xB845, size: 0x8, addend: 0x0, symName: __ZNSt3__114__split_bufferIiRNS_9allocatorIiEEEC2EmmS3_, symObjAddr: 0x1654, symBinAddr: 0x100005658, symSize: 0xD4 }
  - { offsetInCU: 0xB8B8, offset: 0xB8B8, size: 0x8, addend: 0x0, symName: __ZNSt3__117__compressed_pairIPiRNS_9allocatorIiEEEC1B8ue170006IDnS4_EEOT_OT0_, symObjAddr: 0x1728, symBinAddr: 0x10000572C, symSize: 0x3C }
  - { offsetInCU: 0xB90F, offset: 0xB90F, size: 0x8, addend: 0x0, symName: __ZNSt3__114__split_bufferIiRNS_9allocatorIiEEE7__allocB8ue170006Ev, symObjAddr: 0x17A4, symBinAddr: 0x1000057A8, symSize: 0x28 }
  - { offsetInCU: 0xB934, offset: 0xB934, size: 0x8, addend: 0x0, symName: __ZNSt3__114__split_bufferIiRNS_9allocatorIiEEE9__end_capB8ue170006Ev, symObjAddr: 0x17CC, symBinAddr: 0x1000057D0, symSize: 0x28 }
  - { offsetInCU: 0xB959, offset: 0xB959, size: 0x8, addend: 0x0, symName: __ZNSt3__117__compressed_pairIPiRNS_9allocatorIiEEEC2B8ue170006IDnS4_EEOT_OT0_, symObjAddr: 0x17F4, symBinAddr: 0x1000057F8, symSize: 0x48 }
  - { offsetInCU: 0xB9B0, offset: 0xB9B0, size: 0x8, addend: 0x0, symName: __ZNSt3__122__compressed_pair_elemIRNS_9allocatorIiEELi1ELb0EEC2B8ue170006IS3_vEEOT_, symObjAddr: 0x183C, symBinAddr: 0x100005840, symSize: 0x20 }
  - { offsetInCU: 0xB9F1, offset: 0xB9F1, size: 0x8, addend: 0x0, symName: __ZNSt3__19allocatorIiE8allocateB8ue170006Em, symObjAddr: 0x185C, symBinAddr: 0x100005860, symSize: 0x84 }
  - { offsetInCU: 0xBA24, offset: 0xBA24, size: 0x8, addend: 0x0, symName: __ZNSt3__117__compressed_pairIPiRNS_9allocatorIiEEE6secondB8ue170006Ev, symObjAddr: 0x1960, symBinAddr: 0x100005964, symSize: 0x28 }
  - { offsetInCU: 0xBA49, offset: 0xBA49, size: 0x8, addend: 0x0, symName: __ZNSt3__122__compressed_pair_elemIRNS_9allocatorIiEELi1ELb0EE5__getB8ue170006Ev, symObjAddr: 0x1988, symBinAddr: 0x10000598C, symSize: 0x18 }
  - { offsetInCU: 0xBA6E, offset: 0xBA6E, size: 0x8, addend: 0x0, symName: __ZNSt3__117__compressed_pairIPiRNS_9allocatorIiEEE5firstB8ue170006Ev, symObjAddr: 0x19A0, symBinAddr: 0x1000059A4, symSize: 0x24 }
  - { offsetInCU: 0xBA93, offset: 0xBA93, size: 0x8, addend: 0x0, symName: __ZNSt3__116reverse_iteratorIPiEC1B8ue170006ES1_, symObjAddr: 0x1AAC, symBinAddr: 0x100005AB0, symSize: 0x34 }
  - { offsetInCU: 0xBACA, offset: 0xBACA, size: 0x8, addend: 0x0, symName: __ZNKSt3__116reverse_iteratorIPiE4baseB8ue170006Ev, symObjAddr: 0x1AE0, symBinAddr: 0x100005AE4, symSize: 0x18 }
  - { offsetInCU: 0xBAEF, offset: 0xBAEF, size: 0x8, addend: 0x0, symName: __ZNKSt3__16vectorIiNS_9allocatorIiEEE14__annotate_newB8ue170006Em, symObjAddr: 0x1B34, symBinAddr: 0x100005B38, symSize: 0xAC }
  - { offsetInCU: 0xBB23, offset: 0xBB23, size: 0x8, addend: 0x0, symName: __ZNKSt3__116reverse_iteratorIPiEdeB8ue170006Ev, symObjAddr: 0x1C78, symBinAddr: 0x100005C7C, symSize: 0x28 }
  - { offsetInCU: 0xBB56, offset: 0xBB56, size: 0x8, addend: 0x0, symName: __ZNSt3__116reverse_iteratorIPiEppB8ue170006Ev, symObjAddr: 0x1CA0, symBinAddr: 0x100005CA4, symSize: 0x20 }
  - { offsetInCU: 0xBB80, offset: 0xBB80, size: 0x8, addend: 0x0, symName: __ZNSt3__119__to_address_helperINS_16reverse_iteratorIPiEEvE6__callB8ue170006ERKS3_, symObjAddr: 0x1D38, symBinAddr: 0x100005D3C, symSize: 0x4C }
  - { offsetInCU: 0xBBA3, offset: 0xBBA3, size: 0x8, addend: 0x0, symName: __ZNKSt3__116reverse_iteratorIPiEptB8ue170006Ev, symObjAddr: 0x1D84, symBinAddr: 0x100005D88, symSize: 0x24 }
  - { offsetInCU: 0xBBEB, offset: 0xBBEB, size: 0x8, addend: 0x0, symName: __ZNKSt3__111__move_loopINS_17_ClassicAlgPolicyEEclB8ue170006INS_16reverse_iteratorIPiEES6_S6_EENS_4pairIT_T1_EES8_T0_S9_, symObjAddr: 0x2020, symBinAddr: 0x100006024, symSize: 0xA0 }
  - { offsetInCU: 0xBC5A, offset: 0xBC5A, size: 0x8, addend: 0x0, symName: __ZNSt3__18_IterOpsINS_17_ClassicAlgPolicyEE11__iter_moveB8ue170006IRNS_16reverse_iteratorIPiEEEENS_9enable_ifIXsr12is_referenceIDTdeclsr3stdE7declvalIRT_EEEEE5valueEDTclsr3stdE4movedeclsr3stdE7declvalISA_EEEEE4typeEOS9_, symObjAddr: 0x2220, symBinAddr: 0x100006224, symSize: 0x28 }
  - { offsetInCU: 0xBC86, offset: 0xBC86, size: 0x8, addend: 0x0, symName: __ZNSt3__18_IterOpsINS_17_ClassicAlgPolicyEE25__validate_iter_referenceB8ue170006IRNS_16reverse_iteratorIPiEEEEvv, symObjAddr: 0x2248, symBinAddr: 0x10000624C, symSize: 0x4 }
  - { offsetInCU: 0xBCA4, offset: 0xBCA4, size: 0x8, addend: 0x0, symName: __ZNSt3__118__unwrap_iter_implINS_16reverse_iteratorIPiEELb0EE8__unwrapB8ue170006ES3_, symObjAddr: 0x224C, symBinAddr: 0x100006250, symSize: 0x24 }
  - { offsetInCU: 0xBCC7, offset: 0xBCC7, size: 0x8, addend: 0x0, symName: __ZNSt3__14pairINS_16reverse_iteratorIPiEES3_EC1B8ue170006ERKS3_S6_, symObjAddr: 0x2270, symBinAddr: 0x100006274, symSize: 0x3C }
  - { offsetInCU: 0xBD0C, offset: 0xBD0C, size: 0x8, addend: 0x0, symName: __ZNSt3__14pairINS_16reverse_iteratorIPiEES3_EC2B8ue170006ERKS3_S6_, symObjAddr: 0x22AC, symBinAddr: 0x1000062B0, symSize: 0x34 }
  - { offsetInCU: 0xBD51, offset: 0xBD51, size: 0x8, addend: 0x0, symName: __ZNSt3__118__unwrap_iter_implINS_16reverse_iteratorIPiEELb0EE8__rewrapB8ue170006ES3_S3_, symObjAddr: 0x22E0, symBinAddr: 0x1000062E4, symSize: 0x2C }
  - { offsetInCU: 0xBD7F, offset: 0xBD7F, size: 0x8, addend: 0x0, symName: __ZNSt3__116reverse_iteratorIPiEC2B8ue170006ES1_, symObjAddr: 0x230C, symBinAddr: 0x100006310, symSize: 0x28 }
  - { offsetInCU: 0xBDB6, offset: 0xBDB6, size: 0x8, addend: 0x0, symName: __ZNSt3__114__split_bufferIiRNS_9allocatorIiEEED2Ev, symObjAddr: 0x2334, symBinAddr: 0x100006338, symSize: 0x80 }
  - { offsetInCU: 0xBDE1, offset: 0xBDE1, size: 0x8, addend: 0x0, symName: __ZNSt3__114__split_bufferIiRNS_9allocatorIiEEE5clearB8ue170006Ev, symObjAddr: 0x23B4, symBinAddr: 0x1000063B8, symSize: 0x28 }
  - { offsetInCU: 0xBE06, offset: 0xBE06, size: 0x8, addend: 0x0, symName: __ZNKSt3__114__split_bufferIiRNS_9allocatorIiEEE8capacityB8ue170006Ev, symObjAddr: 0x23DC, symBinAddr: 0x1000063E0, symSize: 0x40 }
  - { offsetInCU: 0xBE2B, offset: 0xBE2B, size: 0x8, addend: 0x0, symName: __ZNSt3__114__split_bufferIiRNS_9allocatorIiEEE17__destruct_at_endB8ue170006EPi, symObjAddr: 0x241C, symBinAddr: 0x100006420, symSize: 0x2C }
  - { offsetInCU: 0xBE5D, offset: 0xBE5D, size: 0x8, addend: 0x0, symName: __ZNSt3__114__split_bufferIiRNS_9allocatorIiEEE17__destruct_at_endB8ue170006EPiNS_17integral_constantIbLb0EEE, symObjAddr: 0x2448, symBinAddr: 0x10000644C, symSize: 0x94 }
  - { offsetInCU: 0xBE9D, offset: 0xBE9D, size: 0x8, addend: 0x0, symName: __ZNKSt3__114__split_bufferIiRNS_9allocatorIiEEE9__end_capB8ue170006Ev, symObjAddr: 0x24DC, symBinAddr: 0x1000064E0, symSize: 0x28 }
  - { offsetInCU: 0xBEC2, offset: 0xBEC2, size: 0x8, addend: 0x0, symName: __ZNKSt3__117__compressed_pairIPiRNS_9allocatorIiEEE5firstB8ue170006Ev, symObjAddr: 0x2504, symBinAddr: 0x100006508, symSize: 0x24 }
  - { offsetInCU: 0xBEE7, offset: 0xBEE7, size: 0x8, addend: 0x0, symName: __ZNSt3__16vectorIiNS_9allocatorIiEEE11__make_iterB8ue170006EPi, symObjAddr: 0x2528, symBinAddr: 0x10000652C, symSize: 0x30 }
  - { offsetInCU: 0xBF1B, offset: 0xBF1B, size: 0x8, addend: 0x0, symName: __ZNSt3__111__wrap_iterIPiEC1B8ue170006ES1_, symObjAddr: 0x2558, symBinAddr: 0x10000655C, symSize: 0x34 }
  - { offsetInCU: 0xBF52, offset: 0xBF52, size: 0x8, addend: 0x0, symName: __ZNSt3__111__wrap_iterIPiEC2B8ue170006ES1_, symObjAddr: 0x258C, symBinAddr: 0x100006590, symSize: 0x20 }
  - { offsetInCU: 0xBF89, offset: 0xBF89, size: 0x8, addend: 0x0, symName: __ZNSt3__111__wrap_iterIPiEpLB8ue170006El, symObjAddr: 0x25AC, symBinAddr: 0x1000065B0, symSize: 0x28 }
  - { offsetInCU: 0xBFBC, offset: 0xBFBC, size: 0x8, addend: 0x0, symName: __ZNKSt3__16vectorIiNS_9allocatorIiEEE6cbeginB8ue170006Ev, symObjAddr: 0x261C, symBinAddr: 0x100006620, symSize: 0x2C }
  - { offsetInCU: 0xBFE1, offset: 0xBFE1, size: 0x8, addend: 0x0, symName: __ZNSt3__16vectorIiNS_9allocatorIiEEE17__destruct_at_endB8ue170006EPi, symObjAddr: 0x2648, symBinAddr: 0x10000664C, symSize: 0x4C }
  - { offsetInCU: 0xC024, offset: 0xC024, size: 0x8, addend: 0x0, symName: __ZNKSt3__111__wrap_iterIPKiE4baseB8ue170006Ev, symObjAddr: 0x26D4, symBinAddr: 0x1000066D8, symSize: 0x18 }
  - { offsetInCU: 0xC048, offset: 0xC048, size: 0x8, addend: 0x0, symName: __ZNKSt3__16vectorIiNS_9allocatorIiEEE5beginB8ue170006Ev, symObjAddr: 0x26EC, symBinAddr: 0x1000066F0, symSize: 0x30 }
  - { offsetInCU: 0xC06F, offset: 0xC06F, size: 0x8, addend: 0x0, symName: __ZNKSt3__16vectorIiNS_9allocatorIiEEE11__make_iterB8ue170006EPKi, symObjAddr: 0x271C, symBinAddr: 0x100006720, symSize: 0x30 }
  - { offsetInCU: 0xC0A3, offset: 0xC0A3, size: 0x8, addend: 0x0, symName: __ZNSt3__111__wrap_iterIPKiEC1B8ue170006ES2_, symObjAddr: 0x274C, symBinAddr: 0x100006750, symSize: 0x34 }
  - { offsetInCU: 0xC0DA, offset: 0xC0DA, size: 0x8, addend: 0x0, symName: __ZNSt3__111__wrap_iterIPKiEC2B8ue170006ES2_, symObjAddr: 0x2780, symBinAddr: 0x100006784, symSize: 0x20 }
  - { offsetInCU: 0xC111, offset: 0xC111, size: 0x8, addend: 0x0, symName: __ZNKSt3__16vectorIiNS_9allocatorIiEEE17__annotate_shrinkB8ue170006Em, symObjAddr: 0x27A0, symBinAddr: 0x1000067A4, symSize: 0xB4 }
  - { offsetInCU: 0xC168, offset: 0xC168, size: 0x8, addend: 0x0, symName: __ZNKSt3__114__move_trivialclB8ue170006IiiLi0EEENS_4pairIPT_PT0_EES4_S4_S6_, symObjAddr: 0x29F0, symBinAddr: 0x1000069F4, symSize: 0x48 }
  - { offsetInCU: 0xC1CF, offset: 0xC1CF, size: 0x8, addend: 0x0, symName: __ZNSt3__14pairIPiS1_EC1B8ue170006ERKS1_S4_, symObjAddr: 0x2C68, symBinAddr: 0x100006C6C, symSize: 0x3C }
  - { offsetInCU: 0xC214, offset: 0xC214, size: 0x8, addend: 0x0, symName: __ZNSt3__14pairIPiS1_EC2B8ue170006ERKS1_S4_, symObjAddr: 0x2CA4, symBinAddr: 0x100006CA8, symSize: 0x34 }
  - { offsetInCU: 0xC259, offset: 0xC259, size: 0x8, addend: 0x0, symName: __ZNSt3__118__unwrap_iter_implIPiLb1EE8__unwrapB8ue170006ES1_, symObjAddr: 0x2CD8, symBinAddr: 0x100006CDC, symSize: 0x24 }
  - { offsetInCU: 0xC27C, offset: 0xC27C, size: 0x8, addend: 0x0, symName: __ZNSt3__118__unwrap_iter_implIPiLb1EE8__rewrapB8ue170006ES1_S1_, symObjAddr: 0x2CFC, symBinAddr: 0x100006D00, symSize: 0x50 }
  - { offsetInCU: 0xC2AD, offset: 0xC2AD, size: 0x8, addend: 0x0, symName: __ZNSt3__111__wrap_iterIPKiEC2B8ue170006IPiEERKNS0_IT_EEPNS_9enable_ifIXsr14is_convertibleIS6_S2_EE5valueEvE4typeE, symObjAddr: 0x2D4C, symBinAddr: 0x100006D50, symSize: 0x40 }
  - { offsetInCU: 0xC2F8, offset: 0xC2F8, size: 0x8, addend: 0x0, symName: __ZNKSt3__111__wrap_iterIPiE4baseB8ue170006Ev, symObjAddr: 0x2D8C, symBinAddr: 0x100006D90, symSize: 0x18 }
  - { offsetInCU: 0xC31C, offset: 0xC31C, size: 0x8, addend: 0x0, symName: __ZNKSt3__19basic_iosIcNS_11char_traitsIcEEE5widenB8ue170006Ec, symObjAddr: 0x2E68, symBinAddr: 0x100006E6C, symSize: 0x8C }
  - { offsetInCU: 0xC384, offset: 0xC384, size: 0x8, addend: 0x0, symName: __ZNKSt3__15ctypeIcE5widenB8ue170006Ec, symObjAddr: 0x2F20, symBinAddr: 0x100006F24, symSize: 0x38 }
  - { offsetInCU: 0xC3B8, offset: 0xC3B8, size: 0x8, addend: 0x0, symName: __ZNSt3__111char_traitsIcE6lengthB8ue170006EPKc, symObjAddr: 0x314C, symBinAddr: 0x100007150, symSize: 0x48 }
  - { offsetInCU: 0xC3F9, offset: 0xC3F9, size: 0x8, addend: 0x0, symName: __ZNKSt3__113basic_ostreamIcNS_11char_traitsIcEEE6sentrycvbB8ue170006Ev, symObjAddr: 0x3194, symBinAddr: 0x100007198, symSize: 0x1C }
  - { offsetInCU: 0xC41E, offset: 0xC41E, size: 0x8, addend: 0x0, symName: __ZNSt3__119ostreambuf_iteratorIcNS_11char_traitsIcEEEC1B8ue170006ERNS_13basic_ostreamIcS2_EE, symObjAddr: 0x33F8, symBinAddr: 0x1000073FC, symSize: 0x34 }
  - { offsetInCU: 0xC455, offset: 0xC455, size: 0x8, addend: 0x0, symName: __ZNKSt3__18ios_base5flagsB8ue170006Ev, symObjAddr: 0x342C, symBinAddr: 0x100007430, symSize: 0x18 }
  - { offsetInCU: 0xC47B, offset: 0xC47B, size: 0x8, addend: 0x0, symName: __ZNKSt3__19basic_iosIcNS_11char_traitsIcEEE4fillB8ue170006Ev, symObjAddr: 0x3444, symBinAddr: 0x100007448, symSize: 0x64 }
  - { offsetInCU: 0xC4A2, offset: 0xC4A2, size: 0x8, addend: 0x0, symName: __ZNKSt3__119ostreambuf_iteratorIcNS_11char_traitsIcEEE6failedB8ue170006Ev, symObjAddr: 0x34A8, symBinAddr: 0x1000074AC, symSize: 0x24 }
  - { offsetInCU: 0xC4C7, offset: 0xC4C7, size: 0x8, addend: 0x0, symName: __ZNSt3__19basic_iosIcNS_11char_traitsIcEEE8setstateB8ue170006Ej, symObjAddr: 0x34CC, symBinAddr: 0x1000074D0, symSize: 0x2C }
  - { offsetInCU: 0xC4FB, offset: 0xC4FB, size: 0x8, addend: 0x0, symName: __ZNKSt3__18ios_base5widthB8ue170006Ev, symObjAddr: 0x34F8, symBinAddr: 0x1000074FC, symSize: 0x18 }
  - { offsetInCU: 0xC522, offset: 0xC522, size: 0x8, addend: 0x0, symName: __ZNSt3__115basic_streambufIcNS_11char_traitsIcEEE5sputnB8ue170006EPKcl, symObjAddr: 0x3510, symBinAddr: 0x100007514, symSize: 0x3C }
  - { offsetInCU: 0xC563, offset: 0xC563, size: 0x8, addend: 0x0, symName: __ZNSt3__112basic_stringIcNS_11char_traitsIcEENS_9allocatorIcEEEC1B8ue170006Emc, symObjAddr: 0x354C, symBinAddr: 0x100007550, symSize: 0x3C }
  - { offsetInCU: 0xC5AA, offset: 0xC5AA, size: 0x8, addend: 0x0, symName: __ZNKSt3__112basic_stringIcNS_11char_traitsIcEENS_9allocatorIcEEE4dataB8ue170006Ev, symObjAddr: 0x3588, symBinAddr: 0x10000758C, symSize: 0x28 }
  - { offsetInCU: 0xC5CF, offset: 0xC5CF, size: 0x8, addend: 0x0, symName: __ZNSt3__18ios_base5widthB8ue170006El, symObjAddr: 0x35B0, symBinAddr: 0x1000075B4, symSize: 0x2C }
  - { offsetInCU: 0xC614, offset: 0xC614, size: 0x8, addend: 0x0, symName: __ZNSt3__112basic_stringIcNS_11char_traitsIcEENS_9allocatorIcEEEC2B8ue170006Emc, symObjAddr: 0x35DC, symBinAddr: 0x1000075E0, symSize: 0x4C }
  - { offsetInCU: 0xC65B, offset: 0xC65B, size: 0x8, addend: 0x0, symName: __ZNSt3__117__compressed_pairINS_12basic_stringIcNS_11char_traitsIcEENS_9allocatorIcEEE5__repES5_EC1B8ue170006INS_18__default_init_tagESA_EEOT_OT0_, symObjAddr: 0x3628, symBinAddr: 0x10000762C, symSize: 0x3C }
  - { offsetInCU: 0xC6B2, offset: 0xC6B2, size: 0x8, addend: 0x0, symName: __ZNSt3__117__compressed_pairINS_12basic_stringIcNS_11char_traitsIcEENS_9allocatorIcEEE5__repES5_EC2B8ue170006INS_18__default_init_tagESA_EEOT_OT0_, symObjAddr: 0x3664, symBinAddr: 0x100007668, symSize: 0x3C }
  - { offsetInCU: 0xC709, offset: 0xC709, size: 0x8, addend: 0x0, symName: __ZNSt3__122__compressed_pair_elemINS_12basic_stringIcNS_11char_traitsIcEENS_9allocatorIcEEE5__repELi0ELb0EEC2B8ue170006ENS_18__default_init_tagE, symObjAddr: 0x36A0, symBinAddr: 0x1000076A4, symSize: 0x14 }
  - { offsetInCU: 0xC73D, offset: 0xC73D, size: 0x8, addend: 0x0, symName: __ZNSt3__122__compressed_pair_elemINS_9allocatorIcEELi1ELb1EEC2B8ue170006ENS_18__default_init_tagE, symObjAddr: 0x36B4, symBinAddr: 0x1000076B8, symSize: 0x2C }
  - { offsetInCU: 0xC771, offset: 0xC771, size: 0x8, addend: 0x0, symName: __ZNSt3__19allocatorIcEC2B8ue170006Ev, symObjAddr: 0x36E0, symBinAddr: 0x1000076E4, symSize: 0x2C }
  - { offsetInCU: 0xC79A, offset: 0xC79A, size: 0x8, addend: 0x0, symName: __ZNSt3__116__non_trivial_ifILb1ENS_9allocatorIcEEEC2B8ue170006Ev, symObjAddr: 0x370C, symBinAddr: 0x100007710, symSize: 0x14 }
  - { offsetInCU: 0xC7C3, offset: 0xC7C3, size: 0x8, addend: 0x0, symName: __ZNKSt3__112basic_stringIcNS_11char_traitsIcEENS_9allocatorIcEEE13__get_pointerB8ue170006Ev, symObjAddr: 0x3734, symBinAddr: 0x100007738, symSize: 0x54 }
  - { offsetInCU: 0xC7E8, offset: 0xC7E8, size: 0x8, addend: 0x0, symName: __ZNKSt3__112basic_stringIcNS_11char_traitsIcEENS_9allocatorIcEEE9__is_longB8ue170006Ev, symObjAddr: 0x3788, symBinAddr: 0x10000778C, symSize: 0x74 }
  - { offsetInCU: 0xC80D, offset: 0xC80D, size: 0x8, addend: 0x0, symName: __ZNKSt3__112basic_stringIcNS_11char_traitsIcEENS_9allocatorIcEEE18__get_long_pointerB8ue170006Ev, symObjAddr: 0x37FC, symBinAddr: 0x100007800, symSize: 0x28 }
  - { offsetInCU: 0xC832, offset: 0xC832, size: 0x8, addend: 0x0, symName: __ZNKSt3__112basic_stringIcNS_11char_traitsIcEENS_9allocatorIcEEE19__get_short_pointerB8ue170006Ev, symObjAddr: 0x3824, symBinAddr: 0x100007828, symSize: 0x28 }
  - { offsetInCU: 0xC857, offset: 0xC857, size: 0x8, addend: 0x0, symName: __ZNKSt3__117__compressed_pairINS_12basic_stringIcNS_11char_traitsIcEENS_9allocatorIcEEE5__repES5_E5firstB8ue170006Ev, symObjAddr: 0x384C, symBinAddr: 0x100007850, symSize: 0x24 }
  - { offsetInCU: 0xC87C, offset: 0xC87C, size: 0x8, addend: 0x0, symName: __ZNKSt3__122__compressed_pair_elemINS_12basic_stringIcNS_11char_traitsIcEENS_9allocatorIcEEE5__repELi0ELb0EE5__getB8ue170006Ev, symObjAddr: 0x3870, symBinAddr: 0x100007874, symSize: 0x14 }
  - { offsetInCU: 0xC8A1, offset: 0xC8A1, size: 0x8, addend: 0x0, symName: __ZNSt3__114pointer_traitsIPKcE10pointer_toB8ue170006ERS1_, symObjAddr: 0x3884, symBinAddr: 0x100007888, symSize: 0x14 }
  - { offsetInCU: 0xC8C4, offset: 0xC8C4, size: 0x8, addend: 0x0, symName: __ZNSt3__119ostreambuf_iteratorIcNS_11char_traitsIcEEEC2B8ue170006ERNS_13basic_ostreamIcS2_EE, symObjAddr: 0x3898, symBinAddr: 0x10000789C, symSize: 0x68 }
  - { offsetInCU: 0xC8FA, offset: 0xC8FA, size: 0x8, addend: 0x0, symName: __ZNKSt3__19basic_iosIcNS_11char_traitsIcEEE5rdbufB8ue170006Ev, symObjAddr: 0x3900, symBinAddr: 0x100007904, symSize: 0x24 }
  - { offsetInCU: 0xC921, offset: 0xC921, size: 0x8, addend: 0x0, symName: __ZNKSt3__18ios_base5rdbufB8ue170006Ev, symObjAddr: 0x3924, symBinAddr: 0x100007928, symSize: 0x18 }
  - { offsetInCU: 0xC946, offset: 0xC946, size: 0x8, addend: 0x0, symName: __ZNSt3__111char_traitsIcE11eq_int_typeB8ue170006Eii, symObjAddr: 0x393C, symBinAddr: 0x100007940, symSize: 0x28 }
  - { offsetInCU: 0xC979, offset: 0xC979, size: 0x8, addend: 0x0, symName: __ZNSt3__111char_traitsIcE3eofB8ue170006Ev, symObjAddr: 0x3964, symBinAddr: 0x100007968, symSize: 0x8 }
  - { offsetInCU: 0xC98C, offset: 0xC98C, size: 0x8, addend: 0x0, symName: __ZNSt3__18ios_base8setstateB8ue170006Ej, symObjAddr: 0x396C, symBinAddr: 0x100007970, symSize: 0x34 }
...
