---
triple:          'arm64-apple-darwin'
binary-path:     '/Users/kajalbormon/Developer/Code/HakerRank/maps_stl/output/maps_stl'
relocations:
  - { offsetInCU: 0x6CB8, offset: 0x6CB8, size: 0x8, addend: 0x0, symName: __ZNSt3__1rsB8ue170006IcNS_11char_traitsIcEENS_9allocatorIcEEEERNS_13basic_istreamIT_T0_EES9_RNS_12basic_stringIS6_S7_T1_EE, symObjAddr: 0x2E0, symBinAddr: 0x100003A0C, symSize: 0x324 }
  - { offsetInCU: 0x6D87, offset: 0x6D87, size: 0x8, addend: 0x0, symName: __ZNSt3__1neB8ue170006ERKNS_14__map_iteratorINS_15__tree_iteratorINS_12__value_typeINS_12basic_stringIcNS_11char_traitsIcEENS_9allocatorIcEEEEiEEPNS_11__tree_nodeIS9_PvEElEEEESH_, symObjAddr: 0x6F8, symBinAddr: 0x100003E24, symSize: 0x30 }
  - { offsetInCU: 0x7468, offset: 0x7468, size: 0x8, addend: 0x0, symName: __ZNSt3__14endlB8ue170006IcNS_11char_traitsIcEEEERNS_13basic_ostreamIT_T0_EES7_, symObjAddr: 0x7CC, symBinAddr: 0x100003EF8, symSize: 0x58 }
  - { offsetInCU: 0x74A8, offset: 0x74A8, size: 0x8, addend: 0x0, symName: __ZNSt3__130__libcpp_is_constant_evaluatedB8ue170006Ev, symObjAddr: 0xA64, symBinAddr: 0x100004190, symSize: 0xC }
  - { offsetInCU: 0x74C5, offset: 0x74C5, size: 0x8, addend: 0x0, symName: __ZNSt3__117__libcpp_allocateB8ue170006Emm, symObjAddr: 0xD5C, symBinAddr: 0x100004488, symSize: 0x28 }
  - { offsetInCU: 0x7502, offset: 0x7502, size: 0x8, addend: 0x0, symName: __ZNSt3__121__libcpp_operator_newB8ue170006IJmEEEPvDpT_, symObjAddr: 0xD98, symBinAddr: 0x1000044C4, symSize: 0x24 }
  - { offsetInCU: 0x756E, offset: 0x756E, size: 0x8, addend: 0x0, symName: __ZNSt3__119__libcpp_deallocateB8ue170006EPvmm, symObjAddr: 0x14D0, symBinAddr: 0x100004BFC, symSize: 0x30 }
  - { offsetInCU: 0x75B6, offset: 0x75B6, size: 0x8, addend: 0x0, symName: __ZNSt3__127__do_deallocate_handle_sizeB8ue170006IJEEEvPvmDpT_, symObjAddr: 0x1500, symBinAddr: 0x100004C2C, symSize: 0x28 }
  - { offsetInCU: 0x75F4, offset: 0x75F4, size: 0x8, addend: 0x0, symName: __ZNSt3__124__libcpp_operator_deleteB8ue170006IJPvEEEvDpT_, symObjAddr: 0x1528, symBinAddr: 0x100004C54, symSize: 0x24 }
  - { offsetInCU: 0x7DC0, offset: 0x7DC0, size: 0x8, addend: 0x0, symName: __ZNSt3__19use_facetB8ue170006INS_5ctypeIcEEEERKT_RKNS_6localeE, symObjAddr: 0x171C, symBinAddr: 0x100004E48, symSize: 0x2C }
  - { offsetInCU: 0x83D3, offset: 0x83D3, size: 0x8, addend: 0x0, symName: __ZNSt3__1ltB8ue170006IcNS_11char_traitsIcEENS_9allocatorIcEEEEbRKNS_12basic_stringIT_T0_T1_EESB_, symObjAddr: 0x2250, symBinAddr: 0x10000597C, symSize: 0x38 }
  - { offsetInCU: 0x842B, offset: 0x842B, size: 0x8, addend: 0x0, symName: __ZNSt3__13minB8ue170006ImEERKT_S3_S3_, symObjAddr: 0x2574, symBinAddr: 0x100005CA0, symSize: 0x2C }
  - { offsetInCU: 0x846E, offset: 0x846E, size: 0x8, addend: 0x0, symName: __ZNSt3__112__to_addressB8ue170006IKcEEPT_S3_, symObjAddr: 0x25FC, symBinAddr: 0x100005D28, symSize: 0x14 }
  - { offsetInCU: 0x84D6, offset: 0x84D6, size: 0x8, addend: 0x0, symName: __ZNSt3__13minB8ue170006ImNS_6__lessIvvEEEERKT_S5_S5_T0_, symObjAddr: 0x26C8, symBinAddr: 0x100005DF4, symSize: 0x54 }
  - { offsetInCU: 0x8593, offset: 0x8593, size: 0x8, addend: 0x0, symName: __ZNSt3__127__tree_balance_after_insertB8ue170006IPNS_16__tree_node_baseIPvEEEEvT_S5_, symObjAddr: 0x2BCC, symBinAddr: 0x1000062F8, symSize: 0x340 }
  - { offsetInCU: 0x8607, offset: 0x8607, size: 0x8, addend: 0x0, symName: __ZNSt3__120__tree_is_left_childB8ue170006IPNS_16__tree_node_baseIPvEEEEbT_, symObjAddr: 0x2F4C, symBinAddr: 0x100006678, symSize: 0x2C }
  - { offsetInCU: 0x863C, offset: 0x863C, size: 0x8, addend: 0x0, symName: __ZNSt3__118__tree_left_rotateB8ue170006IPNS_16__tree_node_baseIPvEEEEvT_, symObjAddr: 0x2F78, symBinAddr: 0x1000066A4, symSize: 0xEC }
  - { offsetInCU: 0x867E, offset: 0x867E, size: 0x8, addend: 0x0, symName: __ZNSt3__119__tree_right_rotateB8ue170006IPNS_16__tree_node_baseIPvEEEEvT_, symObjAddr: 0x3064, symBinAddr: 0x100006790, symSize: 0xCC }
  - { offsetInCU: 0x86C0, offset: 0x86C0, size: 0x8, addend: 0x0, symName: __ZNSt3__1eqB8ue170006ERKNS_15__tree_iteratorINS_12__value_typeINS_12basic_stringIcNS_11char_traitsIcEENS_9allocatorIcEEEEiEEPNS_11__tree_nodeIS8_PvEElEESF_, symObjAddr: 0x3520, symBinAddr: 0x100006C4C, symSize: 0x30 }
  - { offsetInCU: 0x86FD, offset: 0x86FD, size: 0x8, addend: 0x0, symName: __ZNSt3__1neB8ue170006ERKNS_15__tree_iteratorINS_12__value_typeINS_12basic_stringIcNS_11char_traitsIcEENS_9allocatorIcEEEEiEEPNS_11__tree_nodeIS8_PvEElEESF_, symObjAddr: 0x36F4, symBinAddr: 0x100006E20, symSize: 0x34 }
  - { offsetInCU: 0x873A, offset: 0x873A, size: 0x8, addend: 0x0, symName: __ZNSt3__113__tree_removeB8ue170006IPNS_16__tree_node_baseIPvEEEEvT_S5_, symObjAddr: 0x3930, symBinAddr: 0x10000705C, symSize: 0x6E0 }
  - { offsetInCU: 0x87B8, offset: 0x87B8, size: 0x8, addend: 0x0, symName: __ZNSt3__116__tree_next_iterB8ue170006IPNS_15__tree_end_nodeIPNS_16__tree_node_baseIPvEEEES5_EET_T0_, symObjAddr: 0x4030, symBinAddr: 0x10000775C, symSize: 0x80 }
  - { offsetInCU: 0x87F6, offset: 0x87F6, size: 0x8, addend: 0x0, symName: __ZNSt3__110__tree_minB8ue170006IPNS_16__tree_node_baseIPvEEEET_S5_, symObjAddr: 0x40B0, symBinAddr: 0x1000077DC, symSize: 0x40 }
  - { offsetInCU: 0x882B, offset: 0x882B, size: 0x8, addend: 0x0, symName: __ZNSt3__111__tree_nextB8ue170006IPNS_16__tree_node_baseIPvEEEET_S5_, symObjAddr: 0x40F0, symBinAddr: 0x10000781C, symSize: 0x80 }
  - { offsetInCU: 0x8861, offset: 0x8861, size: 0x8, addend: 0x0, symName: __ZSt28__throw_bad_array_new_lengthB8ue170006v, symObjAddr: 0xD28, symBinAddr: 0x100004454, symSize: 0x34 }
  - { offsetInCU: 0xB193, offset: 0xB193, size: 0x8, addend: 0x0, symName: _main, symObjAddr: 0x0, symBinAddr: 0x10000372C, symSize: 0x288 }
  - { offsetInCU: 0xB20F, offset: 0xB20F, size: 0x8, addend: 0x0, symName: __ZNSt3__112basic_stringIcNS_11char_traitsIcEENS_9allocatorIcEEEC1B8ue170006Ev, symObjAddr: 0x288, symBinAddr: 0x1000039B4, symSize: 0x2C }
  - { offsetInCU: 0xB239, offset: 0xB239, size: 0x8, addend: 0x0, symName: __ZNSt3__13mapINS_12basic_stringIcNS_11char_traitsIcEENS_9allocatorIcEEEEiNS_4lessIS6_EENS4_INS_4pairIKS6_iEEEEEC1B8ue170006Ev, symObjAddr: 0x2B4, symBinAddr: 0x1000039E0, symSize: 0x2C }
  - { offsetInCU: 0xB263, offset: 0xB263, size: 0x8, addend: 0x0, symName: __ZNSt3__13mapINS_12basic_stringIcNS_11char_traitsIcEENS_9allocatorIcEEEEiNS_4lessIS6_EENS4_INS_4pairIKS6_iEEEEEixERSA_, symObjAddr: 0x604, symBinAddr: 0x100003D30, symSize: 0xC8 }
  - { offsetInCU: 0xB2DC, offset: 0xB2DC, size: 0x8, addend: 0x0, symName: __ZNSt3__13mapINS_12basic_stringIcNS_11char_traitsIcEENS_9allocatorIcEEEEiNS_4lessIS6_EENS4_INS_4pairIKS6_iEEEEE5eraseB8ue170006ERSA_, symObjAddr: 0x6CC, symBinAddr: 0x100003DF8, symSize: 0x2C }
  - { offsetInCU: 0xB311, offset: 0xB311, size: 0x8, addend: 0x0, symName: __ZNSt3__13mapINS_12basic_stringIcNS_11char_traitsIcEENS_9allocatorIcEEEEiNS_4lessIS6_EENS4_INS_4pairIKS6_iEEEEE4findB8ue170006ERSA_, symObjAddr: 0x728, symBinAddr: 0x100003E54, symSize: 0x40 }
  - { offsetInCU: 0xB346, offset: 0xB346, size: 0x8, addend: 0x0, symName: __ZNSt3__13mapINS_12basic_stringIcNS_11char_traitsIcEENS_9allocatorIcEEEEiNS_4lessIS6_EENS4_INS_4pairIKS6_iEEEEE3endB8ue170006Ev, symObjAddr: 0x768, symBinAddr: 0x100003E94, symSize: 0x38 }
  - { offsetInCU: 0xB3E2, offset: 0xB3E2, size: 0x8, addend: 0x0, symName: __ZNSt3__113basic_ostreamIcNS_11char_traitsIcEEElsB8ue170006EPFRS3_S4_E, symObjAddr: 0x7A0, symBinAddr: 0x100003ECC, symSize: 0x2C }
  - { offsetInCU: 0xB416, offset: 0xB416, size: 0x8, addend: 0x0, symName: __ZNSt3__13mapINS_12basic_stringIcNS_11char_traitsIcEENS_9allocatorIcEEEEiNS_4lessIS6_EENS4_INS_4pairIKS6_iEEEEED1B8ue170006Ev, symObjAddr: 0x824, symBinAddr: 0x100003F50, symSize: 0x2C }
  - { offsetInCU: 0xB440, offset: 0xB440, size: 0x8, addend: 0x0, symName: __ZNSt3__112basic_stringIcNS_11char_traitsIcEENS_9allocatorIcEEEC2B8ue170006Ev, symObjAddr: 0x85C, symBinAddr: 0x100003F88, symSize: 0x3C }
  - { offsetInCU: 0xB46F, offset: 0xB46F, size: 0x8, addend: 0x0, symName: __ZNSt3__117__compressed_pairINS_12basic_stringIcNS_11char_traitsIcEENS_9allocatorIcEEE5__repES5_EC1B8ue170006INS_18__default_init_tagESA_EEOT_OT0_, symObjAddr: 0x898, symBinAddr: 0x100003FC4, symSize: 0x3C }
  - { offsetInCU: 0xB4C7, offset: 0xB4C7, size: 0x8, addend: 0x0, symName: __ZNSt3__112basic_stringIcNS_11char_traitsIcEENS_9allocatorIcEEE14__default_initB8ue170006Ev, symObjAddr: 0x8D4, symBinAddr: 0x100004000, symSize: 0xB0 }
  - { offsetInCU: 0xB519, offset: 0xB519, size: 0x8, addend: 0x0, symName: __ZNSt3__117__compressed_pairINS_12basic_stringIcNS_11char_traitsIcEENS_9allocatorIcEEE5__repES5_EC2B8ue170006INS_18__default_init_tagESA_EEOT_OT0_, symObjAddr: 0x984, symBinAddr: 0x1000040B0, symSize: 0x3C }
  - { offsetInCU: 0xB571, offset: 0xB571, size: 0x8, addend: 0x0, symName: __ZNSt3__122__compressed_pair_elemINS_12basic_stringIcNS_11char_traitsIcEENS_9allocatorIcEEE5__repELi0ELb0EEC2B8ue170006ENS_18__default_init_tagE, symObjAddr: 0x9C0, symBinAddr: 0x1000040EC, symSize: 0x14 }
  - { offsetInCU: 0xB5A6, offset: 0xB5A6, size: 0x8, addend: 0x0, symName: __ZNSt3__122__compressed_pair_elemINS_9allocatorIcEELi1ELb1EEC2B8ue170006ENS_18__default_init_tagE, symObjAddr: 0x9D4, symBinAddr: 0x100004100, symSize: 0x2C }
  - { offsetInCU: 0xB5DB, offset: 0xB5DB, size: 0x8, addend: 0x0, symName: __ZNSt3__19allocatorIcEC2B8ue170006Ev, symObjAddr: 0xA00, symBinAddr: 0x10000412C, symSize: 0x2C }
  - { offsetInCU: 0xB605, offset: 0xB605, size: 0x8, addend: 0x0, symName: __ZNSt3__116__non_trivial_ifILb1ENS_9allocatorIcEEEC2B8ue170006Ev, symObjAddr: 0xA2C, symBinAddr: 0x100004158, symSize: 0x14 }
  - { offsetInCU: 0xB62F, offset: 0xB62F, size: 0x8, addend: 0x0, symName: __ZNSt3__117__compressed_pairINS_12basic_stringIcNS_11char_traitsIcEENS_9allocatorIcEEE5__repES5_E5firstB8ue170006Ev, symObjAddr: 0xA40, symBinAddr: 0x10000416C, symSize: 0x24 }
  - { offsetInCU: 0xB655, offset: 0xB655, size: 0x8, addend: 0x0, symName: __ZNSt3__112basic_stringIcNS_11char_traitsIcEENS_9allocatorIcEEE11__recommendB8ue170006Em, symObjAddr: 0xA70, symBinAddr: 0x10000419C, symSize: 0x9C }
  - { offsetInCU: 0xB688, offset: 0xB688, size: 0x8, addend: 0x0, symName: __ZNSt3__116allocator_traitsINS_9allocatorIcEEE8allocateB8ue170006ERS2_m, symObjAddr: 0xB0C, symBinAddr: 0x100004238, symSize: 0x2C }
  - { offsetInCU: 0xB6BB, offset: 0xB6BB, size: 0x8, addend: 0x0, symName: __ZNSt3__112basic_stringIcNS_11char_traitsIcEENS_9allocatorIcEEE7__allocB8ue170006Ev, symObjAddr: 0xB38, symBinAddr: 0x100004264, symSize: 0x24 }
  - { offsetInCU: 0xB6E1, offset: 0xB6E1, size: 0x8, addend: 0x0, symName: __ZNSt3__112basic_stringIcNS_11char_traitsIcEENS_9allocatorIcEEE16__begin_lifetimeB8ue170006EPcm, symObjAddr: 0xB5C, symBinAddr: 0x100004288, symSize: 0x14 }
  - { offsetInCU: 0xB714, offset: 0xB714, size: 0x8, addend: 0x0, symName: __ZNSt3__112basic_stringIcNS_11char_traitsIcEENS_9allocatorIcEEE18__set_long_pointerB8ue170006EPc, symObjAddr: 0xB70, symBinAddr: 0x10000429C, symSize: 0x38 }
  - { offsetInCU: 0xB749, offset: 0xB749, size: 0x8, addend: 0x0, symName: __ZNSt3__112basic_stringIcNS_11char_traitsIcEENS_9allocatorIcEEE14__set_long_capB8ue170006Em, symObjAddr: 0xBA8, symBinAddr: 0x1000042D4, symSize: 0x70 }
  - { offsetInCU: 0xB77E, offset: 0xB77E, size: 0x8, addend: 0x0, symName: __ZNSt3__112basic_stringIcNS_11char_traitsIcEENS_9allocatorIcEEE15__set_long_sizeB8ue170006Em, symObjAddr: 0xC18, symBinAddr: 0x100004344, symSize: 0x38 }
  - { offsetInCU: 0xB7B3, offset: 0xB7B3, size: 0x8, addend: 0x0, symName: __ZNSt3__122__compressed_pair_elemINS_12basic_stringIcNS_11char_traitsIcEENS_9allocatorIcEEE5__repELi0ELb0EE5__getB8ue170006Ev, symObjAddr: 0xC50, symBinAddr: 0x10000437C, symSize: 0x14 }
  - { offsetInCU: 0xB7D9, offset: 0xB7D9, size: 0x8, addend: 0x0, symName: __ZNSt3__112basic_stringIcNS_11char_traitsIcEENS_9allocatorIcEEE10__align_itB8ue170006ILm16EEEmm, symObjAddr: 0xC64, symBinAddr: 0x100004390, symSize: 0x1C }
  - { offsetInCU: 0xB807, offset: 0xB807, size: 0x8, addend: 0x0, symName: __ZNSt3__19allocatorIcE8allocateB8ue170006Em, symObjAddr: 0xC80, symBinAddr: 0x1000043AC, symSize: 0x84 }
  - { offsetInCU: 0xB845, offset: 0xB845, size: 0x8, addend: 0x0, symName: __ZNSt3__116allocator_traitsINS_9allocatorIcEEE8max_sizeB8ue170006IS2_vEEmRKS2_, symObjAddr: 0xD04, symBinAddr: 0x100004430, symSize: 0x24 }
  - { offsetInCU: 0xB873, offset: 0xB873, size: 0x8, addend: 0x0, symName: __ZNKSt3__19allocatorIcE8max_sizeB8ue170006Ev, symObjAddr: 0xD84, symBinAddr: 0x1000044B0, symSize: 0x14 }
  - { offsetInCU: 0xB899, offset: 0xB899, size: 0x8, addend: 0x0, symName: __ZNSt3__117__compressed_pairINS_12basic_stringIcNS_11char_traitsIcEENS_9allocatorIcEEE5__repES5_E6secondB8ue170006Ev, symObjAddr: 0xDBC, symBinAddr: 0x1000044E8, symSize: 0x24 }
  - { offsetInCU: 0xB8BF, offset: 0xB8BF, size: 0x8, addend: 0x0, symName: __ZNSt3__122__compressed_pair_elemINS_9allocatorIcEELi1ELb1EE5__getB8ue170006Ev, symObjAddr: 0xDE0, symBinAddr: 0x10000450C, symSize: 0x14 }
  - { offsetInCU: 0xB8E5, offset: 0xB8E5, size: 0x8, addend: 0x0, symName: __ZNSt3__13mapINS_12basic_stringIcNS_11char_traitsIcEENS_9allocatorIcEEEEiNS_4lessIS6_EENS4_INS_4pairIKS6_iEEEEEC2B8ue170006Ev, symObjAddr: 0xDF4, symBinAddr: 0x100004520, symSize: 0x40 }
  - { offsetInCU: 0xB90F, offset: 0xB90F, size: 0x8, addend: 0x0, symName: __ZNSt3__119__map_value_compareINS_12basic_stringIcNS_11char_traitsIcEENS_9allocatorIcEEEENS_12__value_typeIS6_iEENS_4lessIS6_EELb1EEC1B8ue170006ESA_, symObjAddr: 0xE34, symBinAddr: 0x100004560, symSize: 0x2C }
  - { offsetInCU: 0xB948, offset: 0xB948, size: 0x8, addend: 0x0, symName: __ZNSt3__16__treeINS_12__value_typeINS_12basic_stringIcNS_11char_traitsIcEENS_9allocatorIcEEEEiEENS_19__map_value_compareIS7_S8_NS_4lessIS7_EELb1EEENS5_IS8_EEEC1ERKSC_, symObjAddr: 0xE60, symBinAddr: 0x10000458C, symSize: 0x34 }
  - { offsetInCU: 0xB983, offset: 0xB983, size: 0x8, addend: 0x0, symName: __ZNSt3__119__map_value_compareINS_12basic_stringIcNS_11char_traitsIcEENS_9allocatorIcEEEENS_12__value_typeIS6_iEENS_4lessIS6_EELb1EEC2B8ue170006ESA_, symObjAddr: 0xE94, symBinAddr: 0x1000045C0, symSize: 0x14 }
  - { offsetInCU: 0xB9BC, offset: 0xB9BC, size: 0x8, addend: 0x0, symName: __ZNSt3__16__treeINS_12__value_typeINS_12basic_stringIcNS_11char_traitsIcEENS_9allocatorIcEEEEiEENS_19__map_value_compareIS7_S8_NS_4lessIS7_EELb1EEENS5_IS8_EEEC2ERKSC_, symObjAddr: 0xEA8, symBinAddr: 0x1000045D4, symSize: 0x70 }
  - { offsetInCU: 0xB9F7, offset: 0xB9F7, size: 0x8, addend: 0x0, symName: __ZNSt3__117__compressed_pairINS_15__tree_end_nodeIPNS_16__tree_node_baseIPvEEEENS_9allocatorINS_11__tree_nodeINS_12__value_typeINS_12basic_stringIcNS_11char_traitsIcEENS7_IcEEEEiEES3_EEEEEC1B8ue170006ILb1EvEEv, symObjAddr: 0xF18, symBinAddr: 0x100004644, symSize: 0x2C }
  - { offsetInCU: 0xBA31, offset: 0xBA31, size: 0x8, addend: 0x0, symName: __ZNSt3__117__compressed_pairImNS_19__map_value_compareINS_12basic_stringIcNS_11char_traitsIcEENS_9allocatorIcEEEENS_12__value_typeIS7_iEENS_4lessIS7_EELb1EEEEC1B8ue170006IiRKSC_EEOT_OT0_, symObjAddr: 0xF44, symBinAddr: 0x100004670, symSize: 0x3C }
  - { offsetInCU: 0xBA89, offset: 0xBA89, size: 0x8, addend: 0x0, symName: __ZNSt3__16__treeINS_12__value_typeINS_12basic_stringIcNS_11char_traitsIcEENS_9allocatorIcEEEEiEENS_19__map_value_compareIS7_S8_NS_4lessIS7_EELb1EEENS5_IS8_EEE10__end_nodeB8ue170006Ev, symObjAddr: 0xF80, symBinAddr: 0x1000046AC, symSize: 0x2C }
  - { offsetInCU: 0xBAAF, offset: 0xBAAF, size: 0x8, addend: 0x0, symName: __ZNSt3__16__treeINS_12__value_typeINS_12basic_stringIcNS_11char_traitsIcEENS_9allocatorIcEEEEiEENS_19__map_value_compareIS7_S8_NS_4lessIS7_EELb1EEENS5_IS8_EEE12__begin_nodeB8ue170006Ev, symObjAddr: 0xFAC, symBinAddr: 0x1000046D8, symSize: 0x14 }
  - { offsetInCU: 0xBAD5, offset: 0xBAD5, size: 0x8, addend: 0x0, symName: __ZNSt3__117__compressed_pairINS_15__tree_end_nodeIPNS_16__tree_node_baseIPvEEEENS_9allocatorINS_11__tree_nodeINS_12__value_typeINS_12basic_stringIcNS_11char_traitsIcEENS7_IcEEEEiEES3_EEEEEC2B8ue170006ILb1EvEEv, symObjAddr: 0xFC0, symBinAddr: 0x1000046EC, symSize: 0x34 }
  - { offsetInCU: 0xBB0A, offset: 0xBB0A, size: 0x8, addend: 0x0, symName: __ZNSt3__122__compressed_pair_elemINS_15__tree_end_nodeIPNS_16__tree_node_baseIPvEEEELi0ELb0EEC2B8ue170006ENS_16__value_init_tagE, symObjAddr: 0xFF4, symBinAddr: 0x100004720, symSize: 0x2C }
  - { offsetInCU: 0xBB3F, offset: 0xBB3F, size: 0x8, addend: 0x0, symName: __ZNSt3__122__compressed_pair_elemINS_9allocatorINS_11__tree_nodeINS_12__value_typeINS_12basic_stringIcNS_11char_traitsIcEENS1_IcEEEEiEEPvEEEELi1ELb1EEC2B8ue170006ENS_16__value_init_tagE, symObjAddr: 0x1020, symBinAddr: 0x10000474C, symSize: 0x2C }
  - { offsetInCU: 0xBB74, offset: 0xBB74, size: 0x8, addend: 0x0, symName: __ZNSt3__115__tree_end_nodeIPNS_16__tree_node_baseIPvEEEC1B8ue170006Ev, symObjAddr: 0x104C, symBinAddr: 0x100004778, symSize: 0x2C }
  - { offsetInCU: 0xBB9E, offset: 0xBB9E, size: 0x8, addend: 0x0, symName: __ZNSt3__115__tree_end_nodeIPNS_16__tree_node_baseIPvEEEC2B8ue170006Ev, symObjAddr: 0x1078, symBinAddr: 0x1000047A4, symSize: 0x18 }
  - { offsetInCU: 0xBBC8, offset: 0xBBC8, size: 0x8, addend: 0x0, symName: __ZNSt3__19allocatorINS_11__tree_nodeINS_12__value_typeINS_12basic_stringIcNS_11char_traitsIcEENS0_IcEEEEiEEPvEEEC2B8ue170006Ev, symObjAddr: 0x1090, symBinAddr: 0x1000047BC, symSize: 0x2C }
  - { offsetInCU: 0xBBF2, offset: 0xBBF2, size: 0x8, addend: 0x0, symName: __ZNSt3__116__non_trivial_ifILb1ENS_9allocatorINS_11__tree_nodeINS_12__value_typeINS_12basic_stringIcNS_11char_traitsIcEENS1_IcEEEEiEEPvEEEEEC2B8ue170006Ev, symObjAddr: 0x10BC, symBinAddr: 0x1000047E8, symSize: 0x14 }
  - { offsetInCU: 0xBC1C, offset: 0xBC1C, size: 0x8, addend: 0x0, symName: __ZNSt3__117__compressed_pairImNS_19__map_value_compareINS_12basic_stringIcNS_11char_traitsIcEENS_9allocatorIcEEEENS_12__value_typeIS7_iEENS_4lessIS7_EELb1EEEEC2B8ue170006IiRKSC_EEOT_OT0_, symObjAddr: 0x10D0, symBinAddr: 0x1000047FC, symSize: 0x44 }
  - { offsetInCU: 0xBC74, offset: 0xBC74, size: 0x8, addend: 0x0, symName: __ZNSt3__122__compressed_pair_elemImLi0ELb0EEC2B8ue170006IivEEOT_, symObjAddr: 0x1114, symBinAddr: 0x100004840, symSize: 0x24 }
  - { offsetInCU: 0xBCB6, offset: 0xBCB6, size: 0x8, addend: 0x0, symName: __ZNSt3__122__compressed_pair_elemINS_19__map_value_compareINS_12basic_stringIcNS_11char_traitsIcEENS_9allocatorIcEEEENS_12__value_typeIS7_iEENS_4lessIS7_EELb1EEELi1ELb1EEC2B8ue170006IRKSC_vEEOT_, symObjAddr: 0x1138, symBinAddr: 0x100004864, symSize: 0x18 }
  - { offsetInCU: 0xBCF8, offset: 0xBCF8, size: 0x8, addend: 0x0, symName: __ZNSt3__114pointer_traitsIPNS_15__tree_end_nodeIPNS_16__tree_node_baseIPvEEEEE10pointer_toB8ue170006ERS6_, symObjAddr: 0x1150, symBinAddr: 0x10000487C, symSize: 0x14 }
  - { offsetInCU: 0xBD1B, offset: 0xBD1B, size: 0x8, addend: 0x0, symName: __ZNSt3__117__compressed_pairINS_15__tree_end_nodeIPNS_16__tree_node_baseIPvEEEENS_9allocatorINS_11__tree_nodeINS_12__value_typeINS_12basic_stringIcNS_11char_traitsIcEENS7_IcEEEEiEES3_EEEEE5firstB8ue170006Ev, symObjAddr: 0x1164, symBinAddr: 0x100004890, symSize: 0x24 }
  - { offsetInCU: 0xBD41, offset: 0xBD41, size: 0x8, addend: 0x0, symName: __ZNSt3__122__compressed_pair_elemINS_15__tree_end_nodeIPNS_16__tree_node_baseIPvEEEELi0ELb0EE5__getB8ue170006Ev, symObjAddr: 0x1188, symBinAddr: 0x1000048B4, symSize: 0x14 }
  - { offsetInCU: 0xBD67, offset: 0xBD67, size: 0x8, addend: 0x0, symName: __ZNSt3__13mapINS_12basic_stringIcNS_11char_traitsIcEENS_9allocatorIcEEEEiNS_4lessIS6_EENS4_INS_4pairIKS6_iEEEEED2B8ue170006Ev, symObjAddr: 0x119C, symBinAddr: 0x1000048C8, symSize: 0x2C }
  - { offsetInCU: 0xBD91, offset: 0xBD91, size: 0x8, addend: 0x0, symName: __ZNSt3__16__treeINS_12__value_typeINS_12basic_stringIcNS_11char_traitsIcEENS_9allocatorIcEEEEiEENS_19__map_value_compareIS7_S8_NS_4lessIS7_EELb1EEENS5_IS8_EEED1Ev, symObjAddr: 0x11C8, symBinAddr: 0x1000048F4, symSize: 0x2C }
  - { offsetInCU: 0xBDBD, offset: 0xBDBD, size: 0x8, addend: 0x0, symName: __ZNSt3__16__treeINS_12__value_typeINS_12basic_stringIcNS_11char_traitsIcEENS_9allocatorIcEEEEiEENS_19__map_value_compareIS7_S8_NS_4lessIS7_EELb1EEENS5_IS8_EEED2Ev, symObjAddr: 0x11F4, symBinAddr: 0x100004920, symSize: 0x38 }
  - { offsetInCU: 0xBDE9, offset: 0xBDE9, size: 0x8, addend: 0x0, symName: __ZNSt3__16__treeINS_12__value_typeINS_12basic_stringIcNS_11char_traitsIcEENS_9allocatorIcEEEEiEENS_19__map_value_compareIS7_S8_NS_4lessIS7_EELb1EEENS5_IS8_EEE7destroyEPNS_11__tree_nodeIS8_PvEE, symObjAddr: 0x122C, symBinAddr: 0x100004958, symSize: 0xC0 }
  - { offsetInCU: 0xBE3D, offset: 0xBE3D, size: 0x8, addend: 0x0, symName: __ZNKSt3__16__treeINS_12__value_typeINS_12basic_stringIcNS_11char_traitsIcEENS_9allocatorIcEEEEiEENS_19__map_value_compareIS7_S8_NS_4lessIS7_EELb1EEENS5_IS8_EEE6__rootB8ue170006Ev, symObjAddr: 0x12EC, symBinAddr: 0x100004A18, symSize: 0x28 }
  - { offsetInCU: 0xBE63, offset: 0xBE63, size: 0x8, addend: 0x0, symName: __ZNSt3__16__treeINS_12__value_typeINS_12basic_stringIcNS_11char_traitsIcEENS_9allocatorIcEEEEiEENS_19__map_value_compareIS7_S8_NS_4lessIS7_EELb1EEENS5_IS8_EEE12__node_allocB8ue170006Ev, symObjAddr: 0x1314, symBinAddr: 0x100004A40, symSize: 0x28 }
  - { offsetInCU: 0xBE89, offset: 0xBE89, size: 0x8, addend: 0x0, symName: __ZNSt3__116allocator_traitsINS_9allocatorINS_11__tree_nodeINS_12__value_typeINS_12basic_stringIcNS_11char_traitsIcEENS1_IcEEEEiEEPvEEEEE7destroyB8ue170006INS_4pairIKS8_iEEvvEEvRSC_PT_, symObjAddr: 0x133C, symBinAddr: 0x100004A68, symSize: 0x28 }
  - { offsetInCU: 0xBEC4, offset: 0xBEC4, size: 0x8, addend: 0x0, symName: __ZNSt3__122__tree_key_value_typesINS_12__value_typeINS_12basic_stringIcNS_11char_traitsIcEENS_9allocatorIcEEEEiEEE9__get_ptrB8ue170006ERS8_, symObjAddr: 0x1364, symBinAddr: 0x100004A90, symSize: 0x24 }
  - { offsetInCU: 0xBEE8, offset: 0xBEE8, size: 0x8, addend: 0x0, symName: __ZNSt3__116allocator_traitsINS_9allocatorINS_11__tree_nodeINS_12__value_typeINS_12basic_stringIcNS_11char_traitsIcEENS1_IcEEEEiEEPvEEEEE10deallocateB8ue170006ERSC_PSB_m, symObjAddr: 0x1388, symBinAddr: 0x100004AB4, symSize: 0x34 }
  - { offsetInCU: 0xBF2A, offset: 0xBF2A, size: 0x8, addend: 0x0, symName: __ZNSt3__117__compressed_pairINS_15__tree_end_nodeIPNS_16__tree_node_baseIPvEEEENS_9allocatorINS_11__tree_nodeINS_12__value_typeINS_12basic_stringIcNS_11char_traitsIcEENS7_IcEEEEiEES3_EEEEE6secondB8ue170006Ev, symObjAddr: 0x13BC, symBinAddr: 0x100004AE8, symSize: 0x24 }
  - { offsetInCU: 0xBF50, offset: 0xBF50, size: 0x8, addend: 0x0, symName: __ZNSt3__122__compressed_pair_elemINS_9allocatorINS_11__tree_nodeINS_12__value_typeINS_12basic_stringIcNS_11char_traitsIcEENS1_IcEEEEiEEPvEEEELi1ELb1EE5__getB8ue170006Ev, symObjAddr: 0x13E0, symBinAddr: 0x100004B0C, symSize: 0x14 }
  - { offsetInCU: 0xBF76, offset: 0xBF76, size: 0x8, addend: 0x0, symName: __ZNSt3__14pairIKNS_12basic_stringIcNS_11char_traitsIcEENS_9allocatorIcEEEEiED1Ev, symObjAddr: 0x13F4, symBinAddr: 0x100004B20, symSize: 0x2C }
  - { offsetInCU: 0xBFA2, offset: 0xBFA2, size: 0x8, addend: 0x0, symName: __ZNSt3__14pairIKNS_12basic_stringIcNS_11char_traitsIcEENS_9allocatorIcEEEEiED2Ev, symObjAddr: 0x1420, symBinAddr: 0x100004B4C, symSize: 0x2C }
  - { offsetInCU: 0xBFCE, offset: 0xBFCE, size: 0x8, addend: 0x0, symName: __ZNSt3__112__value_typeINS_12basic_stringIcNS_11char_traitsIcEENS_9allocatorIcEEEEiE11__get_valueB8ue170006Ev, symObjAddr: 0x144C, symBinAddr: 0x100004B78, symSize: 0x14 }
  - { offsetInCU: 0xBFF4, offset: 0xBFF4, size: 0x8, addend: 0x0, symName: __ZNSt3__19allocatorINS_11__tree_nodeINS_12__value_typeINS_12basic_stringIcNS_11char_traitsIcEENS0_IcEEEEiEEPvEEE10deallocateB8ue170006EPSA_m, symObjAddr: 0x1460, symBinAddr: 0x100004B8C, symSize: 0x70 }
  - { offsetInCU: 0xC036, offset: 0xC036, size: 0x8, addend: 0x0, symName: __ZNKSt3__16__treeINS_12__value_typeINS_12basic_stringIcNS_11char_traitsIcEENS_9allocatorIcEEEEiEENS_19__map_value_compareIS7_S8_NS_4lessIS7_EELb1EEENS5_IS8_EEE10__end_nodeB8ue170006Ev, symObjAddr: 0x154C, symBinAddr: 0x100004C78, symSize: 0x2C }
  - { offsetInCU: 0xC05C, offset: 0xC05C, size: 0x8, addend: 0x0, symName: __ZNKSt3__117__compressed_pairINS_15__tree_end_nodeIPNS_16__tree_node_baseIPvEEEENS_9allocatorINS_11__tree_nodeINS_12__value_typeINS_12basic_stringIcNS_11char_traitsIcEENS7_IcEEEEiEES3_EEEEE5firstB8ue170006Ev, symObjAddr: 0x1578, symBinAddr: 0x100004CA4, symSize: 0x24 }
  - { offsetInCU: 0xC082, offset: 0xC082, size: 0x8, addend: 0x0, symName: __ZNKSt3__122__compressed_pair_elemINS_15__tree_end_nodeIPNS_16__tree_node_baseIPvEEEELi0ELb0EE5__getB8ue170006Ev, symObjAddr: 0x159C, symBinAddr: 0x100004CC8, symSize: 0x14 }
  - { offsetInCU: 0xC14A, offset: 0xC14A, size: 0x8, addend: 0x0, symName: __ZNKSt3__113basic_istreamIcNS_11char_traitsIcEEE6sentrycvbB8ue170006Ev, symObjAddr: 0x15B0, symBinAddr: 0x100004CDC, symSize: 0x1C }
  - { offsetInCU: 0xC170, offset: 0xC170, size: 0x8, addend: 0x0, symName: __ZNSt3__112basic_stringIcNS_11char_traitsIcEENS_9allocatorIcEEE5clearB8ue170006Ev, symObjAddr: 0x15CC, symBinAddr: 0x100004CF8, symSize: 0x78 }
  - { offsetInCU: 0xC198, offset: 0xC198, size: 0x8, addend: 0x0, symName: __ZNKSt3__18ios_base5widthB8ue170006Ev, symObjAddr: 0x1644, symBinAddr: 0x100004D70, symSize: 0x18 }
  - { offsetInCU: 0xC1C0, offset: 0xC1C0, size: 0x8, addend: 0x0, symName: __ZNKSt3__112basic_stringIcNS_11char_traitsIcEENS_9allocatorIcEEE8max_sizeB8ue170006Ev, symObjAddr: 0x165C, symBinAddr: 0x100004D88, symSize: 0xAC }
  - { offsetInCU: 0xC212, offset: 0xC212, size: 0x8, addend: 0x0, symName: __ZNSt3__114numeric_limitsIlE3maxB8ue170006Ev, symObjAddr: 0x1708, symBinAddr: 0x100004E34, symSize: 0x14 }
  - { offsetInCU: 0xC226, offset: 0xC226, size: 0x8, addend: 0x0, symName: __ZNKSt3__19basic_iosIcNS_11char_traitsIcEEE5rdbufB8ue170006Ev, symObjAddr: 0x1748, symBinAddr: 0x100004E74, symSize: 0x24 }
  - { offsetInCU: 0xC24E, offset: 0xC24E, size: 0x8, addend: 0x0, symName: __ZNSt3__115basic_streambufIcNS_11char_traitsIcEEE5sgetcB8ue170006Ev, symObjAddr: 0x176C, symBinAddr: 0x100004E98, symSize: 0x70 }
  - { offsetInCU: 0xC274, offset: 0xC274, size: 0x8, addend: 0x0, symName: __ZNSt3__111char_traitsIcE11eq_int_typeB8ue170006Eii, symObjAddr: 0x17DC, symBinAddr: 0x100004F08, symSize: 0x28 }
  - { offsetInCU: 0xC2A7, offset: 0xC2A7, size: 0x8, addend: 0x0, symName: __ZNSt3__111char_traitsIcE3eofB8ue170006Ev, symObjAddr: 0x1804, symBinAddr: 0x100004F30, symSize: 0x8 }
  - { offsetInCU: 0xC2BB, offset: 0xC2BB, size: 0x8, addend: 0x0, symName: __ZNSt3__111char_traitsIcE12to_char_typeB8ue170006Ei, symObjAddr: 0x180C, symBinAddr: 0x100004F38, symSize: 0x18 }
  - { offsetInCU: 0xC30B, offset: 0xC30B, size: 0x8, addend: 0x0, symName: __ZNKSt3__15ctypeIcE2isB8ue170006Ejc, symObjAddr: 0x1824, symBinAddr: 0x100004F50, symSize: 0x7C }
  - { offsetInCU: 0xC34F, offset: 0xC34F, size: 0x8, addend: 0x0, symName: __ZNSt3__115basic_streambufIcNS_11char_traitsIcEEE6sbumpcB8ue170006Ev, symObjAddr: 0x18A0, symBinAddr: 0x100004FCC, symSize: 0x78 }
  - { offsetInCU: 0xC375, offset: 0xC375, size: 0x8, addend: 0x0, symName: __ZNSt3__18ios_base5widthB8ue170006El, symObjAddr: 0x1918, symBinAddr: 0x100005044, symSize: 0x2C }
  - { offsetInCU: 0xC3BB, offset: 0xC3BB, size: 0x8, addend: 0x0, symName: __ZNSt3__18ios_base18__setstate_nothrowB8ue170006Ej, symObjAddr: 0x1944, symBinAddr: 0x100005070, symSize: 0x64 }
  - { offsetInCU: 0xC3F0, offset: 0xC3F0, size: 0x8, addend: 0x0, symName: __ZNKSt3__19basic_iosIcNS_11char_traitsIcEEE10exceptionsB8ue170006Ev, symObjAddr: 0x19A8, symBinAddr: 0x1000050D4, symSize: 0x24 }
  - { offsetInCU: 0xC416, offset: 0xC416, size: 0x8, addend: 0x0, symName: __ZNSt3__19basic_iosIcNS_11char_traitsIcEEE8setstateB8ue170006Ej, symObjAddr: 0x19CC, symBinAddr: 0x1000050F8, symSize: 0x2C }
  - { offsetInCU: 0xC44B, offset: 0xC44B, size: 0x8, addend: 0x0, symName: __ZNKSt3__112basic_stringIcNS_11char_traitsIcEENS_9allocatorIcEEE9__is_longB8ue170006Ev, symObjAddr: 0x19F8, symBinAddr: 0x100005124, symSize: 0x74 }
  - { offsetInCU: 0xC471, offset: 0xC471, size: 0x8, addend: 0x0, symName: __ZNSt3__111char_traitsIcE6assignB8ue170006ERcRKc, symObjAddr: 0x1A6C, symBinAddr: 0x100005198, symSize: 0x24 }
  - { offsetInCU: 0xC4A2, offset: 0xC4A2, size: 0x8, addend: 0x0, symName: __ZNSt3__112basic_stringIcNS_11char_traitsIcEENS_9allocatorIcEEE18__get_long_pointerB8ue170006Ev, symObjAddr: 0x1A90, symBinAddr: 0x1000051BC, symSize: 0x28 }
  - { offsetInCU: 0xC4C8, offset: 0xC4C8, size: 0x8, addend: 0x0, symName: __ZNSt3__112basic_stringIcNS_11char_traitsIcEENS_9allocatorIcEEE19__get_short_pointerB8ue170006Ev, symObjAddr: 0x1AB8, symBinAddr: 0x1000051E4, symSize: 0x28 }
  - { offsetInCU: 0xC4EE, offset: 0xC4EE, size: 0x8, addend: 0x0, symName: __ZNSt3__112basic_stringIcNS_11char_traitsIcEENS_9allocatorIcEEE16__set_short_sizeB8ue170006Em, symObjAddr: 0x1AE0, symBinAddr: 0x10000520C, symSize: 0x78 }
  - { offsetInCU: 0xC523, offset: 0xC523, size: 0x8, addend: 0x0, symName: __ZNKSt3__117__compressed_pairINS_12basic_stringIcNS_11char_traitsIcEENS_9allocatorIcEEE5__repES5_E5firstB8ue170006Ev, symObjAddr: 0x1B58, symBinAddr: 0x100005284, symSize: 0x24 }
  - { offsetInCU: 0xC549, offset: 0xC549, size: 0x8, addend: 0x0, symName: __ZNKSt3__122__compressed_pair_elemINS_12basic_stringIcNS_11char_traitsIcEENS_9allocatorIcEEE5__repELi0ELb0EE5__getB8ue170006Ev, symObjAddr: 0x1B7C, symBinAddr: 0x1000052A8, symSize: 0x14 }
  - { offsetInCU: 0xC56F, offset: 0xC56F, size: 0x8, addend: 0x0, symName: __ZNSt3__114pointer_traitsIPcE10pointer_toB8ue170006ERc, symObjAddr: 0x1B90, symBinAddr: 0x1000052BC, symSize: 0x14 }
  - { offsetInCU: 0xC592, offset: 0xC592, size: 0x8, addend: 0x0, symName: __ZNKSt3__112basic_stringIcNS_11char_traitsIcEENS_9allocatorIcEEE7__allocB8ue170006Ev, symObjAddr: 0x1BA4, symBinAddr: 0x1000052D0, symSize: 0x24 }
  - { offsetInCU: 0xC5B8, offset: 0xC5B8, size: 0x8, addend: 0x0, symName: __ZNSt3__114numeric_limitsImE3maxB8ue170006Ev, symObjAddr: 0x1BC8, symBinAddr: 0x1000052F4, symSize: 0x14 }
  - { offsetInCU: 0xC5CC, offset: 0xC5CC, size: 0x8, addend: 0x0, symName: __ZNKSt3__117__compressed_pairINS_12basic_stringIcNS_11char_traitsIcEENS_9allocatorIcEEE5__repES5_E6secondB8ue170006Ev, symObjAddr: 0x1BDC, symBinAddr: 0x100005308, symSize: 0x24 }
  - { offsetInCU: 0xC5F2, offset: 0xC5F2, size: 0x8, addend: 0x0, symName: __ZNKSt3__122__compressed_pair_elemINS_9allocatorIcEELi1ELb1EE5__getB8ue170006Ev, symObjAddr: 0x1C00, symBinAddr: 0x10000532C, symSize: 0x14 }
  - { offsetInCU: 0xC618, offset: 0xC618, size: 0x8, addend: 0x0, symName: __ZNSt3__123__libcpp_numeric_limitsImLb1EE3maxB8ue170006Ev, symObjAddr: 0x1C14, symBinAddr: 0x100005340, symSize: 0x8 }
  - { offsetInCU: 0xC62C, offset: 0xC62C, size: 0x8, addend: 0x0, symName: __ZNSt3__123__libcpp_numeric_limitsIlLb1EE3maxB8ue170006Ev, symObjAddr: 0x1C1C, symBinAddr: 0x100005348, symSize: 0x8 }
  - { offsetInCU: 0xC640, offset: 0xC640, size: 0x8, addend: 0x0, symName: __ZNKSt3__18ios_base5rdbufB8ue170006Ev, symObjAddr: 0x1C24, symBinAddr: 0x100005350, symSize: 0x18 }
  - { offsetInCU: 0xC666, offset: 0xC666, size: 0x8, addend: 0x0, symName: __ZNSt3__111char_traitsIcE11to_int_typeB8ue170006Ec, symObjAddr: 0x1C3C, symBinAddr: 0x100005368, symSize: 0x14 }
  - { offsetInCU: 0xC689, offset: 0xC689, size: 0x8, addend: 0x0, symName: __Z7isasciii, symObjAddr: 0x1C50, symBinAddr: 0x10000537C, symSize: 0x24 }
  - { offsetInCU: 0xC6B6, offset: 0xC6B6, size: 0x8, addend: 0x0, symName: __ZNKSt3__18ios_base10exceptionsB8ue170006Ev, symObjAddr: 0x1C74, symBinAddr: 0x1000053A0, symSize: 0x18 }
  - { offsetInCU: 0xC6DE, offset: 0xC6DE, size: 0x8, addend: 0x0, symName: __ZNSt3__18ios_base8setstateB8ue170006Ej, symObjAddr: 0x1C8C, symBinAddr: 0x1000053B8, symSize: 0x34 }
  - { offsetInCU: 0xC715, offset: 0xC715, size: 0x8, addend: 0x0, symName: __ZNSt3__16__treeINS_12__value_typeINS_12basic_stringIcNS_11char_traitsIcEENS_9allocatorIcEEEEiEENS_19__map_value_compareIS7_S8_NS_4lessIS7_EELb1EEENS5_IS8_EEE12__find_equalIS7_EERPNS_16__tree_node_baseIPvEERPNS_15__tree_end_nodeISJ_EERKT_, symObjAddr: 0x1CC0, symBinAddr: 0x1000053EC, symSize: 0x184 }
  - { offsetInCU: 0xC782, offset: 0xC782, size: 0x8, addend: 0x0, symName: __ZNSt3__13mapINS_12basic_stringIcNS_11char_traitsIcEENS_9allocatorIcEEEEiNS_4lessIS6_EENS4_INS_4pairIKS6_iEEEEE25__construct_node_with_keyERSA_, symObjAddr: 0x1E44, symBinAddr: 0x100005570, symSize: 0x144 }
  - { offsetInCU: 0xC7D8, offset: 0xC7D8, size: 0x8, addend: 0x0, symName: __ZNSt3__16__treeINS_12__value_typeINS_12basic_stringIcNS_11char_traitsIcEENS_9allocatorIcEEEEiEENS_19__map_value_compareIS7_S8_NS_4lessIS7_EELb1EEENS5_IS8_EEE16__insert_node_atEPNS_15__tree_end_nodeIPNS_16__tree_node_baseIPvEEEERSJ_SJ_, symObjAddr: 0x1F88, symBinAddr: 0x1000056B4, symSize: 0xCC }
  - { offsetInCU: 0xC82D, offset: 0xC82D, size: 0x8, addend: 0x0, symName: __ZNKSt3__110unique_ptrINS_11__tree_nodeINS_12__value_typeINS_12basic_stringIcNS_11char_traitsIcEENS_9allocatorIcEEEEiEEPvEENS_21__map_node_destructorINS6_ISB_EEEEE3getB8ue170006Ev, symObjAddr: 0x2054, symBinAddr: 0x100005780, symSize: 0x28 }
  - { offsetInCU: 0xC853, offset: 0xC853, size: 0x8, addend: 0x0, symName: __ZNSt3__110unique_ptrINS_11__tree_nodeINS_12__value_typeINS_12basic_stringIcNS_11char_traitsIcEENS_9allocatorIcEEEEiEEPvEENS_21__map_node_destructorINS6_ISB_EEEEE7releaseB8ue170006Ev, symObjAddr: 0x207C, symBinAddr: 0x1000057A8, symSize: 0x44 }
  - { offsetInCU: 0xC888, offset: 0xC888, size: 0x8, addend: 0x0, symName: __ZNSt3__110unique_ptrINS_11__tree_nodeINS_12__value_typeINS_12basic_stringIcNS_11char_traitsIcEENS_9allocatorIcEEEEiEEPvEENS_21__map_node_destructorINS6_ISB_EEEEED1B8ue170006Ev, symObjAddr: 0x20C0, symBinAddr: 0x1000057EC, symSize: 0x2C }
  - { offsetInCU: 0xC8B2, offset: 0xC8B2, size: 0x8, addend: 0x0, symName: __ZNKSt3__16__treeINS_12__value_typeINS_12basic_stringIcNS_11char_traitsIcEENS_9allocatorIcEEEEiEENS_19__map_value_compareIS7_S8_NS_4lessIS7_EELb1EEENS5_IS8_EEE10__root_ptrB8ue170006Ev, symObjAddr: 0x20EC, symBinAddr: 0x100005818, symSize: 0x24 }
  - { offsetInCU: 0xC8D8, offset: 0xC8D8, size: 0x8, addend: 0x0, symName: __ZNSt3__16__treeINS_12__value_typeINS_12basic_stringIcNS_11char_traitsIcEENS_9allocatorIcEEEEiEENS_19__map_value_compareIS7_S8_NS_4lessIS7_EELb1EEENS5_IS8_EEE10value_compB8ue170006Ev, symObjAddr: 0x2110, symBinAddr: 0x10000583C, symSize: 0x28 }
  - { offsetInCU: 0xC8FE, offset: 0xC8FE, size: 0x8, addend: 0x0, symName: __ZNKSt3__119__map_value_compareINS_12basic_stringIcNS_11char_traitsIcEENS_9allocatorIcEEEENS_12__value_typeIS6_iEENS_4lessIS6_EELb1EEclB8ue170006ERKS6_RKS8_, symObjAddr: 0x2138, symBinAddr: 0x100005864, symSize: 0x50 }
  - { offsetInCU: 0xC942, offset: 0xC942, size: 0x8, addend: 0x0, symName: __ZNKSt3__119__map_value_compareINS_12basic_stringIcNS_11char_traitsIcEENS_9allocatorIcEEEENS_12__value_typeIS6_iEENS_4lessIS6_EELb1EEclB8ue170006ERKS8_RKS6_, symObjAddr: 0x2188, symBinAddr: 0x1000058B4, symSize: 0x48 }
  - { offsetInCU: 0xC986, offset: 0xC986, size: 0x8, addend: 0x0, symName: __ZNSt3__117__compressed_pairImNS_19__map_value_compareINS_12basic_stringIcNS_11char_traitsIcEENS_9allocatorIcEEEENS_12__value_typeIS7_iEENS_4lessIS7_EELb1EEEE6secondB8ue170006Ev, symObjAddr: 0x21D0, symBinAddr: 0x1000058FC, symSize: 0x24 }
  - { offsetInCU: 0xC9AC, offset: 0xC9AC, size: 0x8, addend: 0x0, symName: __ZNSt3__122__compressed_pair_elemINS_19__map_value_compareINS_12basic_stringIcNS_11char_traitsIcEENS_9allocatorIcEEEENS_12__value_typeIS7_iEENS_4lessIS7_EELb1EEELi1ELb1EE5__getB8ue170006Ev, symObjAddr: 0x21F4, symBinAddr: 0x100005920, symSize: 0x14 }
  - { offsetInCU: 0xC9D2, offset: 0xC9D2, size: 0x8, addend: 0x0, symName: __ZNKSt3__14lessINS_12basic_stringIcNS_11char_traitsIcEENS_9allocatorIcEEEEEclB8ue170006ERKS6_S9_, symObjAddr: 0x2208, symBinAddr: 0x100005934, symSize: 0x34 }
  - { offsetInCU: 0xCA16, offset: 0xCA16, size: 0x8, addend: 0x0, symName: __ZNKSt3__112__value_typeINS_12basic_stringIcNS_11char_traitsIcEENS_9allocatorIcEEEEiE11__get_valueB8ue170006Ev, symObjAddr: 0x223C, symBinAddr: 0x100005968, symSize: 0x14 }
  - { offsetInCU: 0xCA3C, offset: 0xCA3C, size: 0x8, addend: 0x0, symName: __ZNKSt3__112basic_stringIcNS_11char_traitsIcEENS_9allocatorIcEEE7compareB8ue170006ERKS5_, symObjAddr: 0x2288, symBinAddr: 0x1000059B4, symSize: 0x4C }
  - { offsetInCU: 0xCA73, offset: 0xCA73, size: 0x8, addend: 0x0, symName: __ZNKSt3__112basic_stringIcNS_11char_traitsIcEENS_9allocatorIcEEE7compareINS_17basic_string_viewIcS2_EELi0EEEiRKT_, symObjAddr: 0x22D4, symBinAddr: 0x100005A00, symSize: 0x140 }
  - { offsetInCU: 0xCAF6, offset: 0xCAF6, size: 0x8, addend: 0x0, symName: __ZNKSt3__112basic_stringIcNS_11char_traitsIcEENS_9allocatorIcEEEcvNS_17basic_string_viewIcS2_EEB8ue170006Ev, symObjAddr: 0x2414, symBinAddr: 0x100005B40, symSize: 0x50 }
  - { offsetInCU: 0xCB1C, offset: 0xCB1C, size: 0x8, addend: 0x0, symName: __ZNKSt3__112basic_stringIcNS_11char_traitsIcEENS_9allocatorIcEEE4sizeB8ue170006Ev, symObjAddr: 0x2464, symBinAddr: 0x100005B90, symSize: 0x54 }
  - { offsetInCU: 0xCB42, offset: 0xCB42, size: 0x8, addend: 0x0, symName: __ZNKSt3__117basic_string_viewIcNS_11char_traitsIcEEE4sizeB8ue170006Ev, symObjAddr: 0x24B8, symBinAddr: 0x100005BE4, symSize: 0x18 }
  - { offsetInCU: 0xCB68, offset: 0xCB68, size: 0x8, addend: 0x0, symName: __ZNSt3__111char_traitsIcE7compareB8ue170006EPKcS3_m, symObjAddr: 0x24D0, symBinAddr: 0x100005BFC, symSize: 0x64 }
  - { offsetInCU: 0xCBA7, offset: 0xCBA7, size: 0x8, addend: 0x0, symName: __ZNKSt3__112basic_stringIcNS_11char_traitsIcEENS_9allocatorIcEEE4dataB8ue170006Ev, symObjAddr: 0x2534, symBinAddr: 0x100005C60, symSize: 0x28 }
  - { offsetInCU: 0xCBCD, offset: 0xCBCD, size: 0x8, addend: 0x0, symName: __ZNKSt3__117basic_string_viewIcNS_11char_traitsIcEEE4dataB8ue170006Ev, symObjAddr: 0x255C, symBinAddr: 0x100005C88, symSize: 0x18 }
  - { offsetInCU: 0xCBF3, offset: 0xCBF3, size: 0x8, addend: 0x0, symName: __ZNKSt3__112basic_stringIcNS_11char_traitsIcEENS_9allocatorIcEEE15__get_long_sizeB8ue170006Ev, symObjAddr: 0x25A0, symBinAddr: 0x100005CCC, symSize: 0x28 }
  - { offsetInCU: 0xCC19, offset: 0xCC19, size: 0x8, addend: 0x0, symName: __ZNKSt3__112basic_stringIcNS_11char_traitsIcEENS_9allocatorIcEEE16__get_short_sizeB8ue170006Ev, symObjAddr: 0x25C8, symBinAddr: 0x100005CF4, symSize: 0x34 }
  - { offsetInCU: 0xCC3F, offset: 0xCC3F, size: 0x8, addend: 0x0, symName: __ZNKSt3__112basic_stringIcNS_11char_traitsIcEENS_9allocatorIcEEE13__get_pointerB8ue170006Ev, symObjAddr: 0x2610, symBinAddr: 0x100005D3C, symSize: 0x54 }
  - { offsetInCU: 0xCC65, offset: 0xCC65, size: 0x8, addend: 0x0, symName: __ZNKSt3__112basic_stringIcNS_11char_traitsIcEENS_9allocatorIcEEE18__get_long_pointerB8ue170006Ev, symObjAddr: 0x2664, symBinAddr: 0x100005D90, symSize: 0x28 }
  - { offsetInCU: 0xCC8B, offset: 0xCC8B, size: 0x8, addend: 0x0, symName: __ZNKSt3__112basic_stringIcNS_11char_traitsIcEENS_9allocatorIcEEE19__get_short_pointerB8ue170006Ev, symObjAddr: 0x268C, symBinAddr: 0x100005DB8, symSize: 0x28 }
  - { offsetInCU: 0xCCB1, offset: 0xCCB1, size: 0x8, addend: 0x0, symName: __ZNSt3__114pointer_traitsIPKcE10pointer_toB8ue170006ERS1_, symObjAddr: 0x26B4, symBinAddr: 0x100005DE0, symSize: 0x14 }
  - { offsetInCU: 0xCCDE, offset: 0xCCDE, size: 0x8, addend: 0x0, symName: __ZNKSt3__16__lessIvvEclB8ue170006ImmEEbRKT_RKT0_, symObjAddr: 0x271C, symBinAddr: 0x100005E48, symSize: 0x34 }
  - { offsetInCU: 0xCD32, offset: 0xCD32, size: 0x8, addend: 0x0, symName: __ZNSt3__117basic_string_viewIcNS_11char_traitsIcEEEC1B8ue170006EPKcm, symObjAddr: 0x2750, symBinAddr: 0x100005E7C, symSize: 0x3C }
  - { offsetInCU: 0xCD7A, offset: 0xCD7A, size: 0x8, addend: 0x0, symName: __ZNSt3__117basic_string_viewIcNS_11char_traitsIcEEEC2B8ue170006EPKcm, symObjAddr: 0x278C, symBinAddr: 0x100005EB8, symSize: 0x2C }
  - { offsetInCU: 0xCDC2, offset: 0xCDC2, size: 0x8, addend: 0x0, symName: __ZNSt3__116allocator_traitsINS_9allocatorINS_11__tree_nodeINS_12__value_typeINS_12basic_stringIcNS_11char_traitsIcEENS1_IcEEEEiEEPvEEEEE8allocateB8ue170006ERSC_m, symObjAddr: 0x27B8, symBinAddr: 0x100005EE4, symSize: 0x2C }
  - { offsetInCU: 0xCDF5, offset: 0xCDF5, size: 0x8, addend: 0x0, symName: __ZNSt3__121__map_node_destructorINS_9allocatorINS_11__tree_nodeINS_12__value_typeINS_12basic_stringIcNS_11char_traitsIcEENS1_IcEEEEiEEPvEEEEEC1B8ue170006ERSC_, symObjAddr: 0x27E4, symBinAddr: 0x100005F10, symSize: 0x34 }
  - { offsetInCU: 0xCE33, offset: 0xCE33, size: 0x8, addend: 0x0, symName: __ZNSt3__110unique_ptrINS_11__tree_nodeINS_12__value_typeINS_12basic_stringIcNS_11char_traitsIcEENS_9allocatorIcEEEEiEEPvEENS_21__map_node_destructorINS6_ISB_EEEEEC1B8ue170006ILb1EvEEPSB_NS_16__dependent_typeINS_27__unique_ptr_deleter_sfinaeISE_EEXT_EE20__good_rval_ref_typeE, symObjAddr: 0x2818, symBinAddr: 0x100005F44, symSize: 0x3C }
  - { offsetInCU: 0xCE89, offset: 0xCE89, size: 0x8, addend: 0x0, symName: __ZNSt3__116allocator_traitsINS_9allocatorINS_11__tree_nodeINS_12__value_typeINS_12basic_stringIcNS_11char_traitsIcEENS1_IcEEEEiEEPvEEEEE9constructB8ue170006IKS8_JRSF_EvEEvRSC_PT_DpOT0_, symObjAddr: 0x2854, symBinAddr: 0x100005F80, symSize: 0x34 }
  - { offsetInCU: 0xCEE0, offset: 0xCEE0, size: 0x8, addend: 0x0, symName: __ZNKSt3__110unique_ptrINS_11__tree_nodeINS_12__value_typeINS_12basic_stringIcNS_11char_traitsIcEENS_9allocatorIcEEEEiEEPvEENS_21__map_node_destructorINS6_ISB_EEEEEptB8ue170006Ev, symObjAddr: 0x2888, symBinAddr: 0x100005FB4, symSize: 0x28 }
  - { offsetInCU: 0xCF06, offset: 0xCF06, size: 0x8, addend: 0x0, symName: __ZNSt3__110unique_ptrINS_11__tree_nodeINS_12__value_typeINS_12basic_stringIcNS_11char_traitsIcEENS_9allocatorIcEEEEiEEPvEENS_21__map_node_destructorINS6_ISB_EEEEE11get_deleterB8ue170006Ev, symObjAddr: 0x28B0, symBinAddr: 0x100005FDC, symSize: 0x24 }
  - { offsetInCU: 0xCF2C, offset: 0xCF2C, size: 0x8, addend: 0x0, symName: __ZNSt3__116allocator_traitsINS_9allocatorINS_11__tree_nodeINS_12__value_typeINS_12basic_stringIcNS_11char_traitsIcEENS1_IcEEEEiEEPvEEEEE9constructB8ue170006IiJEvEEvRSC_PT_DpOT0_, symObjAddr: 0x28D4, symBinAddr: 0x100006000, symSize: 0x2C }
  - { offsetInCU: 0xCF6E, offset: 0xCF6E, size: 0x8, addend: 0x0, symName: __ZNSt3__19allocatorINS_11__tree_nodeINS_12__value_typeINS_12basic_stringIcNS_11char_traitsIcEENS0_IcEEEEiEEPvEEE8allocateB8ue170006Em, symObjAddr: 0x2900, symBinAddr: 0x10000602C, symSize: 0x84 }
  - { offsetInCU: 0xCFAC, offset: 0xCFAC, size: 0x8, addend: 0x0, symName: __ZNSt3__116allocator_traitsINS_9allocatorINS_11__tree_nodeINS_12__value_typeINS_12basic_stringIcNS_11char_traitsIcEENS1_IcEEEEiEEPvEEEEE8max_sizeB8ue170006ISC_vEEmRKSC_, symObjAddr: 0x2984, symBinAddr: 0x1000060B0, symSize: 0x24 }
  - { offsetInCU: 0xCFDA, offset: 0xCFDA, size: 0x8, addend: 0x0, symName: __ZNKSt3__19allocatorINS_11__tree_nodeINS_12__value_typeINS_12basic_stringIcNS_11char_traitsIcEENS0_IcEEEEiEEPvEEE8max_sizeB8ue170006Ev, symObjAddr: 0x29A8, symBinAddr: 0x1000060D4, symSize: 0x14 }
  - { offsetInCU: 0xD000, offset: 0xD000, size: 0x8, addend: 0x0, symName: __ZNSt3__121__map_node_destructorINS_9allocatorINS_11__tree_nodeINS_12__value_typeINS_12basic_stringIcNS_11char_traitsIcEENS1_IcEEEEiEEPvEEEEEC2B8ue170006ERSC_, symObjAddr: 0x29BC, symBinAddr: 0x1000060E8, symSize: 0x28 }
  - { offsetInCU: 0xD039, offset: 0xD039, size: 0x8, addend: 0x0, symName: __ZNSt3__110unique_ptrINS_11__tree_nodeINS_12__value_typeINS_12basic_stringIcNS_11char_traitsIcEENS_9allocatorIcEEEEiEEPvEENS_21__map_node_destructorINS6_ISB_EEEEEC2B8ue170006ILb1EvEEPSB_NS_16__dependent_typeINS_27__unique_ptr_deleter_sfinaeISE_EEXT_EE20__good_rval_ref_typeE, symObjAddr: 0x29E4, symBinAddr: 0x100006110, symSize: 0x5C }
  - { offsetInCU: 0xD08A, offset: 0xD08A, size: 0x8, addend: 0x0, symName: __ZNSt3__117__compressed_pairIPNS_11__tree_nodeINS_12__value_typeINS_12basic_stringIcNS_11char_traitsIcEENS_9allocatorIcEEEEiEEPvEENS_21__map_node_destructorINS6_ISB_EEEEEC1B8ue170006IRSC_SF_EEOT_OT0_, symObjAddr: 0x2A40, symBinAddr: 0x10000616C, symSize: 0x3C }
  - { offsetInCU: 0xD0E2, offset: 0xD0E2, size: 0x8, addend: 0x0, symName: __ZNSt3__117__compressed_pairIPNS_11__tree_nodeINS_12__value_typeINS_12basic_stringIcNS_11char_traitsIcEENS_9allocatorIcEEEEiEEPvEENS_21__map_node_destructorINS6_ISB_EEEEEC2B8ue170006IRSC_SF_EEOT_OT0_, symObjAddr: 0x2A7C, symBinAddr: 0x1000061A8, symSize: 0x48 }
  - { offsetInCU: 0xD13A, offset: 0xD13A, size: 0x8, addend: 0x0, symName: __ZNSt3__122__compressed_pair_elemIPNS_11__tree_nodeINS_12__value_typeINS_12basic_stringIcNS_11char_traitsIcEENS_9allocatorIcEEEEiEEPvEELi0ELb0EEC2B8ue170006IRSC_vEEOT_, symObjAddr: 0x2AC4, symBinAddr: 0x1000061F0, symSize: 0x24 }
  - { offsetInCU: 0xD17C, offset: 0xD17C, size: 0x8, addend: 0x0, symName: __ZNSt3__122__compressed_pair_elemINS_21__map_node_destructorINS_9allocatorINS_11__tree_nodeINS_12__value_typeINS_12basic_stringIcNS_11char_traitsIcEENS2_IcEEEEiEEPvEEEEEELi1ELb0EEC2B8ue170006ISE_vEEOT_, symObjAddr: 0x2AE8, symBinAddr: 0x100006214, symSize: 0x24 }
  - { offsetInCU: 0xD1BE, offset: 0xD1BE, size: 0x8, addend: 0x0, symName: __ZNSt3__19allocatorINS_11__tree_nodeINS_12__value_typeINS_12basic_stringIcNS_11char_traitsIcEENS0_IcEEEEiEEPvEEE9constructB8ue170006IKS7_JRSD_EEEvPT_DpOT0_, symObjAddr: 0x2B0C, symBinAddr: 0x100006238, symSize: 0x30 }
  - { offsetInCU: 0xD214, offset: 0xD214, size: 0x8, addend: 0x0, symName: __ZNKSt3__117__compressed_pairIPNS_11__tree_nodeINS_12__value_typeINS_12basic_stringIcNS_11char_traitsIcEENS_9allocatorIcEEEEiEEPvEENS_21__map_node_destructorINS6_ISB_EEEEE5firstB8ue170006Ev, symObjAddr: 0x2B3C, symBinAddr: 0x100006268, symSize: 0x24 }
  - { offsetInCU: 0xD23A, offset: 0xD23A, size: 0x8, addend: 0x0, symName: __ZNKSt3__122__compressed_pair_elemIPNS_11__tree_nodeINS_12__value_typeINS_12basic_stringIcNS_11char_traitsIcEENS_9allocatorIcEEEEiEEPvEELi0ELb0EE5__getB8ue170006Ev, symObjAddr: 0x2B60, symBinAddr: 0x10000628C, symSize: 0x14 }
  - { offsetInCU: 0xD260, offset: 0xD260, size: 0x8, addend: 0x0, symName: __ZNSt3__117__compressed_pairIPNS_11__tree_nodeINS_12__value_typeINS_12basic_stringIcNS_11char_traitsIcEENS_9allocatorIcEEEEiEEPvEENS_21__map_node_destructorINS6_ISB_EEEEE6secondB8ue170006Ev, symObjAddr: 0x2B74, symBinAddr: 0x1000062A0, symSize: 0x28 }
  - { offsetInCU: 0xD286, offset: 0xD286, size: 0x8, addend: 0x0, symName: __ZNSt3__122__compressed_pair_elemINS_21__map_node_destructorINS_9allocatorINS_11__tree_nodeINS_12__value_typeINS_12basic_stringIcNS_11char_traitsIcEENS2_IcEEEEiEEPvEEEEEELi1ELb0EE5__getB8ue170006Ev, symObjAddr: 0x2B9C, symBinAddr: 0x1000062C8, symSize: 0x14 }
  - { offsetInCU: 0xD2AC, offset: 0xD2AC, size: 0x8, addend: 0x0, symName: __ZNSt3__19allocatorINS_11__tree_nodeINS_12__value_typeINS_12basic_stringIcNS_11char_traitsIcEENS0_IcEEEEiEEPvEEE9constructB8ue170006IiJEEEvPT_DpOT0_, symObjAddr: 0x2BB0, symBinAddr: 0x1000062DC, symSize: 0x1C }
  - { offsetInCU: 0xD2EE, offset: 0xD2EE, size: 0x8, addend: 0x0, symName: __ZNSt3__16__treeINS_12__value_typeINS_12basic_stringIcNS_11char_traitsIcEENS_9allocatorIcEEEEiEENS_19__map_value_compareIS7_S8_NS_4lessIS7_EELb1EEENS5_IS8_EEE4sizeB8ue170006Ev, symObjAddr: 0x2F0C, symBinAddr: 0x100006638, symSize: 0x28 }
  - { offsetInCU: 0xD314, offset: 0xD314, size: 0x8, addend: 0x0, symName: __ZNKSt3__116__tree_node_baseIPvE15__parent_unsafeB8ue170006Ev, symObjAddr: 0x2F34, symBinAddr: 0x100006660, symSize: 0x18 }
  - { offsetInCU: 0xD33A, offset: 0xD33A, size: 0x8, addend: 0x0, symName: __ZNSt3__116__tree_node_baseIPvE12__set_parentB8ue170006EPS2_, symObjAddr: 0x3130, symBinAddr: 0x10000685C, symSize: 0x20 }
  - { offsetInCU: 0xD36F, offset: 0xD36F, size: 0x8, addend: 0x0, symName: __ZNSt3__117__compressed_pairImNS_19__map_value_compareINS_12basic_stringIcNS_11char_traitsIcEENS_9allocatorIcEEEENS_12__value_typeIS7_iEENS_4lessIS7_EELb1EEEE5firstB8ue170006Ev, symObjAddr: 0x3150, symBinAddr: 0x10000687C, symSize: 0x24 }
  - { offsetInCU: 0xD395, offset: 0xD395, size: 0x8, addend: 0x0, symName: __ZNSt3__122__compressed_pair_elemImLi0ELb0EE5__getB8ue170006Ev, symObjAddr: 0x3174, symBinAddr: 0x1000068A0, symSize: 0x14 }
  - { offsetInCU: 0xD3BB, offset: 0xD3BB, size: 0x8, addend: 0x0, symName: __ZNSt3__117__compressed_pairIPNS_11__tree_nodeINS_12__value_typeINS_12basic_stringIcNS_11char_traitsIcEENS_9allocatorIcEEEEiEEPvEENS_21__map_node_destructorINS6_ISB_EEEEE5firstB8ue170006Ev, symObjAddr: 0x3188, symBinAddr: 0x1000068B4, symSize: 0x24 }
  - { offsetInCU: 0xD3E1, offset: 0xD3E1, size: 0x8, addend: 0x0, symName: __ZNSt3__122__compressed_pair_elemIPNS_11__tree_nodeINS_12__value_typeINS_12basic_stringIcNS_11char_traitsIcEENS_9allocatorIcEEEEiEEPvEELi0ELb0EE5__getB8ue170006Ev, symObjAddr: 0x31AC, symBinAddr: 0x1000068D8, symSize: 0x14 }
  - { offsetInCU: 0xD407, offset: 0xD407, size: 0x8, addend: 0x0, symName: __ZNSt3__110unique_ptrINS_11__tree_nodeINS_12__value_typeINS_12basic_stringIcNS_11char_traitsIcEENS_9allocatorIcEEEEiEEPvEENS_21__map_node_destructorINS6_ISB_EEEEED2B8ue170006Ev, symObjAddr: 0x31C0, symBinAddr: 0x1000068EC, symSize: 0x30 }
  - { offsetInCU: 0xD431, offset: 0xD431, size: 0x8, addend: 0x0, symName: __ZNSt3__110unique_ptrINS_11__tree_nodeINS_12__value_typeINS_12basic_stringIcNS_11char_traitsIcEENS_9allocatorIcEEEEiEEPvEENS_21__map_node_destructorINS6_ISB_EEEEE5resetB8ue170006EPSB_, symObjAddr: 0x31F0, symBinAddr: 0x10000691C, symSize: 0x78 }
  - { offsetInCU: 0xD475, offset: 0xD475, size: 0x8, addend: 0x0, symName: __ZNSt3__121__map_node_destructorINS_9allocatorINS_11__tree_nodeINS_12__value_typeINS_12basic_stringIcNS_11char_traitsIcEENS1_IcEEEEiEEPvEEEEEclB8ue170006EPSB_, symObjAddr: 0x3268, symBinAddr: 0x100006994, symSize: 0xE4 }
  - { offsetInCU: 0xD4AA, offset: 0xD4AA, size: 0x8, addend: 0x0, symName: __ZNSt3__116allocator_traitsINS_9allocatorINS_11__tree_nodeINS_12__value_typeINS_12basic_stringIcNS_11char_traitsIcEENS1_IcEEEEiEEPvEEEEE7destroyB8ue170006IivvEEvRSC_PT_, symObjAddr: 0x334C, symBinAddr: 0x100006A78, symSize: 0x14 }
  - { offsetInCU: 0xD4E5, offset: 0xD4E5, size: 0x8, addend: 0x0, symName: __ZNSt3__116allocator_traitsINS_9allocatorINS_11__tree_nodeINS_12__value_typeINS_12basic_stringIcNS_11char_traitsIcEENS1_IcEEEEiEEPvEEEEE7destroyB8ue170006IKS8_vvEEvRSC_PT_, symObjAddr: 0x3360, symBinAddr: 0x100006A8C, symSize: 0x28 }
  - { offsetInCU: 0xD520, offset: 0xD520, size: 0x8, addend: 0x0, symName: __ZNSt3__16__treeINS_12__value_typeINS_12basic_stringIcNS_11char_traitsIcEENS_9allocatorIcEEEEiEENS_19__map_value_compareIS7_S8_NS_4lessIS7_EELb1EEENS5_IS8_EEE14__erase_uniqueIS7_EEmRKT_, symObjAddr: 0x3388, symBinAddr: 0x100006AB4, symSize: 0xA0 }
  - { offsetInCU: 0xD56F, offset: 0xD56F, size: 0x8, addend: 0x0, symName: __ZNSt3__16__treeINS_12__value_typeINS_12basic_stringIcNS_11char_traitsIcEENS_9allocatorIcEEEEiEENS_19__map_value_compareIS7_S8_NS_4lessIS7_EELb1EEENS5_IS8_EEE4findIS7_EENS_15__tree_iteratorIS8_PNS_11__tree_nodeIS8_PvEElEERKT_, symObjAddr: 0x3428, symBinAddr: 0x100006B54, symSize: 0xF8 }
  - { offsetInCU: 0xD5BE, offset: 0xD5BE, size: 0x8, addend: 0x0, symName: __ZNSt3__16__treeINS_12__value_typeINS_12basic_stringIcNS_11char_traitsIcEENS_9allocatorIcEEEEiEENS_19__map_value_compareIS7_S8_NS_4lessIS7_EELb1EEENS5_IS8_EEE3endB8ue170006Ev, symObjAddr: 0x3550, symBinAddr: 0x100006C7C, symSize: 0x34 }
  - { offsetInCU: 0xD5E4, offset: 0xD5E4, size: 0x8, addend: 0x0, symName: __ZNSt3__16__treeINS_12__value_typeINS_12basic_stringIcNS_11char_traitsIcEENS_9allocatorIcEEEEiEENS_19__map_value_compareIS7_S8_NS_4lessIS7_EELb1EEENS5_IS8_EEE5eraseENS_21__tree_const_iteratorIS8_PNS_11__tree_nodeIS8_PvEElEE, symObjAddr: 0x3584, symBinAddr: 0x100006CB0, symSize: 0x98 }
  - { offsetInCU: 0xD648, offset: 0xD648, size: 0x8, addend: 0x0, symName: __ZNSt3__121__tree_const_iteratorINS_12__value_typeINS_12basic_stringIcNS_11char_traitsIcEENS_9allocatorIcEEEEiEEPNS_11__tree_nodeIS8_PvEElEC1B8ue170006ENS_15__tree_iteratorIS8_SC_lEE, symObjAddr: 0x361C, symBinAddr: 0x100006D48, symSize: 0x34 }
  - { offsetInCU: 0xD681, offset: 0xD681, size: 0x8, addend: 0x0, symName: __ZNSt3__16__treeINS_12__value_typeINS_12basic_stringIcNS_11char_traitsIcEENS_9allocatorIcEEEEiEENS_19__map_value_compareIS7_S8_NS_4lessIS7_EELb1EEENS5_IS8_EEE13__lower_boundIS7_EENS_15__tree_iteratorIS8_PNS_11__tree_nodeIS8_PvEElEERKT_SK_PNS_15__tree_end_nodeIPNS_16__tree_node_baseISI_EEEE, symObjAddr: 0x3650, symBinAddr: 0x100006D7C, symSize: 0xA4 }
  - { offsetInCU: 0xD6DF, offset: 0xD6DF, size: 0x8, addend: 0x0, symName: __ZNKSt3__115__tree_iteratorINS_12__value_typeINS_12basic_stringIcNS_11char_traitsIcEENS_9allocatorIcEEEEiEEPNS_11__tree_nodeIS8_PvEElEdeB8ue170006Ev, symObjAddr: 0x3728, symBinAddr: 0x100006E54, symSize: 0x28 }
  - { offsetInCU: 0xD705, offset: 0xD705, size: 0x8, addend: 0x0, symName: __ZNSt3__115__tree_iteratorINS_12__value_typeINS_12basic_stringIcNS_11char_traitsIcEENS_9allocatorIcEEEEiEEPNS_11__tree_nodeIS8_PvEElEC1B8ue170006EPNS_15__tree_end_nodeIPNS_16__tree_node_baseISA_EEEE, symObjAddr: 0x3750, symBinAddr: 0x100006E7C, symSize: 0x34 }
  - { offsetInCU: 0xD73E, offset: 0xD73E, size: 0x8, addend: 0x0, symName: __ZNSt3__115__tree_iteratorINS_12__value_typeINS_12basic_stringIcNS_11char_traitsIcEENS_9allocatorIcEEEEiEEPNS_11__tree_nodeIS8_PvEElEC2B8ue170006EPNS_15__tree_end_nodeIPNS_16__tree_node_baseISA_EEEE, symObjAddr: 0x3784, symBinAddr: 0x100006EB0, symSize: 0x20 }
  - { offsetInCU: 0xD777, offset: 0xD777, size: 0x8, addend: 0x0, symName: __ZNKSt3__115__tree_iteratorINS_12__value_typeINS_12basic_stringIcNS_11char_traitsIcEENS_9allocatorIcEEEEiEEPNS_11__tree_nodeIS8_PvEElE8__get_npB8ue170006Ev, symObjAddr: 0x37A4, symBinAddr: 0x100006ED0, symSize: 0x18 }
  - { offsetInCU: 0xD79D, offset: 0xD79D, size: 0x8, addend: 0x0, symName: __ZNKSt3__121__tree_const_iteratorINS_12__value_typeINS_12basic_stringIcNS_11char_traitsIcEENS_9allocatorIcEEEEiEEPNS_11__tree_nodeIS8_PvEElE8__get_npB8ue170006Ev, symObjAddr: 0x37BC, symBinAddr: 0x100006EE8, symSize: 0x18 }
  - { offsetInCU: 0xD7C3, offset: 0xD7C3, size: 0x8, addend: 0x0, symName: __ZNSt3__16__treeINS_12__value_typeINS_12basic_stringIcNS_11char_traitsIcEENS_9allocatorIcEEEEiEENS_19__map_value_compareIS7_S8_NS_4lessIS7_EELb1EEENS5_IS8_EEE21__remove_node_pointerEPNS_11__tree_nodeIS8_PvEE, symObjAddr: 0x37D4, symBinAddr: 0x100006F00, symSize: 0xC8 }
  - { offsetInCU: 0xD809, offset: 0xD809, size: 0x8, addend: 0x0, symName: __ZNKSt3__121__tree_const_iteratorINS_12__value_typeINS_12basic_stringIcNS_11char_traitsIcEENS_9allocatorIcEEEEiEEPNS_11__tree_nodeIS8_PvEElEdeB8ue170006Ev, symObjAddr: 0x389C, symBinAddr: 0x100006FC8, symSize: 0x28 }
  - { offsetInCU: 0xD82F, offset: 0xD82F, size: 0x8, addend: 0x0, symName: __ZNSt3__115__tree_iteratorINS_12__value_typeINS_12basic_stringIcNS_11char_traitsIcEENS_9allocatorIcEEEEiEEPNS_11__tree_nodeIS8_PvEElEC1B8ue170006ESC_, symObjAddr: 0x38C4, symBinAddr: 0x100006FF0, symSize: 0x34 }
  - { offsetInCU: 0xD868, offset: 0xD868, size: 0x8, addend: 0x0, symName: __ZNSt3__115__tree_iteratorINS_12__value_typeINS_12basic_stringIcNS_11char_traitsIcEENS_9allocatorIcEEEEiEEPNS_11__tree_nodeIS8_PvEElEppB8ue170006Ev, symObjAddr: 0x38F8, symBinAddr: 0x100007024, symSize: 0x38 }
  - { offsetInCU: 0xD88E, offset: 0xD88E, size: 0x8, addend: 0x0, symName: __ZNSt3__115__tree_iteratorINS_12__value_typeINS_12basic_stringIcNS_11char_traitsIcEENS_9allocatorIcEEEEiEEPNS_11__tree_nodeIS8_PvEElEC2B8ue170006ESC_, symObjAddr: 0x4010, symBinAddr: 0x10000773C, symSize: 0x20 }
  - { offsetInCU: 0xD8C7, offset: 0xD8C7, size: 0x8, addend: 0x0, symName: __ZNSt3__121__tree_const_iteratorINS_12__value_typeINS_12basic_stringIcNS_11char_traitsIcEENS_9allocatorIcEEEEiEEPNS_11__tree_nodeIS8_PvEElEC2B8ue170006ENS_15__tree_iteratorIS8_SC_lEE, symObjAddr: 0x4170, symBinAddr: 0x10000789C, symSize: 0x20 }
  - { offsetInCU: 0xD900, offset: 0xD900, size: 0x8, addend: 0x0, symName: __ZNSt3__114__map_iteratorINS_15__tree_iteratorINS_12__value_typeINS_12basic_stringIcNS_11char_traitsIcEENS_9allocatorIcEEEEiEEPNS_11__tree_nodeIS9_PvEElEEEC1B8ue170006ESE_, symObjAddr: 0x4190, symBinAddr: 0x1000078BC, symSize: 0x34 }
  - { offsetInCU: 0xD939, offset: 0xD939, size: 0x8, addend: 0x0, symName: __ZNSt3__114__map_iteratorINS_15__tree_iteratorINS_12__value_typeINS_12basic_stringIcNS_11char_traitsIcEENS_9allocatorIcEEEEiEEPNS_11__tree_nodeIS9_PvEElEEEC2B8ue170006ESE_, symObjAddr: 0x41C4, symBinAddr: 0x1000078F0, symSize: 0x20 }
  - { offsetInCU: 0xD972, offset: 0xD972, size: 0x8, addend: 0x0, symName: __ZNKSt3__19basic_iosIcNS_11char_traitsIcEEE5widenB8ue170006Ec, symObjAddr: 0x41E4, symBinAddr: 0x100007910, symSize: 0x8C }
  - { offsetInCU: 0xD9A9, offset: 0xD9A9, size: 0x8, addend: 0x0, symName: __ZNKSt3__15ctypeIcE5widenB8ue170006Ec, symObjAddr: 0x4270, symBinAddr: 0x10000799C, symSize: 0x38 }
...
