---
triple:          'arm64-apple-darwin'
binary-path:     'output/box_it'
relocations:
  - { offsetInCU: 0x2D97, offset: 0x2D97, size: 0x8, addend: 0x0, symName: __ZNSt3__124__put_character_sequenceB8ue170006IcNS_11char_traitsIcEEEERNS_13basic_ostreamIT_T0_EES7_PKS4_m, symObjAddr: 0x65C, symBinAddr: 0x100003154, symSize: 0x1F4 }
  - { offsetInCU: 0x46E4, offset: 0x46E4, size: 0x8, addend: 0x0, symName: __ZNSt3__14endlB8ue170006IcNS_11char_traitsIcEEEERNS_13basic_ostreamIT_T0_EES7_, symObjAddr: 0x2E0, symBinAddr: 0x100002DD8, symSize: 0x58 }
  - { offsetInCU: 0x4724, offset: 0x4724, size: 0x8, addend: 0x0, symName: __ZNSt3__1lsB8ue170006INS_11char_traitsIcEEEERNS_13basic_ostreamIcT_EES6_PKc, symObjAddr: 0x50C, symBinAddr: 0x100003004, symSize: 0x48 }
  - { offsetInCU: 0x476A, offset: 0x476A, size: 0x8, addend: 0x0, symName: __ZNSt3__116__pad_and_outputB8ue170006IcNS_11char_traitsIcEEEENS_19ostreambuf_iteratorIT_T0_EES6_PKS4_S8_S8_RNS_8ios_baseES4_, symObjAddr: 0x8B4, symBinAddr: 0x1000033AC, symSize: 0x248 }
  - { offsetInCU: 0x4839, offset: 0x4839, size: 0x8, addend: 0x0, symName: __ZNSt3__112__to_addressB8ue170006IKcEEPT_S3_, symObjAddr: 0xE30, symBinAddr: 0x100003928, symSize: 0x14 }
  - { offsetInCU: 0x486E, offset: 0x486E, size: 0x8, addend: 0x0, symName: __ZNSt3__130__libcpp_is_constant_evaluatedB8ue170006Ev, symObjAddr: 0xF5C, symBinAddr: 0x100003A54, symSize: 0xC }
  - { offsetInCU: 0x48BE, offset: 0x48BE, size: 0x8, addend: 0x0, symName: __ZNSt3__19use_facetB8ue170006INS_5ctypeIcEEEERKT_RKNS_6localeE, symObjAddr: 0x1114, symBinAddr: 0x100003C0C, symSize: 0x2C }
  - { offsetInCU: 0x4D8B, offset: 0x4D8B, size: 0x8, addend: 0x0, symName: __ZNSt3__118__constexpr_strlenB8ue170006EPKc, symObjAddr: 0x11AC, symBinAddr: 0x100003CA4, symSize: 0x24 }
  - { offsetInCU: 0x736A, offset: 0x736A, size: 0x8, addend: 0x0, symName: __Z6check2v, symObjAddr: 0x0, symBinAddr: 0x100002AF8, symSize: 0x224 }
  - { offsetInCU: 0x7594, offset: 0x7594, size: 0x8, addend: 0x0, symName: __ZN3BoxC1Ev, symObjAddr: 0x224, symBinAddr: 0x100002D1C, symSize: 0x2C }
  - { offsetInCU: 0x75BC, offset: 0x75BC, size: 0x8, addend: 0x0, symName: __ZlsRNSt3__113basic_ostreamIcNS_11char_traitsIcEEEERK3Box, symObjAddr: 0x250, symBinAddr: 0x100002D48, symSize: 0x64 }
  - { offsetInCU: 0x75F6, offset: 0x75F6, size: 0x8, addend: 0x0, symName: __ZNSt3__113basic_ostreamIcNS_11char_traitsIcEEElsB8ue170006EPFRS3_S4_E, symObjAddr: 0x2B4, symBinAddr: 0x100002DAC, symSize: 0x2C }
  - { offsetInCU: 0x7628, offset: 0x7628, size: 0x8, addend: 0x0, symName: __ZN3BoxC1Eiii, symObjAddr: 0x338, symBinAddr: 0x100002E30, symSize: 0x44 }
  - { offsetInCU: 0x767A, offset: 0x767A, size: 0x8, addend: 0x0, symName: __ZN3BoxaSERKS_, symObjAddr: 0x37C, symBinAddr: 0x100002E74, symSize: 0x60 }
  - { offsetInCU: 0x76AC, offset: 0x76AC, size: 0x8, addend: 0x0, symName: __ZNK3BoxltERKS_, symObjAddr: 0x3DC, symBinAddr: 0x100002ED4, symSize: 0x130 }
  - { offsetInCU: 0x76DE, offset: 0x76DE, size: 0x8, addend: 0x0, symName: __ZNK3Box15CalculateVolumeEv, symObjAddr: 0x554, symBinAddr: 0x10000304C, symSize: 0x28 }
  - { offsetInCU: 0x7702, offset: 0x7702, size: 0x8, addend: 0x0, symName: __ZN3BoxC1ERKS_, symObjAddr: 0x57C, symBinAddr: 0x100003074, symSize: 0x34 }
  - { offsetInCU: 0x7738, offset: 0x7738, size: 0x8, addend: 0x0, symName: _main, symObjAddr: 0x5B0, symBinAddr: 0x1000030A8, symSize: 0x18 }
  - { offsetInCU: 0x7751, offset: 0x7751, size: 0x8, addend: 0x0, symName: __ZN3BoxC2Ev, symObjAddr: 0x5C8, symBinAddr: 0x1000030C0, symSize: 0x20 }
  - { offsetInCU: 0x7779, offset: 0x7779, size: 0x8, addend: 0x0, symName: __ZN3BoxC2Eiii, symObjAddr: 0x5E8, symBinAddr: 0x1000030E0, symSize: 0x38 }
  - { offsetInCU: 0x77CB, offset: 0x77CB, size: 0x8, addend: 0x0, symName: __ZN3BoxC2ERKS_, symObjAddr: 0x620, symBinAddr: 0x100003118, symSize: 0x3C }
  - { offsetInCU: 0x7801, offset: 0x7801, size: 0x8, addend: 0x0, symName: __ZNSt3__111char_traitsIcE6lengthB8ue170006EPKc, symObjAddr: 0x850, symBinAddr: 0x100003348, symSize: 0x48 }
  - { offsetInCU: 0x7841, offset: 0x7841, size: 0x8, addend: 0x0, symName: __ZNKSt3__113basic_ostreamIcNS_11char_traitsIcEEE6sentrycvbB8ue170006Ev, symObjAddr: 0x898, symBinAddr: 0x100003390, symSize: 0x1C }
  - { offsetInCU: 0x7865, offset: 0x7865, size: 0x8, addend: 0x0, symName: __ZNSt3__119ostreambuf_iteratorIcNS_11char_traitsIcEEEC1B8ue170006ERNS_13basic_ostreamIcS2_EE, symObjAddr: 0xAFC, symBinAddr: 0x1000035F4, symSize: 0x34 }
  - { offsetInCU: 0x789B, offset: 0x789B, size: 0x8, addend: 0x0, symName: __ZNKSt3__18ios_base5flagsB8ue170006Ev, symObjAddr: 0xB30, symBinAddr: 0x100003628, symSize: 0x18 }
  - { offsetInCU: 0x78C1, offset: 0x78C1, size: 0x8, addend: 0x0, symName: __ZNKSt3__19basic_iosIcNS_11char_traitsIcEEE4fillB8ue170006Ev, symObjAddr: 0xB48, symBinAddr: 0x100003640, symSize: 0x64 }
  - { offsetInCU: 0x78E7, offset: 0x78E7, size: 0x8, addend: 0x0, symName: __ZNKSt3__119ostreambuf_iteratorIcNS_11char_traitsIcEEE6failedB8ue170006Ev, symObjAddr: 0xBAC, symBinAddr: 0x1000036A4, symSize: 0x24 }
  - { offsetInCU: 0x790B, offset: 0x790B, size: 0x8, addend: 0x0, symName: __ZNSt3__19basic_iosIcNS_11char_traitsIcEEE8setstateB8ue170006Ej, symObjAddr: 0xBD0, symBinAddr: 0x1000036C8, symSize: 0x2C }
  - { offsetInCU: 0x793E, offset: 0x793E, size: 0x8, addend: 0x0, symName: __ZNKSt3__18ios_base5widthB8ue170006Ev, symObjAddr: 0xC08, symBinAddr: 0x100003700, symSize: 0x18 }
  - { offsetInCU: 0x7964, offset: 0x7964, size: 0x8, addend: 0x0, symName: __ZNSt3__115basic_streambufIcNS_11char_traitsIcEEE5sputnB8ue170006EPKcl, symObjAddr: 0xC20, symBinAddr: 0x100003718, symSize: 0x3C }
  - { offsetInCU: 0x79A4, offset: 0x79A4, size: 0x8, addend: 0x0, symName: __ZNSt3__112basic_stringIcNS_11char_traitsIcEENS_9allocatorIcEEEC1B8ue170006Emc, symObjAddr: 0xC5C, symBinAddr: 0x100003754, symSize: 0x3C }
  - { offsetInCU: 0x79EA, offset: 0x79EA, size: 0x8, addend: 0x0, symName: __ZNKSt3__112basic_stringIcNS_11char_traitsIcEENS_9allocatorIcEEE4dataB8ue170006Ev, symObjAddr: 0xC98, symBinAddr: 0x100003790, symSize: 0x28 }
  - { offsetInCU: 0x7A0E, offset: 0x7A0E, size: 0x8, addend: 0x0, symName: __ZNSt3__18ios_base5widthB8ue170006El, symObjAddr: 0xCC0, symBinAddr: 0x1000037B8, symSize: 0x2C }
  - { offsetInCU: 0x7A52, offset: 0x7A52, size: 0x8, addend: 0x0, symName: __ZNSt3__112basic_stringIcNS_11char_traitsIcEENS_9allocatorIcEEEC2B8ue170006Emc, symObjAddr: 0xCEC, symBinAddr: 0x1000037E4, symSize: 0x4C }
  - { offsetInCU: 0x7A9D, offset: 0x7A9D, size: 0x8, addend: 0x0, symName: __ZNSt3__117__compressed_pairINS_12basic_stringIcNS_11char_traitsIcEENS_9allocatorIcEEE5__repES5_EC1B8ue170006INS_18__default_init_tagESA_EEOT_OT0_, symObjAddr: 0xD38, symBinAddr: 0x100003830, symSize: 0x3C }
  - { offsetInCU: 0x7AF3, offset: 0x7AF3, size: 0x8, addend: 0x0, symName: __ZNSt3__117__compressed_pairINS_12basic_stringIcNS_11char_traitsIcEENS_9allocatorIcEEE5__repES5_EC2B8ue170006INS_18__default_init_tagESA_EEOT_OT0_, symObjAddr: 0xD74, symBinAddr: 0x10000386C, symSize: 0x3C }
  - { offsetInCU: 0x7B49, offset: 0x7B49, size: 0x8, addend: 0x0, symName: __ZNSt3__122__compressed_pair_elemINS_12basic_stringIcNS_11char_traitsIcEENS_9allocatorIcEEE5__repELi0ELb0EEC2B8ue170006ENS_18__default_init_tagE, symObjAddr: 0xDB0, symBinAddr: 0x1000038A8, symSize: 0x14 }
  - { offsetInCU: 0x7B7B, offset: 0x7B7B, size: 0x8, addend: 0x0, symName: __ZNSt3__122__compressed_pair_elemINS_9allocatorIcEELi1ELb1EEC2B8ue170006ENS_18__default_init_tagE, symObjAddr: 0xDC4, symBinAddr: 0x1000038BC, symSize: 0x2C }
  - { offsetInCU: 0x7BAD, offset: 0x7BAD, size: 0x8, addend: 0x0, symName: __ZNSt3__19allocatorIcEC2B8ue170006Ev, symObjAddr: 0xDF0, symBinAddr: 0x1000038E8, symSize: 0x2C }
  - { offsetInCU: 0x7BD5, offset: 0x7BD5, size: 0x8, addend: 0x0, symName: __ZNSt3__116__non_trivial_ifILb1ENS_9allocatorIcEEEC2B8ue170006Ev, symObjAddr: 0xE1C, symBinAddr: 0x100003914, symSize: 0x14 }
  - { offsetInCU: 0x7BFD, offset: 0x7BFD, size: 0x8, addend: 0x0, symName: __ZNKSt3__112basic_stringIcNS_11char_traitsIcEENS_9allocatorIcEEE13__get_pointerB8ue170006Ev, symObjAddr: 0xE44, symBinAddr: 0x10000393C, symSize: 0x54 }
  - { offsetInCU: 0x7C21, offset: 0x7C21, size: 0x8, addend: 0x0, symName: __ZNKSt3__112basic_stringIcNS_11char_traitsIcEENS_9allocatorIcEEE9__is_longB8ue170006Ev, symObjAddr: 0xE98, symBinAddr: 0x100003990, symSize: 0x74 }
  - { offsetInCU: 0x7C45, offset: 0x7C45, size: 0x8, addend: 0x0, symName: __ZNKSt3__112basic_stringIcNS_11char_traitsIcEENS_9allocatorIcEEE18__get_long_pointerB8ue170006Ev, symObjAddr: 0xF0C, symBinAddr: 0x100003A04, symSize: 0x28 }
  - { offsetInCU: 0x7C69, offset: 0x7C69, size: 0x8, addend: 0x0, symName: __ZNKSt3__112basic_stringIcNS_11char_traitsIcEENS_9allocatorIcEEE19__get_short_pointerB8ue170006Ev, symObjAddr: 0xF34, symBinAddr: 0x100003A2C, symSize: 0x28 }
  - { offsetInCU: 0x7C8D, offset: 0x7C8D, size: 0x8, addend: 0x0, symName: __ZNKSt3__117__compressed_pairINS_12basic_stringIcNS_11char_traitsIcEENS_9allocatorIcEEE5__repES5_E5firstB8ue170006Ev, symObjAddr: 0xF68, symBinAddr: 0x100003A60, symSize: 0x24 }
  - { offsetInCU: 0x7CB1, offset: 0x7CB1, size: 0x8, addend: 0x0, symName: __ZNKSt3__122__compressed_pair_elemINS_12basic_stringIcNS_11char_traitsIcEENS_9allocatorIcEEE5__repELi0ELb0EE5__getB8ue170006Ev, symObjAddr: 0xF8C, symBinAddr: 0x100003A84, symSize: 0x14 }
  - { offsetInCU: 0x7CD5, offset: 0x7CD5, size: 0x8, addend: 0x0, symName: __ZNSt3__114pointer_traitsIPKcE10pointer_toB8ue170006ERS1_, symObjAddr: 0xFA0, symBinAddr: 0x100003A98, symSize: 0x14 }
  - { offsetInCU: 0x7CF7, offset: 0x7CF7, size: 0x8, addend: 0x0, symName: __ZNSt3__119ostreambuf_iteratorIcNS_11char_traitsIcEEEC2B8ue170006ERNS_13basic_ostreamIcS2_EE, symObjAddr: 0xFB4, symBinAddr: 0x100003AAC, symSize: 0x68 }
  - { offsetInCU: 0x7D2D, offset: 0x7D2D, size: 0x8, addend: 0x0, symName: __ZNKSt3__19basic_iosIcNS_11char_traitsIcEEE5rdbufB8ue170006Ev, symObjAddr: 0x101C, symBinAddr: 0x100003B14, symSize: 0x24 }
  - { offsetInCU: 0x7D53, offset: 0x7D53, size: 0x8, addend: 0x0, symName: __ZNKSt3__18ios_base5rdbufB8ue170006Ev, symObjAddr: 0x1040, symBinAddr: 0x100003B38, symSize: 0x18 }
  - { offsetInCU: 0x7D77, offset: 0x7D77, size: 0x8, addend: 0x0, symName: __ZNSt3__111char_traitsIcE11eq_int_typeB8ue170006Eii, symObjAddr: 0x1058, symBinAddr: 0x100003B50, symSize: 0x28 }
  - { offsetInCU: 0x7DA9, offset: 0x7DA9, size: 0x8, addend: 0x0, symName: __ZNSt3__111char_traitsIcE3eofB8ue170006Ev, symObjAddr: 0x1080, symBinAddr: 0x100003B78, symSize: 0x8 }
  - { offsetInCU: 0x7DBC, offset: 0x7DBC, size: 0x8, addend: 0x0, symName: __ZNKSt3__19basic_iosIcNS_11char_traitsIcEEE5widenB8ue170006Ec, symObjAddr: 0x1088, symBinAddr: 0x100003B80, symSize: 0x8C }
  - { offsetInCU: 0x7E28, offset: 0x7E28, size: 0x8, addend: 0x0, symName: __ZNKSt3__15ctypeIcE5widenB8ue170006Ec, symObjAddr: 0x1140, symBinAddr: 0x100003C38, symSize: 0x38 }
  - { offsetInCU: 0x7E5B, offset: 0x7E5B, size: 0x8, addend: 0x0, symName: __ZNSt3__18ios_base8setstateB8ue170006Ej, symObjAddr: 0x1178, symBinAddr: 0x100003C70, symSize: 0x34 }
...
