---
triple:          'arm64-apple-darwin'
binary-path:     '/Users/kajalbormon/Developer/Code/HakerRank/Cpp_exception_handling/output/Cpp_exception_handling'
relocations:
  - { offsetInCU: 0x2E27, offset: 0x2E27, size: 0x8, addend: 0x0, symName: __ZNSt3__124__put_character_sequenceB8ue170006IcNS_11char_traitsIcEEEERNS_13basic_ostreamIT_T0_EES7_PKS4_m, symObjAddr: 0x434, symBinAddr: 0x1000030AC, symSize: 0x1F4 }
  - { offsetInCU: 0x4774, offset: 0x4774, size: 0x8, addend: 0x0, symName: __ZNSt3__1lsB8ue170006INS_11char_traitsIcEEEERNS_13basic_ostreamIcT_EES6_PKc, symObjAddr: 0x2B0, symBinAddr: 0x100002F28, symSize: 0x48 }
  - { offsetInCU: 0x47BA, offset: 0x47BA, size: 0x8, addend: 0x0, symName: __ZNSt3__14endlB8ue170006IcNS_11char_traitsIcEEEERNS_13basic_ostreamIT_T0_EES7_, symObjAddr: 0x324, symBinAddr: 0x100002F9C, symSize: 0x58 }
  - { offsetInCU: 0x47FA, offset: 0x47FA, size: 0x8, addend: 0x0, symName: __ZNSt3__116__pad_and_outputB8ue170006IcNS_11char_traitsIcEEEENS_19ostreambuf_iteratorIT_T0_EES6_PKS4_S8_S8_RNS_8ios_baseES4_, symObjAddr: 0x68C, symBinAddr: 0x100003304, symSize: 0x248 }
  - { offsetInCU: 0x48C9, offset: 0x48C9, size: 0x8, addend: 0x0, symName: __ZNSt3__112__to_addressB8ue170006IKcEEPT_S3_, symObjAddr: 0xBFC, symBinAddr: 0x100003874, symSize: 0x14 }
  - { offsetInCU: 0x48FE, offset: 0x48FE, size: 0x8, addend: 0x0, symName: __ZNSt3__130__libcpp_is_constant_evaluatedB8ue170006Ev, symObjAddr: 0xD28, symBinAddr: 0x1000039A0, symSize: 0xC }
  - { offsetInCU: 0x494E, offset: 0x494E, size: 0x8, addend: 0x0, symName: __ZNSt3__19use_facetB8ue170006INS_5ctypeIcEEEERKT_RKNS_6localeE, symObjAddr: 0xEE0, symBinAddr: 0x100003B58, symSize: 0x2C }
  - { offsetInCU: 0x4E1B, offset: 0x4E1B, size: 0x8, addend: 0x0, symName: __ZNSt3__118__constexpr_strlenB8ue170006EPKc, symObjAddr: 0xF78, symBinAddr: 0x100003BF0, symSize: 0x24 }
  - { offsetInCU: 0x75BE, offset: 0x75BE, size: 0x8, addend: 0x0, symName: __Z22largest_proper_divisori, symObjAddr: 0x0, symBinAddr: 0x100002C78, symSize: 0x168 }
  - { offsetInCU: 0x7606, offset: 0x7606, size: 0x8, addend: 0x0, symName: __ZNSt16invalid_argumentC1B8ue170006EPKc, symObjAddr: 0x168, symBinAddr: 0x100002DE0, symSize: 0x34 }
  - { offsetInCU: 0x763C, offset: 0x763C, size: 0x8, addend: 0x0, symName: __Z13process_inputi, symObjAddr: 0x19C, symBinAddr: 0x100002E14, symSize: 0x114 }
  - { offsetInCU: 0x7686, offset: 0x7686, size: 0x8, addend: 0x0, symName: __ZNSt3__113basic_ostreamIcNS_11char_traitsIcEEElsB8ue170006EPFRS3_S4_E, symObjAddr: 0x2F8, symBinAddr: 0x100002F70, symSize: 0x2C }
  - { offsetInCU: 0x76B8, offset: 0x76B8, size: 0x8, addend: 0x0, symName: _main, symObjAddr: 0x388, symBinAddr: 0x100003000, symSize: 0x60 }
  - { offsetInCU: 0x76E0, offset: 0x76E0, size: 0x8, addend: 0x0, symName: __ZNSt16invalid_argumentC2B8ue170006EPKc, symObjAddr: 0x3E8, symBinAddr: 0x100003060, symSize: 0x4C }
  - { offsetInCU: 0x7716, offset: 0x7716, size: 0x8, addend: 0x0, symName: __ZNSt3__111char_traitsIcE6lengthB8ue170006EPKc, symObjAddr: 0x628, symBinAddr: 0x1000032A0, symSize: 0x48 }
  - { offsetInCU: 0x7756, offset: 0x7756, size: 0x8, addend: 0x0, symName: __ZNKSt3__113basic_ostreamIcNS_11char_traitsIcEEE6sentrycvbB8ue170006Ev, symObjAddr: 0x670, symBinAddr: 0x1000032E8, symSize: 0x1C }
  - { offsetInCU: 0x777A, offset: 0x777A, size: 0x8, addend: 0x0, symName: __ZNSt3__119ostreambuf_iteratorIcNS_11char_traitsIcEEEC1B8ue170006ERNS_13basic_ostreamIcS2_EE, symObjAddr: 0x8D4, symBinAddr: 0x10000354C, symSize: 0x34 }
  - { offsetInCU: 0x77B0, offset: 0x77B0, size: 0x8, addend: 0x0, symName: __ZNKSt3__18ios_base5flagsB8ue170006Ev, symObjAddr: 0x908, symBinAddr: 0x100003580, symSize: 0x18 }
  - { offsetInCU: 0x77D6, offset: 0x77D6, size: 0x8, addend: 0x0, symName: __ZNKSt3__19basic_iosIcNS_11char_traitsIcEEE4fillB8ue170006Ev, symObjAddr: 0x920, symBinAddr: 0x100003598, symSize: 0x64 }
  - { offsetInCU: 0x77FC, offset: 0x77FC, size: 0x8, addend: 0x0, symName: __ZNKSt3__119ostreambuf_iteratorIcNS_11char_traitsIcEEE6failedB8ue170006Ev, symObjAddr: 0x984, symBinAddr: 0x1000035FC, symSize: 0x24 }
  - { offsetInCU: 0x7820, offset: 0x7820, size: 0x8, addend: 0x0, symName: __ZNSt3__19basic_iosIcNS_11char_traitsIcEEE8setstateB8ue170006Ej, symObjAddr: 0x9A8, symBinAddr: 0x100003620, symSize: 0x2C }
  - { offsetInCU: 0x7853, offset: 0x7853, size: 0x8, addend: 0x0, symName: __ZNKSt3__18ios_base5widthB8ue170006Ev, symObjAddr: 0x9D4, symBinAddr: 0x10000364C, symSize: 0x18 }
  - { offsetInCU: 0x7879, offset: 0x7879, size: 0x8, addend: 0x0, symName: __ZNSt3__115basic_streambufIcNS_11char_traitsIcEEE5sputnB8ue170006EPKcl, symObjAddr: 0x9EC, symBinAddr: 0x100003664, symSize: 0x3C }
  - { offsetInCU: 0x78B9, offset: 0x78B9, size: 0x8, addend: 0x0, symName: __ZNSt3__112basic_stringIcNS_11char_traitsIcEENS_9allocatorIcEEEC1B8ue170006Emc, symObjAddr: 0xA28, symBinAddr: 0x1000036A0, symSize: 0x3C }
  - { offsetInCU: 0x78FF, offset: 0x78FF, size: 0x8, addend: 0x0, symName: __ZNKSt3__112basic_stringIcNS_11char_traitsIcEENS_9allocatorIcEEE4dataB8ue170006Ev, symObjAddr: 0xA64, symBinAddr: 0x1000036DC, symSize: 0x28 }
  - { offsetInCU: 0x7923, offset: 0x7923, size: 0x8, addend: 0x0, symName: __ZNSt3__18ios_base5widthB8ue170006El, symObjAddr: 0xA8C, symBinAddr: 0x100003704, symSize: 0x2C }
  - { offsetInCU: 0x7967, offset: 0x7967, size: 0x8, addend: 0x0, symName: __ZNSt3__112basic_stringIcNS_11char_traitsIcEENS_9allocatorIcEEEC2B8ue170006Emc, symObjAddr: 0xAB8, symBinAddr: 0x100003730, symSize: 0x4C }
  - { offsetInCU: 0x79B2, offset: 0x79B2, size: 0x8, addend: 0x0, symName: __ZNSt3__117__compressed_pairINS_12basic_stringIcNS_11char_traitsIcEENS_9allocatorIcEEE5__repES5_EC1B8ue170006INS_18__default_init_tagESA_EEOT_OT0_, symObjAddr: 0xB04, symBinAddr: 0x10000377C, symSize: 0x3C }
  - { offsetInCU: 0x7A08, offset: 0x7A08, size: 0x8, addend: 0x0, symName: __ZNSt3__117__compressed_pairINS_12basic_stringIcNS_11char_traitsIcEENS_9allocatorIcEEE5__repES5_EC2B8ue170006INS_18__default_init_tagESA_EEOT_OT0_, symObjAddr: 0xB40, symBinAddr: 0x1000037B8, symSize: 0x3C }
  - { offsetInCU: 0x7A5E, offset: 0x7A5E, size: 0x8, addend: 0x0, symName: __ZNSt3__122__compressed_pair_elemINS_12basic_stringIcNS_11char_traitsIcEENS_9allocatorIcEEE5__repELi0ELb0EEC2B8ue170006ENS_18__default_init_tagE, symObjAddr: 0xB7C, symBinAddr: 0x1000037F4, symSize: 0x14 }
  - { offsetInCU: 0x7A90, offset: 0x7A90, size: 0x8, addend: 0x0, symName: __ZNSt3__122__compressed_pair_elemINS_9allocatorIcEELi1ELb1EEC2B8ue170006ENS_18__default_init_tagE, symObjAddr: 0xB90, symBinAddr: 0x100003808, symSize: 0x2C }
  - { offsetInCU: 0x7AC2, offset: 0x7AC2, size: 0x8, addend: 0x0, symName: __ZNSt3__19allocatorIcEC2B8ue170006Ev, symObjAddr: 0xBBC, symBinAddr: 0x100003834, symSize: 0x2C }
  - { offsetInCU: 0x7AEA, offset: 0x7AEA, size: 0x8, addend: 0x0, symName: __ZNSt3__116__non_trivial_ifILb1ENS_9allocatorIcEEEC2B8ue170006Ev, symObjAddr: 0xBE8, symBinAddr: 0x100003860, symSize: 0x14 }
  - { offsetInCU: 0x7B12, offset: 0x7B12, size: 0x8, addend: 0x0, symName: __ZNKSt3__112basic_stringIcNS_11char_traitsIcEENS_9allocatorIcEEE13__get_pointerB8ue170006Ev, symObjAddr: 0xC10, symBinAddr: 0x100003888, symSize: 0x54 }
  - { offsetInCU: 0x7B36, offset: 0x7B36, size: 0x8, addend: 0x0, symName: __ZNKSt3__112basic_stringIcNS_11char_traitsIcEENS_9allocatorIcEEE9__is_longB8ue170006Ev, symObjAddr: 0xC64, symBinAddr: 0x1000038DC, symSize: 0x74 }
  - { offsetInCU: 0x7B5A, offset: 0x7B5A, size: 0x8, addend: 0x0, symName: __ZNKSt3__112basic_stringIcNS_11char_traitsIcEENS_9allocatorIcEEE18__get_long_pointerB8ue170006Ev, symObjAddr: 0xCD8, symBinAddr: 0x100003950, symSize: 0x28 }
  - { offsetInCU: 0x7B7E, offset: 0x7B7E, size: 0x8, addend: 0x0, symName: __ZNKSt3__112basic_stringIcNS_11char_traitsIcEENS_9allocatorIcEEE19__get_short_pointerB8ue170006Ev, symObjAddr: 0xD00, symBinAddr: 0x100003978, symSize: 0x28 }
  - { offsetInCU: 0x7BA2, offset: 0x7BA2, size: 0x8, addend: 0x0, symName: __ZNKSt3__117__compressed_pairINS_12basic_stringIcNS_11char_traitsIcEENS_9allocatorIcEEE5__repES5_E5firstB8ue170006Ev, symObjAddr: 0xD34, symBinAddr: 0x1000039AC, symSize: 0x24 }
  - { offsetInCU: 0x7BC6, offset: 0x7BC6, size: 0x8, addend: 0x0, symName: __ZNKSt3__122__compressed_pair_elemINS_12basic_stringIcNS_11char_traitsIcEENS_9allocatorIcEEE5__repELi0ELb0EE5__getB8ue170006Ev, symObjAddr: 0xD58, symBinAddr: 0x1000039D0, symSize: 0x14 }
  - { offsetInCU: 0x7BEA, offset: 0x7BEA, size: 0x8, addend: 0x0, symName: __ZNSt3__114pointer_traitsIPKcE10pointer_toB8ue170006ERS1_, symObjAddr: 0xD6C, symBinAddr: 0x1000039E4, symSize: 0x14 }
  - { offsetInCU: 0x7C0C, offset: 0x7C0C, size: 0x8, addend: 0x0, symName: __ZNSt3__119ostreambuf_iteratorIcNS_11char_traitsIcEEEC2B8ue170006ERNS_13basic_ostreamIcS2_EE, symObjAddr: 0xD80, symBinAddr: 0x1000039F8, symSize: 0x68 }
  - { offsetInCU: 0x7C42, offset: 0x7C42, size: 0x8, addend: 0x0, symName: __ZNKSt3__19basic_iosIcNS_11char_traitsIcEEE5rdbufB8ue170006Ev, symObjAddr: 0xDE8, symBinAddr: 0x100003A60, symSize: 0x24 }
  - { offsetInCU: 0x7C68, offset: 0x7C68, size: 0x8, addend: 0x0, symName: __ZNKSt3__18ios_base5rdbufB8ue170006Ev, symObjAddr: 0xE0C, symBinAddr: 0x100003A84, symSize: 0x18 }
  - { offsetInCU: 0x7C8C, offset: 0x7C8C, size: 0x8, addend: 0x0, symName: __ZNSt3__111char_traitsIcE11eq_int_typeB8ue170006Eii, symObjAddr: 0xE24, symBinAddr: 0x100003A9C, symSize: 0x28 }
  - { offsetInCU: 0x7CBF, offset: 0x7CBF, size: 0x8, addend: 0x0, symName: __ZNSt3__111char_traitsIcE3eofB8ue170006Ev, symObjAddr: 0xE4C, symBinAddr: 0x100003AC4, symSize: 0x8 }
  - { offsetInCU: 0x7CD1, offset: 0x7CD1, size: 0x8, addend: 0x0, symName: __ZNKSt3__19basic_iosIcNS_11char_traitsIcEEE5widenB8ue170006Ec, symObjAddr: 0xE54, symBinAddr: 0x100003ACC, symSize: 0x8C }
  - { offsetInCU: 0x7D3D, offset: 0x7D3D, size: 0x8, addend: 0x0, symName: __ZNKSt3__15ctypeIcE5widenB8ue170006Ec, symObjAddr: 0xF0C, symBinAddr: 0x100003B84, symSize: 0x38 }
  - { offsetInCU: 0x7D70, offset: 0x7D70, size: 0x8, addend: 0x0, symName: __ZNSt3__18ios_base8setstateB8ue170006Ej, symObjAddr: 0xF44, symBinAddr: 0x100003BBC, symSize: 0x34 }
...
