---
triple:          'arm64-apple-darwin'
binary-path:     '/Users/kajalbormon/Developer/Code/HakerRank/StingStream/output/string_stream'
relocations:
  - { offsetInCU: 0x4C6D, offset: 0x4C6D, size: 0x8, addend: 0x0, symName: __ZNSt3__124__put_character_sequenceB8ue170006IcNS_11char_traitsIcEEEERNS_13basic_ostreamIT_T0_EES7_PKS4_m, symObjAddr: 0x3AF4, symBinAddr: 0x100006EA0, symSize: 0x1F4 }
  - { offsetInCU: 0x6ED6, offset: 0x6ED6, size: 0x8, addend: 0x0, symName: __ZNSt3__1rsB8ue170006IcNS_11char_traitsIcEEEERNS_13basic_istreamIT_T0_EES7_RS4_, symObjAddr: 0x350, symBinAddr: 0x1000036FC, symSize: 0x190 }
  - { offsetInCU: 0x6F63, offset: 0x6F63, size: 0x8, addend: 0x0, symName: __ZNSt3__1rsB8ue170006IcNS_11char_traitsIcEENS_9allocatorIcEEEERNS_13basic_istreamIT_T0_EES9_RNS_12basic_stringIS6_S7_T1_EE, symObjAddr: 0x718, symBinAddr: 0x100003AC4, symSize: 0x320 }
  - { offsetInCU: 0x7032, offset: 0x7032, size: 0x8, addend: 0x0, symName: __ZNSt3__1lsB8ue170006INS_11char_traitsIcEEEERNS_13basic_ostreamIcT_EES6_PKc, symObjAddr: 0xA60, symBinAddr: 0x100003E0C, symSize: 0x48 }
  - { offsetInCU: 0x7078, offset: 0x7078, size: 0x8, addend: 0x0, symName: __ZNSt3__112__to_addressB8ue170006IiEEPT_S2_, symObjAddr: 0x1108, symBinAddr: 0x1000044B4, symSize: 0x14 }
  - { offsetInCU: 0x70AD, offset: 0x70AD, size: 0x8, addend: 0x0, symName: __ZNSt3__130__libcpp_is_constant_evaluatedB8ue170006Ev, symObjAddr: 0x11E8, symBinAddr: 0x100004594, symSize: 0xC }
  - { offsetInCU: 0x70CA, offset: 0x70CA, size: 0x8, addend: 0x0, symName: __ZNSt3__119__libcpp_deallocateB8ue170006EPvmm, symObjAddr: 0x11F4, symBinAddr: 0x1000045A0, symSize: 0x30 }
  - { offsetInCU: 0x7112, offset: 0x7112, size: 0x8, addend: 0x0, symName: __ZNSt3__127__do_deallocate_handle_sizeB8ue170006IJEEEvPvmDpT_, symObjAddr: 0x1224, symBinAddr: 0x1000045D0, symSize: 0x28 }
  - { offsetInCU: 0x7150, offset: 0x7150, size: 0x8, addend: 0x0, symName: __ZNSt3__124__libcpp_operator_deleteB8ue170006IJPvEEEvDpT_, symObjAddr: 0x124C, symBinAddr: 0x1000045F8, symSize: 0x24 }
  - { offsetInCU: 0x7185, offset: 0x7185, size: 0x8, addend: 0x0, symName: __ZNSt3__117__libcpp_allocateB8ue170006Emm, symObjAddr: 0x1B78, symBinAddr: 0x100004F24, symSize: 0x28 }
  - { offsetInCU: 0x71C2, offset: 0x71C2, size: 0x8, addend: 0x0, symName: __ZNSt3__121__libcpp_operator_newB8ue170006IJmEEEPvDpT_, symObjAddr: 0x1BB4, symBinAddr: 0x100004F60, symSize: 0x24 }
  - { offsetInCU: 0x71FB, offset: 0x71FB, size: 0x8, addend: 0x0, symName: __ZNSt3__13maxB8ue170006ImEERKT_S3_S3_, symObjAddr: 0x2224, symBinAddr: 0x1000055D0, symSize: 0x2C }
  - { offsetInCU: 0x723E, offset: 0x723E, size: 0x8, addend: 0x0, symName: __ZNSt3__13minB8ue170006ImEERKT_S3_S3_, symObjAddr: 0x2250, symBinAddr: 0x1000055FC, symSize: 0x2C }
  - { offsetInCU: 0x7482, offset: 0x7482, size: 0x8, addend: 0x0, symName: __ZNSt3__13minB8ue170006ImNS_6__lessIvvEEEERKT_S5_S5_T0_, symObjAddr: 0x22DC, symBinAddr: 0x100005688, symSize: 0x54 }
  - { offsetInCU: 0x7521, offset: 0x7521, size: 0x8, addend: 0x0, symName: __ZNSt3__120__throw_length_errorB8ue170006EPKc, symObjAddr: 0x23B8, symBinAddr: 0x100005764, symSize: 0x64 }
  - { offsetInCU: 0x754B, offset: 0x754B, size: 0x8, addend: 0x0, symName: __ZNSt3__13maxB8ue170006ImNS_6__lessIvvEEEERKT_S5_S5_T0_, symObjAddr: 0x249C, symBinAddr: 0x100005848, symSize: 0x54 }
  - { offsetInCU: 0x75A5, offset: 0x75A5, size: 0x8, addend: 0x0, symName: __ZNSt3__119__allocate_at_leastB8ue170006INS_9allocatorIiEEEENS_19__allocation_resultINS_16allocator_traitsIT_E7pointerEEERS5_m, symObjAddr: 0x2600, symBinAddr: 0x1000059AC, symSize: 0x40 }
  - { offsetInCU: 0x75E8, offset: 0x75E8, size: 0x8, addend: 0x0, symName: __ZNSt3__142__uninitialized_allocator_move_if_noexceptB8ue170006INS_9allocatorIiEENS_16reverse_iteratorIPiEES5_ivEET1_RT_T0_S9_S6_, symObjAddr: 0x27E0, symBinAddr: 0x100005B8C, symSize: 0xE8 }
  - { offsetInCU: 0x7665, offset: 0x7665, size: 0x8, addend: 0x0, symName: __ZNSt3__14swapB8ue170006IPiEEvRT_S3_, symObjAddr: 0x2914, symBinAddr: 0x100005CC0, symSize: 0x3C }
  - { offsetInCU: 0x76B6, offset: 0x76B6, size: 0x8, addend: 0x0, symName: __ZNSt3__1neB8ue170006IPiS1_EEbRKNS_16reverse_iteratorIT_EERKNS2_IT0_EE, symObjAddr: 0x29FC, symBinAddr: 0x100005DA8, symSize: 0x48 }
  - { offsetInCU: 0x7727, offset: 0x7727, size: 0x8, addend: 0x0, symName: __ZNSt3__114__construct_atB8ue170006IiJiEPiEEPT_S3_DpOT0_, symObjAddr: 0x2A44, symBinAddr: 0x100005DF0, symSize: 0x2C }
  - { offsetInCU: 0x7797, offset: 0x7797, size: 0x8, addend: 0x0, symName: __ZNSt3__112__to_addressB8ue170006INS_16reverse_iteratorIPiEEvEEu7__decayIDTclsr19__to_address_helperIT_EE6__callclsr3stdE7declvalIRKS4_EEEEES6_, symObjAddr: 0x2A70, symBinAddr: 0x100005E1C, symSize: 0x24 }
  - { offsetInCU: 0x77CD, offset: 0x77CD, size: 0x8, addend: 0x0, symName: __ZNSt3__14moveB8ue170006INS_16reverse_iteratorIPiEES3_EET0_T_S5_S4_, symObjAddr: 0x2ADC, symBinAddr: 0x100005E88, symSize: 0x78 }
  - { offsetInCU: 0x7850, offset: 0x7850, size: 0x8, addend: 0x0, symName: __ZNSt3__16__moveB8ue170006INS_17_ClassicAlgPolicyENS_16reverse_iteratorIPiEES4_S4_EENS_4pairIT0_T2_EES6_T1_S7_, symObjAddr: 0x2BC4, symBinAddr: 0x100005F70, symSize: 0x64 }
  - { offsetInCU: 0x78BC, offset: 0x78BC, size: 0x8, addend: 0x0, symName: __ZNSt3__123__dispatch_copy_or_moveB8ue170006INS_17_ClassicAlgPolicyENS_11__move_loopIS1_EENS_14__move_trivialENS_16reverse_iteratorIPiEES7_S7_EENS_4pairIT2_T4_EES9_T3_SA_, symObjAddr: 0x2C28, symBinAddr: 0x100005FD4, symSize: 0x64 }
  - { offsetInCU: 0x793A, offset: 0x793A, size: 0x8, addend: 0x0, symName: __ZNSt3__121__unwrap_and_dispatchB8ue170006INS_10__overloadINS_11__move_loopINS_17_ClassicAlgPolicyEEENS_14__move_trivialEEENS_16reverse_iteratorIPiEES9_S9_Li0EEENS_4pairIT0_T2_EESB_T1_SC_, symObjAddr: 0x2C8C, symBinAddr: 0x100006038, symSize: 0x12C }
  - { offsetInCU: 0x79CA, offset: 0x79CA, size: 0x8, addend: 0x0, symName: __ZNSt3__114__unwrap_rangeB8ue170006INS_16reverse_iteratorIPiEES3_EENS_4pairIT0_S5_EET_S7_, symObjAddr: 0x2DB8, symBinAddr: 0x100006164, symSize: 0x84 }
  - { offsetInCU: 0x7B1E, offset: 0x7B1E, size: 0x8, addend: 0x0, symName: __ZNSt3__113__unwrap_iterB8ue170006INS_16reverse_iteratorIPiEENS_18__unwrap_iter_implIS3_Lb0EEELi0EEEDTclsrT0_8__unwrapclsr3stdE7declvalIT_EEEES7_, symObjAddr: 0x2EDC, symBinAddr: 0x100006288, symSize: 0x44 }
  - { offsetInCU: 0x7B62, offset: 0x7B62, size: 0x8, addend: 0x0, symName: __ZNSt3__19make_pairB8ue170006INS_16reverse_iteratorIPiEES3_EENS_4pairINS_18__unwrap_ref_decayIT_E4typeENS5_IT0_E4typeEEEOS6_OS9_, symObjAddr: 0x2F20, symBinAddr: 0x1000062CC, symSize: 0x38 }
  - { offsetInCU: 0x7BB1, offset: 0x7BB1, size: 0x8, addend: 0x0, symName: __ZNSt3__114__rewrap_rangeB8ue170006INS_16reverse_iteratorIPiEES3_EET_S4_T0_, symObjAddr: 0x2F58, symBinAddr: 0x100006304, symSize: 0x5C }
  - { offsetInCU: 0x7BFD, offset: 0x7BFD, size: 0x8, addend: 0x0, symName: __ZNSt3__113__rewrap_iterB8ue170006INS_16reverse_iteratorIPiEES3_NS_18__unwrap_iter_implIS3_Lb0EEEEET_S6_T0_, symObjAddr: 0x2FB4, symBinAddr: 0x100006360, symSize: 0x88 }
  - { offsetInCU: 0x7D04, offset: 0x7D04, size: 0x8, addend: 0x0, symName: __ZNSt3__19use_facetB8ue170006INS_5ctypeIcEEEERKT_RKNS_6localeE, symObjAddr: 0x37C4, symBinAddr: 0x100006B70, symSize: 0x2C }
  - { offsetInCU: 0x8317, offset: 0x8317, size: 0x8, addend: 0x0, symName: __ZNSt3__116__pad_and_outputB8ue170006IcNS_11char_traitsIcEEEENS_19ostreambuf_iteratorIT_T0_EES6_PKS4_S8_S8_RNS_8ios_baseES4_, symObjAddr: 0x3D4C, symBinAddr: 0x1000070F8, symSize: 0x248 }
  - { offsetInCU: 0x83E6, offset: 0x83E6, size: 0x8, addend: 0x0, symName: __ZNSt3__112__to_addressB8ue170006IKcEEPT_S3_, symObjAddr: 0x4154, symBinAddr: 0x100007500, symSize: 0x14 }
  - { offsetInCU: 0x844E, offset: 0x844E, size: 0x8, addend: 0x0, symName: __ZNSt3__118__constexpr_strlenB8ue170006EPKc, symObjAddr: 0x434C, symBinAddr: 0x1000076F8, symSize: 0x24 }
  - { offsetInCU: 0x8663, offset: 0x8663, size: 0x8, addend: 0x0, symName: __ZSt28__throw_bad_array_new_lengthB8ue170006v, symObjAddr: 0x1B44, symBinAddr: 0x100004EF0, symSize: 0x34 }
  - { offsetInCU: 0x8AE6, offset: 0x8AE6, size: 0x8, addend: 0x0, symName: __ZNSt3__16vectorIiNS_9allocatorIiEEE26__swap_out_circular_bufferERNS_14__split_bufferIiRS2_EE, symObjAddr: 0x2058, symBinAddr: 0x100005404, symSize: 0x110 }
  - { offsetInCU: 0xAF6D, offset: 0xAF6D, size: 0x8, addend: 0x0, symName: __Z9parseIntsNSt3__112basic_stringIcNS_11char_traitsIcEENS_9allocatorIcEEEE, symObjAddr: 0x0, symBinAddr: 0x1000033AC, symSize: 0x150 }
  - { offsetInCU: 0xAFD4, offset: 0xAFD4, size: 0x8, addend: 0x0, symName: __ZNSt3__16vectorIiNS_9allocatorIiEEEC1B8ue170006Ev, symObjAddr: 0x150, symBinAddr: 0x1000034FC, symSize: 0x2C }
  - { offsetInCU: 0xB0E0, offset: 0xB0E0, size: 0x8, addend: 0x0, symName: __ZNSt3__118basic_stringstreamIcNS_11char_traitsIcEENS_9allocatorIcEEEC1B8ue170006ERKNS_12basic_stringIcS2_S4_EEj, symObjAddr: 0x17C, symBinAddr: 0x100003528, symSize: 0x11C }
  - { offsetInCU: 0xB127, offset: 0xB127, size: 0x8, addend: 0x0, symName: __ZNKSt3__19basic_iosIcNS_11char_traitsIcEEEcvPvB8ue170006Ev, symObjAddr: 0x298, symBinAddr: 0x100003644, symSize: 0x4C }
  - { offsetInCU: 0xB14B, offset: 0xB14B, size: 0x8, addend: 0x0, symName: __ZNSt3__16vectorIiNS_9allocatorIiEEE9push_backB8ue170006ERKi, symObjAddr: 0x2E4, symBinAddr: 0x100003690, symSize: 0x6C }
  - { offsetInCU: 0xB186, offset: 0xB186, size: 0x8, addend: 0x0, symName: __ZNSt3__118basic_stringstreamIcNS_11char_traitsIcEENS_9allocatorIcEEED1Ev, symObjAddr: 0x4E0, symBinAddr: 0x10000388C, symSize: 0x70 }
  - { offsetInCU: 0xB1B2, offset: 0xB1B2, size: 0x8, addend: 0x0, symName: __ZNSt3__16vectorIiNS_9allocatorIiEEED1B8ue170006Ev, symObjAddr: 0x55C, symBinAddr: 0x100003908, symSize: 0x2C }
  - { offsetInCU: 0xB1DB, offset: 0xB1DB, size: 0x8, addend: 0x0, symName: _main, symObjAddr: 0x588, symBinAddr: 0x100003934, symSize: 0x164 }
  - { offsetInCU: 0xB226, offset: 0xB226, size: 0x8, addend: 0x0, symName: __ZNSt3__112basic_stringIcNS_11char_traitsIcEENS_9allocatorIcEEEC1B8ue170006Ev, symObjAddr: 0x6EC, symBinAddr: 0x100003A98, symSize: 0x2C }
  - { offsetInCU: 0xB24F, offset: 0xB24F, size: 0x8, addend: 0x0, symName: __ZNKSt3__16vectorIiNS_9allocatorIiEEE4sizeB8ue170006Ev, symObjAddr: 0xA38, symBinAddr: 0x100003DE4, symSize: 0x28 }
  - { offsetInCU: 0xB274, offset: 0xB274, size: 0x8, addend: 0x0, symName: __ZNSt3__16vectorIiNS_9allocatorIiEEEixB8ue170006Em, symObjAddr: 0xAA8, symBinAddr: 0x100003E54, symSize: 0x24 }
  - { offsetInCU: 0xB2AA, offset: 0xB2AA, size: 0x8, addend: 0x0, symName: __ZNSt3__118basic_stringstreamIcNS_11char_traitsIcEENS_9allocatorIcEEED2Ev, symObjAddr: 0xACC, symBinAddr: 0x100003E78, symSize: 0xA4 }
  - { offsetInCU: 0xB2E2, offset: 0xB2E2, size: 0x8, addend: 0x0, symName: __ZThn16_NSt3__118basic_stringstreamIcNS_11char_traitsIcEENS_9allocatorIcEEED1Ev, symObjAddr: 0xB70, symBinAddr: 0x100003F1C, symSize: 0x1C }
  - { offsetInCU: 0xB2F9, offset: 0xB2F9, size: 0x8, addend: 0x0, symName: __ZTv0_n24_NSt3__118basic_stringstreamIcNS_11char_traitsIcEENS_9allocatorIcEEED1Ev, symObjAddr: 0xB8C, symBinAddr: 0x100003F38, symSize: 0x28 }
  - { offsetInCU: 0xB315, offset: 0xB315, size: 0x8, addend: 0x0, symName: __ZNSt3__115basic_stringbufIcNS_11char_traitsIcEENS_9allocatorIcEEED1Ev, symObjAddr: 0xBB4, symBinAddr: 0x100003F60, symSize: 0x2C }
  - { offsetInCU: 0xB341, offset: 0xB341, size: 0x8, addend: 0x0, symName: __ZNSt3__115basic_stringbufIcNS_11char_traitsIcEENS_9allocatorIcEEED2Ev, symObjAddr: 0xBE0, symBinAddr: 0x100003F8C, symSize: 0x78 }
  - { offsetInCU: 0xB36D, offset: 0xB36D, size: 0x8, addend: 0x0, symName: __ZNSt3__16vectorIiNS_9allocatorIiEEEC2B8ue170006Ev, symObjAddr: 0xC58, symBinAddr: 0x100004004, symSize: 0x44 }
  - { offsetInCU: 0xB3A0, offset: 0xB3A0, size: 0x8, addend: 0x0, symName: __ZNSt3__117__compressed_pairIPiNS_9allocatorIiEEEC1B8ue170006IDnNS_18__default_init_tagEEEOT_OT0_, symObjAddr: 0xC9C, symBinAddr: 0x100004048, symSize: 0x3C }
  - { offsetInCU: 0xB3F7, offset: 0xB3F7, size: 0x8, addend: 0x0, symName: __ZNSt3__117__compressed_pairIPiNS_9allocatorIiEEEC2B8ue170006IDnNS_18__default_init_tagEEEOT_OT0_, symObjAddr: 0xCD8, symBinAddr: 0x100004084, symSize: 0x40 }
  - { offsetInCU: 0xB44E, offset: 0xB44E, size: 0x8, addend: 0x0, symName: __ZNSt3__122__compressed_pair_elemIPiLi0ELb0EEC2B8ue170006IDnvEEOT_, symObjAddr: 0xD18, symBinAddr: 0x1000040C4, symSize: 0x1C }
  - { offsetInCU: 0xB48F, offset: 0xB48F, size: 0x8, addend: 0x0, symName: __ZNSt3__122__compressed_pair_elemINS_9allocatorIiEELi1ELb1EEC2B8ue170006ENS_18__default_init_tagE, symObjAddr: 0xD34, symBinAddr: 0x1000040E0, symSize: 0x2C }
  - { offsetInCU: 0xB4C3, offset: 0xB4C3, size: 0x8, addend: 0x0, symName: __ZNSt3__19allocatorIiEC2B8ue170006Ev, symObjAddr: 0xD60, symBinAddr: 0x10000410C, symSize: 0x2C }
  - { offsetInCU: 0xB4EC, offset: 0xB4EC, size: 0x8, addend: 0x0, symName: __ZNSt3__116__non_trivial_ifILb1ENS_9allocatorIiEEEC2B8ue170006Ev, symObjAddr: 0xD8C, symBinAddr: 0x100004138, symSize: 0x14 }
  - { offsetInCU: 0xB515, offset: 0xB515, size: 0x8, addend: 0x0, symName: __ZNSt3__16vectorIiNS_9allocatorIiEEED2B8ue170006Ev, symObjAddr: 0xDA0, symBinAddr: 0x10000414C, symSize: 0x3C }
  - { offsetInCU: 0xB53E, offset: 0xB53E, size: 0x8, addend: 0x0, symName: __ZNSt3__16vectorIiNS_9allocatorIiEEE16__destroy_vectorC1B8ue170006ERS3_, symObjAddr: 0xDDC, symBinAddr: 0x100004188, symSize: 0x34 }
  - { offsetInCU: 0xB576, offset: 0xB576, size: 0x8, addend: 0x0, symName: __ZNSt3__16vectorIiNS_9allocatorIiEEE16__destroy_vectorclB8ue170006Ev, symObjAddr: 0xE10, symBinAddr: 0x1000041BC, symSize: 0x90 }
  - { offsetInCU: 0xB59B, offset: 0xB59B, size: 0x8, addend: 0x0, symName: __ZNSt3__16vectorIiNS_9allocatorIiEEE16__destroy_vectorC2B8ue170006ERS3_, symObjAddr: 0xEA0, symBinAddr: 0x10000424C, symSize: 0x20 }
  - { offsetInCU: 0xB5D3, offset: 0xB5D3, size: 0x8, addend: 0x0, symName: __ZNSt3__16vectorIiNS_9allocatorIiEEE7__clearB8ue170006Ev, symObjAddr: 0xEC0, symBinAddr: 0x10000426C, symSize: 0x28 }
  - { offsetInCU: 0xB5F8, offset: 0xB5F8, size: 0x8, addend: 0x0, symName: __ZNKSt3__16vectorIiNS_9allocatorIiEEE17__annotate_deleteB8ue170006Ev, symObjAddr: 0xEE8, symBinAddr: 0x100004294, symSize: 0xB8 }
  - { offsetInCU: 0xB61D, offset: 0xB61D, size: 0x8, addend: 0x0, symName: __ZNSt3__116allocator_traitsINS_9allocatorIiEEE10deallocateB8ue170006ERS2_Pim, symObjAddr: 0xFA0, symBinAddr: 0x10000434C, symSize: 0x34 }
  - { offsetInCU: 0xB65F, offset: 0xB65F, size: 0x8, addend: 0x0, symName: __ZNSt3__16vectorIiNS_9allocatorIiEEE7__allocB8ue170006Ev, symObjAddr: 0xFD4, symBinAddr: 0x100004380, symSize: 0x28 }
  - { offsetInCU: 0xB684, offset: 0xB684, size: 0x8, addend: 0x0, symName: __ZNKSt3__16vectorIiNS_9allocatorIiEEE8capacityB8ue170006Ev, symObjAddr: 0xFFC, symBinAddr: 0x1000043A8, symSize: 0x40 }
  - { offsetInCU: 0xB6A9, offset: 0xB6A9, size: 0x8, addend: 0x0, symName: __ZNSt3__16vectorIiNS_9allocatorIiEEE22__base_destruct_at_endB8ue170006EPi, symObjAddr: 0x103C, symBinAddr: 0x1000043E8, symSize: 0xA0 }
  - { offsetInCU: 0xB6EC, offset: 0xB6EC, size: 0x8, addend: 0x0, symName: __ZNSt3__116allocator_traitsINS_9allocatorIiEEE7destroyB8ue170006IivEEvRS2_PT_, symObjAddr: 0x10DC, symBinAddr: 0x100004488, symSize: 0x2C }
  - { offsetInCU: 0xB729, offset: 0xB729, size: 0x8, addend: 0x0, symName: __ZNSt3__19allocatorIiE7destroyB8ue170006EPi, symObjAddr: 0x111C, symBinAddr: 0x1000044C8, symSize: 0x14 }
  - { offsetInCU: 0xB75C, offset: 0xB75C, size: 0x8, addend: 0x0, symName: __ZNKSt3__16vectorIiNS_9allocatorIiEEE31__annotate_contiguous_containerB8ue170006EPKvS5_S5_S5_, symObjAddr: 0x1130, symBinAddr: 0x1000044DC, symSize: 0x20 }
  - { offsetInCU: 0xB7AD, offset: 0xB7AD, size: 0x8, addend: 0x0, symName: __ZNKSt3__16vectorIiNS_9allocatorIiEEE4dataB8ue170006Ev, symObjAddr: 0x1150, symBinAddr: 0x1000044FC, symSize: 0x28 }
  - { offsetInCU: 0xB7D2, offset: 0xB7D2, size: 0x8, addend: 0x0, symName: __ZNSt3__19allocatorIiE10deallocateB8ue170006EPim, symObjAddr: 0x1178, symBinAddr: 0x100004524, symSize: 0x70 }
  - { offsetInCU: 0xB813, offset: 0xB813, size: 0x8, addend: 0x0, symName: __ZNSt3__117__compressed_pairIPiNS_9allocatorIiEEE6secondB8ue170006Ev, symObjAddr: 0x1270, symBinAddr: 0x10000461C, symSize: 0x24 }
  - { offsetInCU: 0xB838, offset: 0xB838, size: 0x8, addend: 0x0, symName: __ZNSt3__122__compressed_pair_elemINS_9allocatorIiEELi1ELb1EE5__getB8ue170006Ev, symObjAddr: 0x1294, symBinAddr: 0x100004640, symSize: 0x14 }
  - { offsetInCU: 0xB85D, offset: 0xB85D, size: 0x8, addend: 0x0, symName: __ZNKSt3__16vectorIiNS_9allocatorIiEEE9__end_capB8ue170006Ev, symObjAddr: 0x12A8, symBinAddr: 0x100004654, symSize: 0x28 }
  - { offsetInCU: 0xB882, offset: 0xB882, size: 0x8, addend: 0x0, symName: __ZNKSt3__117__compressed_pairIPiNS_9allocatorIiEEE5firstB8ue170006Ev, symObjAddr: 0x12D0, symBinAddr: 0x10000467C, symSize: 0x24 }
  - { offsetInCU: 0xB8A7, offset: 0xB8A7, size: 0x8, addend: 0x0, symName: __ZNKSt3__122__compressed_pair_elemIPiLi0ELb0EE5__getB8ue170006Ev, symObjAddr: 0x12F4, symBinAddr: 0x1000046A0, symSize: 0x14 }
  - { offsetInCU: 0xB8CC, offset: 0xB8CC, size: 0x8, addend: 0x0, symName: __ZNSt3__19basic_iosIcNS_11char_traitsIcEEEC2B8ue170006Ev, symObjAddr: 0x1308, symBinAddr: 0x1000046B4, symSize: 0x44 }
  - { offsetInCU: 0xB8F5, offset: 0xB8F5, size: 0x8, addend: 0x0, symName: __ZNSt3__114basic_iostreamIcNS_11char_traitsIcEEEC2B8ue170006EPNS_15basic_streambufIcS2_EE, symObjAddr: 0x134C, symBinAddr: 0x1000046F8, symSize: 0xB4 }
  - { offsetInCU: 0xB939, offset: 0xB939, size: 0x8, addend: 0x0, symName: __ZNSt3__115basic_stringbufIcNS_11char_traitsIcEENS_9allocatorIcEEEC1B8ue170006ERKNS_12basic_stringIcS2_S4_EEj, symObjAddr: 0x1400, symBinAddr: 0x1000047AC, symSize: 0x3C }
  - { offsetInCU: 0xB980, offset: 0xB980, size: 0x8, addend: 0x0, symName: __ZNSt3__18ios_baseC2B8ue170006Ev, symObjAddr: 0x143C, symBinAddr: 0x1000047E8, symSize: 0x24 }
  - { offsetInCU: 0xB9A9, offset: 0xB9A9, size: 0x8, addend: 0x0, symName: __ZNSt3__113basic_istreamIcNS_11char_traitsIcEEEC2B8ue170006EPNS_15basic_streambufIcS2_EE, symObjAddr: 0x1460, symBinAddr: 0x10000480C, symSize: 0x64 }
  - { offsetInCU: 0xB9EC, offset: 0xB9EC, size: 0x8, addend: 0x0, symName: __ZNSt3__113basic_ostreamIcNS_11char_traitsIcEEEC2B8ue170006Ev, symObjAddr: 0x14C4, symBinAddr: 0x100004870, symSize: 0x34 }
  - { offsetInCU: 0xBA20, offset: 0xBA20, size: 0x8, addend: 0x0, symName: __ZNSt3__19basic_iosIcNS_11char_traitsIcEEE4initB8ue170006EPNS_15basic_streambufIcS2_EE, symObjAddr: 0x14F8, symBinAddr: 0x1000048A4, symSize: 0x44 }
  - { offsetInCU: 0xBA56, offset: 0xBA56, size: 0x8, addend: 0x0, symName: __ZNSt3__111char_traitsIcE3eofB8ue170006Ev, symObjAddr: 0x153C, symBinAddr: 0x1000048E8, symSize: 0x8 }
  - { offsetInCU: 0xBA6A, offset: 0xBA6A, size: 0x8, addend: 0x0, symName: __ZNSt3__115basic_stringbufIcNS_11char_traitsIcEENS_9allocatorIcEEEC2B8ue170006ERKNS_12basic_stringIcS2_S4_EEj, symObjAddr: 0x1544, symBinAddr: 0x1000048F0, symSize: 0xD8 }
  - { offsetInCU: 0xBAB1, offset: 0xBAB1, size: 0x8, addend: 0x0, symName: __ZNKSt3__112basic_stringIcNS_11char_traitsIcEENS_9allocatorIcEEE13get_allocatorB8ue170006Ev, symObjAddr: 0x161C, symBinAddr: 0x1000049C8, symSize: 0x24 }
  - { offsetInCU: 0xBAD6, offset: 0xBAD6, size: 0x8, addend: 0x0, symName: __ZNSt3__112basic_stringIcNS_11char_traitsIcEENS_9allocatorIcEEEC1B8ue170006ERKS4_, symObjAddr: 0x1640, symBinAddr: 0x1000049EC, symSize: 0x34 }
  - { offsetInCU: 0xBB0E, offset: 0xBB0E, size: 0x8, addend: 0x0, symName: __ZNKSt3__112basic_stringIcNS_11char_traitsIcEENS_9allocatorIcEEE7__allocB8ue170006Ev, symObjAddr: 0x1674, symBinAddr: 0x100004A20, symSize: 0x24 }
  - { offsetInCU: 0xBB33, offset: 0xBB33, size: 0x8, addend: 0x0, symName: __ZNKSt3__117__compressed_pairINS_12basic_stringIcNS_11char_traitsIcEENS_9allocatorIcEEE5__repES5_E6secondB8ue170006Ev, symObjAddr: 0x1698, symBinAddr: 0x100004A44, symSize: 0x24 }
  - { offsetInCU: 0xBB58, offset: 0xBB58, size: 0x8, addend: 0x0, symName: __ZNKSt3__122__compressed_pair_elemINS_9allocatorIcEELi1ELb1EE5__getB8ue170006Ev, symObjAddr: 0x16BC, symBinAddr: 0x100004A68, symSize: 0x14 }
  - { offsetInCU: 0xBB7D, offset: 0xBB7D, size: 0x8, addend: 0x0, symName: __ZNSt3__112basic_stringIcNS_11char_traitsIcEENS_9allocatorIcEEEC2B8ue170006ERKS4_, symObjAddr: 0x16D0, symBinAddr: 0x100004A7C, symSize: 0x40 }
  - { offsetInCU: 0xBBB5, offset: 0xBBB5, size: 0x8, addend: 0x0, symName: __ZNSt3__117__compressed_pairINS_12basic_stringIcNS_11char_traitsIcEENS_9allocatorIcEEE5__repES5_EC1B8ue170006INS_18__default_init_tagERKS5_EEOT_OT0_, symObjAddr: 0x1710, symBinAddr: 0x100004ABC, symSize: 0x3C }
  - { offsetInCU: 0xBC0C, offset: 0xBC0C, size: 0x8, addend: 0x0, symName: __ZNSt3__112basic_stringIcNS_11char_traitsIcEENS_9allocatorIcEEE14__default_initB8ue170006Ev, symObjAddr: 0x174C, symBinAddr: 0x100004AF8, symSize: 0xB0 }
  - { offsetInCU: 0xBC5E, offset: 0xBC5E, size: 0x8, addend: 0x0, symName: __ZNSt3__117__compressed_pairINS_12basic_stringIcNS_11char_traitsIcEENS_9allocatorIcEEE5__repES5_EC2B8ue170006INS_18__default_init_tagERKS5_EEOT_OT0_, symObjAddr: 0x17FC, symBinAddr: 0x100004BA8, symSize: 0x40 }
  - { offsetInCU: 0xBCB5, offset: 0xBCB5, size: 0x8, addend: 0x0, symName: __ZNSt3__122__compressed_pair_elemINS_12basic_stringIcNS_11char_traitsIcEENS_9allocatorIcEEE5__repELi0ELb0EEC2B8ue170006ENS_18__default_init_tagE, symObjAddr: 0x183C, symBinAddr: 0x100004BE8, symSize: 0x14 }
  - { offsetInCU: 0xBCE9, offset: 0xBCE9, size: 0x8, addend: 0x0, symName: __ZNSt3__122__compressed_pair_elemINS_9allocatorIcEELi1ELb1EEC2B8ue170006IRKS2_vEEOT_, symObjAddr: 0x1850, symBinAddr: 0x100004BFC, symSize: 0x18 }
  - { offsetInCU: 0xBD2A, offset: 0xBD2A, size: 0x8, addend: 0x0, symName: __ZNSt3__117__compressed_pairINS_12basic_stringIcNS_11char_traitsIcEENS_9allocatorIcEEE5__repES5_E5firstB8ue170006Ev, symObjAddr: 0x1868, symBinAddr: 0x100004C14, symSize: 0x24 }
  - { offsetInCU: 0xBD4F, offset: 0xBD4F, size: 0x8, addend: 0x0, symName: __ZNSt3__112basic_stringIcNS_11char_traitsIcEENS_9allocatorIcEEE11__recommendB8ue170006Em, symObjAddr: 0x188C, symBinAddr: 0x100004C38, symSize: 0x9C }
  - { offsetInCU: 0xBD82, offset: 0xBD82, size: 0x8, addend: 0x0, symName: __ZNSt3__116allocator_traitsINS_9allocatorIcEEE8allocateB8ue170006ERS2_m, symObjAddr: 0x1928, symBinAddr: 0x100004CD4, symSize: 0x2C }
  - { offsetInCU: 0xBDB5, offset: 0xBDB5, size: 0x8, addend: 0x0, symName: __ZNSt3__112basic_stringIcNS_11char_traitsIcEENS_9allocatorIcEEE7__allocB8ue170006Ev, symObjAddr: 0x1954, symBinAddr: 0x100004D00, symSize: 0x24 }
  - { offsetInCU: 0xBDDA, offset: 0xBDDA, size: 0x8, addend: 0x0, symName: __ZNSt3__112basic_stringIcNS_11char_traitsIcEENS_9allocatorIcEEE16__begin_lifetimeB8ue170006EPcm, symObjAddr: 0x1978, symBinAddr: 0x100004D24, symSize: 0x14 }
  - { offsetInCU: 0xBE0D, offset: 0xBE0D, size: 0x8, addend: 0x0, symName: __ZNSt3__112basic_stringIcNS_11char_traitsIcEENS_9allocatorIcEEE18__set_long_pointerB8ue170006EPc, symObjAddr: 0x198C, symBinAddr: 0x100004D38, symSize: 0x38 }
  - { offsetInCU: 0xBE41, offset: 0xBE41, size: 0x8, addend: 0x0, symName: __ZNSt3__112basic_stringIcNS_11char_traitsIcEENS_9allocatorIcEEE14__set_long_capB8ue170006Em, symObjAddr: 0x19C4, symBinAddr: 0x100004D70, symSize: 0x70 }
  - { offsetInCU: 0xBE75, offset: 0xBE75, size: 0x8, addend: 0x0, symName: __ZNSt3__112basic_stringIcNS_11char_traitsIcEENS_9allocatorIcEEE15__set_long_sizeB8ue170006Em, symObjAddr: 0x1A34, symBinAddr: 0x100004DE0, symSize: 0x38 }
  - { offsetInCU: 0xBEA9, offset: 0xBEA9, size: 0x8, addend: 0x0, symName: __ZNSt3__122__compressed_pair_elemINS_12basic_stringIcNS_11char_traitsIcEENS_9allocatorIcEEE5__repELi0ELb0EE5__getB8ue170006Ev, symObjAddr: 0x1A6C, symBinAddr: 0x100004E18, symSize: 0x14 }
  - { offsetInCU: 0xBECE, offset: 0xBECE, size: 0x8, addend: 0x0, symName: __ZNSt3__112basic_stringIcNS_11char_traitsIcEENS_9allocatorIcEEE10__align_itB8ue170006ILm16EEEmm, symObjAddr: 0x1A80, symBinAddr: 0x100004E2C, symSize: 0x1C }
  - { offsetInCU: 0xBEFC, offset: 0xBEFC, size: 0x8, addend: 0x0, symName: __ZNSt3__19allocatorIcE8allocateB8ue170006Em, symObjAddr: 0x1A9C, symBinAddr: 0x100004E48, symSize: 0x84 }
  - { offsetInCU: 0xBF39, offset: 0xBF39, size: 0x8, addend: 0x0, symName: __ZNSt3__116allocator_traitsINS_9allocatorIcEEE8max_sizeB8ue170006IS2_vEEmRKS2_, symObjAddr: 0x1B20, symBinAddr: 0x100004ECC, symSize: 0x24 }
  - { offsetInCU: 0xBF67, offset: 0xBF67, size: 0x8, addend: 0x0, symName: __ZNKSt3__19allocatorIcE8max_sizeB8ue170006Ev, symObjAddr: 0x1BA0, symBinAddr: 0x100004F4C, symSize: 0x14 }
  - { offsetInCU: 0xBF8C, offset: 0xBF8C, size: 0x8, addend: 0x0, symName: __ZNSt3__117__compressed_pairINS_12basic_stringIcNS_11char_traitsIcEENS_9allocatorIcEEE5__repES5_E6secondB8ue170006Ev, symObjAddr: 0x1BD8, symBinAddr: 0x100004F84, symSize: 0x24 }
  - { offsetInCU: 0xBFB1, offset: 0xBFB1, size: 0x8, addend: 0x0, symName: __ZNSt3__122__compressed_pair_elemINS_9allocatorIcEELi1ELb1EE5__getB8ue170006Ev, symObjAddr: 0x1BFC, symBinAddr: 0x100004FA8, symSize: 0x14 }
  - { offsetInCU: 0xBFD6, offset: 0xBFD6, size: 0x8, addend: 0x0, symName: __ZNKSt3__19basic_iosIcNS_11char_traitsIcEEE4failB8ue170006Ev, symObjAddr: 0x1C10, symBinAddr: 0x100004FBC, symSize: 0x28 }
  - { offsetInCU: 0xBFFB, offset: 0xBFFB, size: 0x8, addend: 0x0, symName: __ZNKSt3__18ios_base4failB8ue170006Ev, symObjAddr: 0x1C38, symBinAddr: 0x100004FE4, symSize: 0x28 }
  - { offsetInCU: 0xC022, offset: 0xC022, size: 0x8, addend: 0x0, symName: __ZNSt3__16vectorIiNS_9allocatorIiEEE9__end_capB8ue170006Ev, symObjAddr: 0x1C60, symBinAddr: 0x10000500C, symSize: 0x28 }
  - { offsetInCU: 0xC047, offset: 0xC047, size: 0x8, addend: 0x0, symName: __ZNSt3__16vectorIiNS_9allocatorIiEEE22__construct_one_at_endB8ue170006IJRKiEEEvDpOT_, symObjAddr: 0x1C88, symBinAddr: 0x100005034, symSize: 0x98 }
  - { offsetInCU: 0xC094, offset: 0xC094, size: 0x8, addend: 0x0, symName: __ZNSt3__16vectorIiNS_9allocatorIiEEE21__push_back_slow_pathIRKiEEvOT_, symObjAddr: 0x1D20, symBinAddr: 0x1000050CC, symSize: 0xE0 }
  - { offsetInCU: 0xC0F1, offset: 0xC0F1, size: 0x8, addend: 0x0, symName: __ZNSt3__117__compressed_pairIPiNS_9allocatorIiEEE5firstB8ue170006Ev, symObjAddr: 0x1E00, symBinAddr: 0x1000051AC, symSize: 0x24 }
  - { offsetInCU: 0xC116, offset: 0xC116, size: 0x8, addend: 0x0, symName: __ZNSt3__122__compressed_pair_elemIPiLi0ELb0EE5__getB8ue170006Ev, symObjAddr: 0x1E24, symBinAddr: 0x1000051D0, symSize: 0x14 }
  - { offsetInCU: 0xC154, offset: 0xC154, size: 0x8, addend: 0x0, symName: __ZNSt3__16vectorIiNS_9allocatorIiEEE21_ConstructTransactionC1B8ue170006ERS3_m, symObjAddr: 0x1E38, symBinAddr: 0x1000051E4, symSize: 0x3C }
  - { offsetInCU: 0xC19B, offset: 0xC19B, size: 0x8, addend: 0x0, symName: __ZNSt3__116allocator_traitsINS_9allocatorIiEEE9constructB8ue170006IiJRKiEvEEvRS2_PT_DpOT0_, symObjAddr: 0x1E74, symBinAddr: 0x100005220, symSize: 0x34 }
  - { offsetInCU: 0xC1F2, offset: 0xC1F2, size: 0x8, addend: 0x0, symName: __ZNSt3__16vectorIiNS_9allocatorIiEEE21_ConstructTransactionD1B8ue170006Ev, symObjAddr: 0x1EA8, symBinAddr: 0x100005254, symSize: 0x2C }
  - { offsetInCU: 0xC21B, offset: 0xC21B, size: 0x8, addend: 0x0, symName: __ZNSt3__16vectorIiNS_9allocatorIiEEE21_ConstructTransactionC2B8ue170006ERS3_m, symObjAddr: 0x1ED4, symBinAddr: 0x100005280, symSize: 0x44 }
  - { offsetInCU: 0xC262, offset: 0xC262, size: 0x8, addend: 0x0, symName: __ZNSt3__19allocatorIiE9constructB8ue170006IiJRKiEEEvPT_DpOT0_, symObjAddr: 0x1F18, symBinAddr: 0x1000052C4, symSize: 0x28 }
  - { offsetInCU: 0xC2B7, offset: 0xC2B7, size: 0x8, addend: 0x0, symName: __ZNSt3__16vectorIiNS_9allocatorIiEEE21_ConstructTransactionD2B8ue170006Ev, symObjAddr: 0x1F40, symBinAddr: 0x1000052EC, symSize: 0x20 }
  - { offsetInCU: 0xC2DF, offset: 0xC2DF, size: 0x8, addend: 0x0, symName: __ZNKSt3__16vectorIiNS_9allocatorIiEEE11__recommendB8ue170006Em, symObjAddr: 0x1F60, symBinAddr: 0x10000530C, symSize: 0xB4 }
  - { offsetInCU: 0xC333, offset: 0xC333, size: 0x8, addend: 0x0, symName: __ZNSt3__114__split_bufferIiRNS_9allocatorIiEEEC1EmmS3_, symObjAddr: 0x2014, symBinAddr: 0x1000053C0, symSize: 0x44 }
  - { offsetInCU: 0xC388, offset: 0xC388, size: 0x8, addend: 0x0, symName: __ZNSt3__114__split_bufferIiRNS_9allocatorIiEEED1Ev, symObjAddr: 0x2168, symBinAddr: 0x100005514, symSize: 0x2C }
  - { offsetInCU: 0xC3B2, offset: 0xC3B2, size: 0x8, addend: 0x0, symName: __ZNKSt3__16vectorIiNS_9allocatorIiEEE8max_sizeEv, symObjAddr: 0x2194, symBinAddr: 0x100005540, symSize: 0x74 }
  - { offsetInCU: 0xC3D9, offset: 0xC3D9, size: 0x8, addend: 0x0, symName: __ZNKSt3__16vectorIiNS_9allocatorIiEEE20__throw_length_errorB8ue170006Ev, symObjAddr: 0x2208, symBinAddr: 0x1000055B4, symSize: 0x1C }
  - { offsetInCU: 0xC408, offset: 0xC408, size: 0x8, addend: 0x0, symName: __ZNSt3__116allocator_traitsINS_9allocatorIiEEE8max_sizeB8ue170006IS2_vEEmRKS2_, symObjAddr: 0x227C, symBinAddr: 0x100005628, symSize: 0x24 }
  - { offsetInCU: 0xC436, offset: 0xC436, size: 0x8, addend: 0x0, symName: __ZNKSt3__16vectorIiNS_9allocatorIiEEE7__allocB8ue170006Ev, symObjAddr: 0x22A0, symBinAddr: 0x10000564C, symSize: 0x28 }
  - { offsetInCU: 0xC45B, offset: 0xC45B, size: 0x8, addend: 0x0, symName: __ZNSt3__114numeric_limitsIlE3maxB8ue170006Ev, symObjAddr: 0x22C8, symBinAddr: 0x100005674, symSize: 0x14 }
  - { offsetInCU: 0xC483, offset: 0xC483, size: 0x8, addend: 0x0, symName: __ZNKSt3__16__lessIvvEclB8ue170006ImmEEbRKT_RKT0_, symObjAddr: 0x2330, symBinAddr: 0x1000056DC, symSize: 0x34 }
  - { offsetInCU: 0xC4D6, offset: 0xC4D6, size: 0x8, addend: 0x0, symName: __ZNKSt3__19allocatorIiE8max_sizeB8ue170006Ev, symObjAddr: 0x2364, symBinAddr: 0x100005710, symSize: 0x14 }
  - { offsetInCU: 0xC4FB, offset: 0xC4FB, size: 0x8, addend: 0x0, symName: __ZNKSt3__117__compressed_pairIPiNS_9allocatorIiEEE6secondB8ue170006Ev, symObjAddr: 0x2378, symBinAddr: 0x100005724, symSize: 0x24 }
  - { offsetInCU: 0xC520, offset: 0xC520, size: 0x8, addend: 0x0, symName: __ZNKSt3__122__compressed_pair_elemINS_9allocatorIiEELi1ELb1EE5__getB8ue170006Ev, symObjAddr: 0x239C, symBinAddr: 0x100005748, symSize: 0x14 }
  - { offsetInCU: 0xC545, offset: 0xC545, size: 0x8, addend: 0x0, symName: __ZNSt3__123__libcpp_numeric_limitsIlLb1EE3maxB8ue170006Ev, symObjAddr: 0x23B0, symBinAddr: 0x10000575C, symSize: 0x8 }
  - { offsetInCU: 0xC559, offset: 0xC559, size: 0x8, addend: 0x0, symName: __ZNSt12length_errorC1B8ue170006EPKc, symObjAddr: 0x241C, symBinAddr: 0x1000057C8, symSize: 0x34 }
  - { offsetInCU: 0xC590, offset: 0xC590, size: 0x8, addend: 0x0, symName: __ZNSt12length_errorC2B8ue170006EPKc, symObjAddr: 0x2450, symBinAddr: 0x1000057FC, symSize: 0x4C }
  - { offsetInCU: 0xC5C7, offset: 0xC5C7, size: 0x8, addend: 0x0, symName: __ZNSt3__114__split_bufferIiRNS_9allocatorIiEEEC2EmmS3_, symObjAddr: 0x24F0, symBinAddr: 0x10000589C, symSize: 0xD4 }
  - { offsetInCU: 0xC63A, offset: 0xC63A, size: 0x8, addend: 0x0, symName: __ZNSt3__117__compressed_pairIPiRNS_9allocatorIiEEEC1B8ue170006IDnS4_EEOT_OT0_, symObjAddr: 0x25C4, symBinAddr: 0x100005970, symSize: 0x3C }
  - { offsetInCU: 0xC691, offset: 0xC691, size: 0x8, addend: 0x0, symName: __ZNSt3__114__split_bufferIiRNS_9allocatorIiEEE7__allocB8ue170006Ev, symObjAddr: 0x2640, symBinAddr: 0x1000059EC, symSize: 0x28 }
  - { offsetInCU: 0xC6B6, offset: 0xC6B6, size: 0x8, addend: 0x0, symName: __ZNSt3__114__split_bufferIiRNS_9allocatorIiEEE9__end_capB8ue170006Ev, symObjAddr: 0x2668, symBinAddr: 0x100005A14, symSize: 0x28 }
  - { offsetInCU: 0xC6DB, offset: 0xC6DB, size: 0x8, addend: 0x0, symName: __ZNSt3__117__compressed_pairIPiRNS_9allocatorIiEEEC2B8ue170006IDnS4_EEOT_OT0_, symObjAddr: 0x2690, symBinAddr: 0x100005A3C, symSize: 0x48 }
  - { offsetInCU: 0xC732, offset: 0xC732, size: 0x8, addend: 0x0, symName: __ZNSt3__122__compressed_pair_elemIRNS_9allocatorIiEELi1ELb0EEC2B8ue170006IS3_vEEOT_, symObjAddr: 0x26D8, symBinAddr: 0x100005A84, symSize: 0x20 }
  - { offsetInCU: 0xC773, offset: 0xC773, size: 0x8, addend: 0x0, symName: __ZNSt3__19allocatorIiE8allocateB8ue170006Em, symObjAddr: 0x26F8, symBinAddr: 0x100005AA4, symSize: 0x84 }
  - { offsetInCU: 0xC7A6, offset: 0xC7A6, size: 0x8, addend: 0x0, symName: __ZNSt3__117__compressed_pairIPiRNS_9allocatorIiEEE6secondB8ue170006Ev, symObjAddr: 0x277C, symBinAddr: 0x100005B28, symSize: 0x28 }
  - { offsetInCU: 0xC7CB, offset: 0xC7CB, size: 0x8, addend: 0x0, symName: __ZNSt3__122__compressed_pair_elemIRNS_9allocatorIiEELi1ELb0EE5__getB8ue170006Ev, symObjAddr: 0x27A4, symBinAddr: 0x100005B50, symSize: 0x18 }
  - { offsetInCU: 0xC7F0, offset: 0xC7F0, size: 0x8, addend: 0x0, symName: __ZNSt3__117__compressed_pairIPiRNS_9allocatorIiEEE5firstB8ue170006Ev, symObjAddr: 0x27BC, symBinAddr: 0x100005B68, symSize: 0x24 }
  - { offsetInCU: 0xC815, offset: 0xC815, size: 0x8, addend: 0x0, symName: __ZNSt3__116reverse_iteratorIPiEC1B8ue170006ES1_, symObjAddr: 0x28C8, symBinAddr: 0x100005C74, symSize: 0x34 }
  - { offsetInCU: 0xC84C, offset: 0xC84C, size: 0x8, addend: 0x0, symName: __ZNKSt3__116reverse_iteratorIPiE4baseB8ue170006Ev, symObjAddr: 0x28FC, symBinAddr: 0x100005CA8, symSize: 0x18 }
  - { offsetInCU: 0xC871, offset: 0xC871, size: 0x8, addend: 0x0, symName: __ZNKSt3__16vectorIiNS_9allocatorIiEEE14__annotate_newB8ue170006Em, symObjAddr: 0x2950, symBinAddr: 0x100005CFC, symSize: 0xAC }
  - { offsetInCU: 0xC8A5, offset: 0xC8A5, size: 0x8, addend: 0x0, symName: __ZNKSt3__116reverse_iteratorIPiEdeB8ue170006Ev, symObjAddr: 0x2A94, symBinAddr: 0x100005E40, symSize: 0x28 }
  - { offsetInCU: 0xC8D8, offset: 0xC8D8, size: 0x8, addend: 0x0, symName: __ZNSt3__116reverse_iteratorIPiEppB8ue170006Ev, symObjAddr: 0x2ABC, symBinAddr: 0x100005E68, symSize: 0x20 }
  - { offsetInCU: 0xC902, offset: 0xC902, size: 0x8, addend: 0x0, symName: __ZNSt3__119__to_address_helperINS_16reverse_iteratorIPiEEvE6__callB8ue170006ERKS3_, symObjAddr: 0x2B54, symBinAddr: 0x100005F00, symSize: 0x4C }
  - { offsetInCU: 0xC925, offset: 0xC925, size: 0x8, addend: 0x0, symName: __ZNKSt3__116reverse_iteratorIPiEptB8ue170006Ev, symObjAddr: 0x2BA0, symBinAddr: 0x100005F4C, symSize: 0x24 }
  - { offsetInCU: 0xC96D, offset: 0xC96D, size: 0x8, addend: 0x0, symName: __ZNKSt3__111__move_loopINS_17_ClassicAlgPolicyEEclB8ue170006INS_16reverse_iteratorIPiEES6_S6_EENS_4pairIT_T1_EES8_T0_S9_, symObjAddr: 0x2E3C, symBinAddr: 0x1000061E8, symSize: 0xA0 }
  - { offsetInCU: 0xC9DC, offset: 0xC9DC, size: 0x8, addend: 0x0, symName: __ZNSt3__18_IterOpsINS_17_ClassicAlgPolicyEE11__iter_moveB8ue170006IRNS_16reverse_iteratorIPiEEEENS_9enable_ifIXsr12is_referenceIDTdeclsr3stdE7declvalIRT_EEEEE5valueEDTclsr3stdE4movedeclsr3stdE7declvalISA_EEEEE4typeEOS9_, symObjAddr: 0x303C, symBinAddr: 0x1000063E8, symSize: 0x28 }
  - { offsetInCU: 0xCA08, offset: 0xCA08, size: 0x8, addend: 0x0, symName: __ZNSt3__18_IterOpsINS_17_ClassicAlgPolicyEE25__validate_iter_referenceB8ue170006IRNS_16reverse_iteratorIPiEEEEvv, symObjAddr: 0x3064, symBinAddr: 0x100006410, symSize: 0x4 }
  - { offsetInCU: 0xCA26, offset: 0xCA26, size: 0x8, addend: 0x0, symName: __ZNSt3__118__unwrap_iter_implINS_16reverse_iteratorIPiEELb0EE8__unwrapB8ue170006ES3_, symObjAddr: 0x3068, symBinAddr: 0x100006414, symSize: 0x24 }
  - { offsetInCU: 0xCA49, offset: 0xCA49, size: 0x8, addend: 0x0, symName: __ZNSt3__14pairINS_16reverse_iteratorIPiEES3_EC1B8ue170006ERKS3_S6_, symObjAddr: 0x308C, symBinAddr: 0x100006438, symSize: 0x3C }
  - { offsetInCU: 0xCA8E, offset: 0xCA8E, size: 0x8, addend: 0x0, symName: __ZNSt3__14pairINS_16reverse_iteratorIPiEES3_EC2B8ue170006ERKS3_S6_, symObjAddr: 0x30C8, symBinAddr: 0x100006474, symSize: 0x34 }
  - { offsetInCU: 0xCAD3, offset: 0xCAD3, size: 0x8, addend: 0x0, symName: __ZNSt3__118__unwrap_iter_implINS_16reverse_iteratorIPiEELb0EE8__rewrapB8ue170006ES3_S3_, symObjAddr: 0x30FC, symBinAddr: 0x1000064A8, symSize: 0x2C }
  - { offsetInCU: 0xCB01, offset: 0xCB01, size: 0x8, addend: 0x0, symName: __ZNSt3__116reverse_iteratorIPiEC2B8ue170006ES1_, symObjAddr: 0x3128, symBinAddr: 0x1000064D4, symSize: 0x28 }
  - { offsetInCU: 0xCB38, offset: 0xCB38, size: 0x8, addend: 0x0, symName: __ZNSt3__114__split_bufferIiRNS_9allocatorIiEEED2Ev, symObjAddr: 0x3150, symBinAddr: 0x1000064FC, symSize: 0x80 }
  - { offsetInCU: 0xCB63, offset: 0xCB63, size: 0x8, addend: 0x0, symName: __ZNSt3__114__split_bufferIiRNS_9allocatorIiEEE5clearB8ue170006Ev, symObjAddr: 0x31D0, symBinAddr: 0x10000657C, symSize: 0x28 }
  - { offsetInCU: 0xCB88, offset: 0xCB88, size: 0x8, addend: 0x0, symName: __ZNKSt3__114__split_bufferIiRNS_9allocatorIiEEE8capacityB8ue170006Ev, symObjAddr: 0x31F8, symBinAddr: 0x1000065A4, symSize: 0x40 }
  - { offsetInCU: 0xCBAD, offset: 0xCBAD, size: 0x8, addend: 0x0, symName: __ZNSt3__114__split_bufferIiRNS_9allocatorIiEEE17__destruct_at_endB8ue170006EPi, symObjAddr: 0x3238, symBinAddr: 0x1000065E4, symSize: 0x2C }
  - { offsetInCU: 0xCBDF, offset: 0xCBDF, size: 0x8, addend: 0x0, symName: __ZNSt3__114__split_bufferIiRNS_9allocatorIiEEE17__destruct_at_endB8ue170006EPiNS_17integral_constantIbLb0EEE, symObjAddr: 0x3264, symBinAddr: 0x100006610, symSize: 0x94 }
  - { offsetInCU: 0xCC1F, offset: 0xCC1F, size: 0x8, addend: 0x0, symName: __ZNKSt3__114__split_bufferIiRNS_9allocatorIiEEE9__end_capB8ue170006Ev, symObjAddr: 0x32F8, symBinAddr: 0x1000066A4, symSize: 0x28 }
  - { offsetInCU: 0xCC44, offset: 0xCC44, size: 0x8, addend: 0x0, symName: __ZNKSt3__117__compressed_pairIPiRNS_9allocatorIiEEE5firstB8ue170006Ev, symObjAddr: 0x3320, symBinAddr: 0x1000066CC, symSize: 0x24 }
  - { offsetInCU: 0xCC87, offset: 0xCC87, size: 0x8, addend: 0x0, symName: __ZNKSt3__113basic_istreamIcNS_11char_traitsIcEEE6sentrycvbB8ue170006Ev, symObjAddr: 0x3344, symBinAddr: 0x1000066F0, symSize: 0x1C }
  - { offsetInCU: 0xCCAB, offset: 0xCCAB, size: 0x8, addend: 0x0, symName: __ZNKSt3__19basic_iosIcNS_11char_traitsIcEEE5rdbufB8ue170006Ev, symObjAddr: 0x3360, symBinAddr: 0x10000670C, symSize: 0x24 }
  - { offsetInCU: 0xCCD2, offset: 0xCCD2, size: 0x8, addend: 0x0, symName: __ZNSt3__115basic_streambufIcNS_11char_traitsIcEEE6sbumpcB8ue170006Ev, symObjAddr: 0x3384, symBinAddr: 0x100006730, symSize: 0x78 }
  - { offsetInCU: 0xCCF7, offset: 0xCCF7, size: 0x8, addend: 0x0, symName: __ZNSt3__111char_traitsIcE11eq_int_typeB8ue170006Eii, symObjAddr: 0x33FC, symBinAddr: 0x1000067A8, symSize: 0x28 }
  - { offsetInCU: 0xCD2A, offset: 0xCD2A, size: 0x8, addend: 0x0, symName: __ZNSt3__111char_traitsIcE12to_char_typeB8ue170006Ei, symObjAddr: 0x3424, symBinAddr: 0x1000067D0, symSize: 0x18 }
  - { offsetInCU: 0xCD4D, offset: 0xCD4D, size: 0x8, addend: 0x0, symName: __ZNSt3__18ios_base18__setstate_nothrowB8ue170006Ej, symObjAddr: 0x343C, symBinAddr: 0x1000067E8, symSize: 0x64 }
  - { offsetInCU: 0xCD81, offset: 0xCD81, size: 0x8, addend: 0x0, symName: __ZNKSt3__19basic_iosIcNS_11char_traitsIcEEE10exceptionsB8ue170006Ev, symObjAddr: 0x34A0, symBinAddr: 0x10000684C, symSize: 0x24 }
  - { offsetInCU: 0xCDA6, offset: 0xCDA6, size: 0x8, addend: 0x0, symName: __ZNSt3__19basic_iosIcNS_11char_traitsIcEEE8setstateB8ue170006Ej, symObjAddr: 0x34C4, symBinAddr: 0x100006870, symSize: 0x2C }
  - { offsetInCU: 0xCDDA, offset: 0xCDDA, size: 0x8, addend: 0x0, symName: __ZNKSt3__18ios_base5rdbufB8ue170006Ev, symObjAddr: 0x34F0, symBinAddr: 0x10000689C, symSize: 0x18 }
  - { offsetInCU: 0xCDFF, offset: 0xCDFF, size: 0x8, addend: 0x0, symName: __ZNSt3__111char_traitsIcE11to_int_typeB8ue170006Ec, symObjAddr: 0x3508, symBinAddr: 0x1000068B4, symSize: 0x14 }
  - { offsetInCU: 0xCE23, offset: 0xCE23, size: 0x8, addend: 0x0, symName: __ZNKSt3__18ios_base10exceptionsB8ue170006Ev, symObjAddr: 0x351C, symBinAddr: 0x1000068C8, symSize: 0x18 }
  - { offsetInCU: 0xCE49, offset: 0xCE49, size: 0x8, addend: 0x0, symName: __ZNSt3__18ios_base8setstateB8ue170006Ej, symObjAddr: 0x3534, symBinAddr: 0x1000068E0, symSize: 0x34 }
  - { offsetInCU: 0xCE7F, offset: 0xCE7F, size: 0x8, addend: 0x0, symName: __ZNSt3__112basic_stringIcNS_11char_traitsIcEENS_9allocatorIcEEEC2B8ue170006Ev, symObjAddr: 0x3568, symBinAddr: 0x100006914, symSize: 0x3C }
  - { offsetInCU: 0xCEA8, offset: 0xCEA8, size: 0x8, addend: 0x0, symName: __ZNSt3__117__compressed_pairINS_12basic_stringIcNS_11char_traitsIcEENS_9allocatorIcEEE5__repES5_EC1B8ue170006INS_18__default_init_tagESA_EEOT_OT0_, symObjAddr: 0x35A4, symBinAddr: 0x100006950, symSize: 0x3C }
  - { offsetInCU: 0xCEFF, offset: 0xCEFF, size: 0x8, addend: 0x0, symName: __ZNSt3__117__compressed_pairINS_12basic_stringIcNS_11char_traitsIcEENS_9allocatorIcEEE5__repES5_EC2B8ue170006INS_18__default_init_tagESA_EEOT_OT0_, symObjAddr: 0x35E0, symBinAddr: 0x10000698C, symSize: 0x3C }
  - { offsetInCU: 0xCF56, offset: 0xCF56, size: 0x8, addend: 0x0, symName: __ZNSt3__122__compressed_pair_elemINS_9allocatorIcEELi1ELb1EEC2B8ue170006ENS_18__default_init_tagE, symObjAddr: 0x361C, symBinAddr: 0x1000069C8, symSize: 0x2C }
  - { offsetInCU: 0xCF8A, offset: 0xCF8A, size: 0x8, addend: 0x0, symName: __ZNSt3__19allocatorIcEC2B8ue170006Ev, symObjAddr: 0x3648, symBinAddr: 0x1000069F4, symSize: 0x2C }
  - { offsetInCU: 0xCFB3, offset: 0xCFB3, size: 0x8, addend: 0x0, symName: __ZNSt3__116__non_trivial_ifILb1ENS_9allocatorIcEEEC2B8ue170006Ev, symObjAddr: 0x3674, symBinAddr: 0x100006A20, symSize: 0x14 }
  - { offsetInCU: 0xCFDB, offset: 0xCFDB, size: 0x8, addend: 0x0, symName: __ZNSt3__112basic_stringIcNS_11char_traitsIcEENS_9allocatorIcEEE5clearB8ue170006Ev, symObjAddr: 0x3688, symBinAddr: 0x100006A34, symSize: 0x78 }
  - { offsetInCU: 0xD002, offset: 0xD002, size: 0x8, addend: 0x0, symName: __ZNKSt3__18ios_base5widthB8ue170006Ev, symObjAddr: 0x3700, symBinAddr: 0x100006AAC, symSize: 0x18 }
  - { offsetInCU: 0xD029, offset: 0xD029, size: 0x8, addend: 0x0, symName: __ZNKSt3__112basic_stringIcNS_11char_traitsIcEENS_9allocatorIcEEE8max_sizeB8ue170006Ev, symObjAddr: 0x3718, symBinAddr: 0x100006AC4, symSize: 0xAC }
  - { offsetInCU: 0xD07B, offset: 0xD07B, size: 0x8, addend: 0x0, symName: __ZNSt3__115basic_streambufIcNS_11char_traitsIcEEE5sgetcB8ue170006Ev, symObjAddr: 0x37F0, symBinAddr: 0x100006B9C, symSize: 0x70 }
  - { offsetInCU: 0xD0CD, offset: 0xD0CD, size: 0x8, addend: 0x0, symName: __ZNKSt3__15ctypeIcE2isB8ue170006Ejc, symObjAddr: 0x3860, symBinAddr: 0x100006C0C, symSize: 0x7C }
  - { offsetInCU: 0xD110, offset: 0xD110, size: 0x8, addend: 0x0, symName: __ZNSt3__18ios_base5widthB8ue170006El, symObjAddr: 0x38DC, symBinAddr: 0x100006C88, symSize: 0x2C }
  - { offsetInCU: 0xD155, offset: 0xD155, size: 0x8, addend: 0x0, symName: __ZNKSt3__112basic_stringIcNS_11char_traitsIcEENS_9allocatorIcEEE9__is_longB8ue170006Ev, symObjAddr: 0x3908, symBinAddr: 0x100006CB4, symSize: 0x74 }
  - { offsetInCU: 0xD17A, offset: 0xD17A, size: 0x8, addend: 0x0, symName: __ZNSt3__111char_traitsIcE6assignB8ue170006ERcRKc, symObjAddr: 0x397C, symBinAddr: 0x100006D28, symSize: 0x24 }
  - { offsetInCU: 0xD1AB, offset: 0xD1AB, size: 0x8, addend: 0x0, symName: __ZNSt3__112basic_stringIcNS_11char_traitsIcEENS_9allocatorIcEEE18__get_long_pointerB8ue170006Ev, symObjAddr: 0x39A0, symBinAddr: 0x100006D4C, symSize: 0x28 }
  - { offsetInCU: 0xD1D0, offset: 0xD1D0, size: 0x8, addend: 0x0, symName: __ZNSt3__112basic_stringIcNS_11char_traitsIcEENS_9allocatorIcEEE19__get_short_pointerB8ue170006Ev, symObjAddr: 0x39C8, symBinAddr: 0x100006D74, symSize: 0x28 }
  - { offsetInCU: 0xD1F5, offset: 0xD1F5, size: 0x8, addend: 0x0, symName: __ZNSt3__112basic_stringIcNS_11char_traitsIcEENS_9allocatorIcEEE16__set_short_sizeB8ue170006Em, symObjAddr: 0x39F0, symBinAddr: 0x100006D9C, symSize: 0x78 }
  - { offsetInCU: 0xD229, offset: 0xD229, size: 0x8, addend: 0x0, symName: __ZNKSt3__117__compressed_pairINS_12basic_stringIcNS_11char_traitsIcEENS_9allocatorIcEEE5__repES5_E5firstB8ue170006Ev, symObjAddr: 0x3A68, symBinAddr: 0x100006E14, symSize: 0x24 }
  - { offsetInCU: 0xD24E, offset: 0xD24E, size: 0x8, addend: 0x0, symName: __ZNKSt3__122__compressed_pair_elemINS_12basic_stringIcNS_11char_traitsIcEENS_9allocatorIcEEE5__repELi0ELb0EE5__getB8ue170006Ev, symObjAddr: 0x3A8C, symBinAddr: 0x100006E38, symSize: 0x14 }
  - { offsetInCU: 0xD273, offset: 0xD273, size: 0x8, addend: 0x0, symName: __ZNSt3__114pointer_traitsIPcE10pointer_toB8ue170006ERc, symObjAddr: 0x3AA0, symBinAddr: 0x100006E4C, symSize: 0x14 }
  - { offsetInCU: 0xD296, offset: 0xD296, size: 0x8, addend: 0x0, symName: __ZNSt3__114numeric_limitsImE3maxB8ue170006Ev, symObjAddr: 0x3AB4, symBinAddr: 0x100006E60, symSize: 0x14 }
  - { offsetInCU: 0xD2AA, offset: 0xD2AA, size: 0x8, addend: 0x0, symName: __ZNSt3__123__libcpp_numeric_limitsImLb1EE3maxB8ue170006Ev, symObjAddr: 0x3AC8, symBinAddr: 0x100006E74, symSize: 0x8 }
  - { offsetInCU: 0xD2BD, offset: 0xD2BD, size: 0x8, addend: 0x0, symName: __Z7isasciii, symObjAddr: 0x3AD0, symBinAddr: 0x100006E7C, symSize: 0x24 }
  - { offsetInCU: 0xD2EA, offset: 0xD2EA, size: 0x8, addend: 0x0, symName: __ZNSt3__111char_traitsIcE6lengthB8ue170006EPKc, symObjAddr: 0x3CE8, symBinAddr: 0x100007094, symSize: 0x48 }
  - { offsetInCU: 0xD32B, offset: 0xD32B, size: 0x8, addend: 0x0, symName: __ZNKSt3__113basic_ostreamIcNS_11char_traitsIcEEE6sentrycvbB8ue170006Ev, symObjAddr: 0x3D30, symBinAddr: 0x1000070DC, symSize: 0x1C }
  - { offsetInCU: 0xD350, offset: 0xD350, size: 0x8, addend: 0x0, symName: __ZNSt3__119ostreambuf_iteratorIcNS_11char_traitsIcEEEC1B8ue170006ERNS_13basic_ostreamIcS2_EE, symObjAddr: 0x3F94, symBinAddr: 0x100007340, symSize: 0x34 }
  - { offsetInCU: 0xD387, offset: 0xD387, size: 0x8, addend: 0x0, symName: __ZNKSt3__18ios_base5flagsB8ue170006Ev, symObjAddr: 0x3FC8, symBinAddr: 0x100007374, symSize: 0x18 }
  - { offsetInCU: 0xD3AD, offset: 0xD3AD, size: 0x8, addend: 0x0, symName: __ZNKSt3__19basic_iosIcNS_11char_traitsIcEEE4fillB8ue170006Ev, symObjAddr: 0x3FE0, symBinAddr: 0x10000738C, symSize: 0x64 }
  - { offsetInCU: 0xD3D4, offset: 0xD3D4, size: 0x8, addend: 0x0, symName: __ZNKSt3__119ostreambuf_iteratorIcNS_11char_traitsIcEEE6failedB8ue170006Ev, symObjAddr: 0x4044, symBinAddr: 0x1000073F0, symSize: 0x24 }
  - { offsetInCU: 0xD3F9, offset: 0xD3F9, size: 0x8, addend: 0x0, symName: __ZNSt3__115basic_streambufIcNS_11char_traitsIcEEE5sputnB8ue170006EPKcl, symObjAddr: 0x4068, symBinAddr: 0x100007414, symSize: 0x3C }
  - { offsetInCU: 0xD43A, offset: 0xD43A, size: 0x8, addend: 0x0, symName: __ZNSt3__112basic_stringIcNS_11char_traitsIcEENS_9allocatorIcEEEC1B8ue170006Emc, symObjAddr: 0x40A4, symBinAddr: 0x100007450, symSize: 0x3C }
  - { offsetInCU: 0xD481, offset: 0xD481, size: 0x8, addend: 0x0, symName: __ZNKSt3__112basic_stringIcNS_11char_traitsIcEENS_9allocatorIcEEE4dataB8ue170006Ev, symObjAddr: 0x40E0, symBinAddr: 0x10000748C, symSize: 0x28 }
  - { offsetInCU: 0xD4A6, offset: 0xD4A6, size: 0x8, addend: 0x0, symName: __ZNSt3__112basic_stringIcNS_11char_traitsIcEENS_9allocatorIcEEEC2B8ue170006Emc, symObjAddr: 0x4108, symBinAddr: 0x1000074B4, symSize: 0x4C }
  - { offsetInCU: 0xD4ED, offset: 0xD4ED, size: 0x8, addend: 0x0, symName: __ZNKSt3__112basic_stringIcNS_11char_traitsIcEENS_9allocatorIcEEE13__get_pointerB8ue170006Ev, symObjAddr: 0x4168, symBinAddr: 0x100007514, symSize: 0x54 }
  - { offsetInCU: 0xD512, offset: 0xD512, size: 0x8, addend: 0x0, symName: __ZNKSt3__112basic_stringIcNS_11char_traitsIcEENS_9allocatorIcEEE18__get_long_pointerB8ue170006Ev, symObjAddr: 0x41BC, symBinAddr: 0x100007568, symSize: 0x28 }
  - { offsetInCU: 0xD537, offset: 0xD537, size: 0x8, addend: 0x0, symName: __ZNKSt3__112basic_stringIcNS_11char_traitsIcEENS_9allocatorIcEEE19__get_short_pointerB8ue170006Ev, symObjAddr: 0x41E4, symBinAddr: 0x100007590, symSize: 0x28 }
  - { offsetInCU: 0xD55C, offset: 0xD55C, size: 0x8, addend: 0x0, symName: __ZNSt3__114pointer_traitsIPKcE10pointer_toB8ue170006ERS1_, symObjAddr: 0x420C, symBinAddr: 0x1000075B8, symSize: 0x14 }
  - { offsetInCU: 0xD57F, offset: 0xD57F, size: 0x8, addend: 0x0, symName: __ZNSt3__119ostreambuf_iteratorIcNS_11char_traitsIcEEEC2B8ue170006ERNS_13basic_ostreamIcS2_EE, symObjAddr: 0x4220, symBinAddr: 0x1000075CC, symSize: 0x68 }
  - { offsetInCU: 0xD5B5, offset: 0xD5B5, size: 0x8, addend: 0x0, symName: __ZNKSt3__19basic_iosIcNS_11char_traitsIcEEE5widenB8ue170006Ec, symObjAddr: 0x4288, symBinAddr: 0x100007634, symSize: 0x8C }
  - { offsetInCU: 0xD5EB, offset: 0xD5EB, size: 0x8, addend: 0x0, symName: __ZNKSt3__15ctypeIcE5widenB8ue170006Ec, symObjAddr: 0x4314, symBinAddr: 0x1000076C0, symSize: 0x38 }
...
