---
triple:          'arm64-apple-darwin'
binary-path:     '/Users/kajalbormon/Developer/Code/HakerRank/class/output/class'
relocations:
  - { offsetInCU: 0x2E41, offset: 0x2E41, size: 0x8, addend: 0x0, symName: __ZNSt3__124__put_character_sequenceB8ue170006IcNS_11char_traitsIcEEEERNS_13basic_ostreamIT_T0_EES7_PKS4_m, symObjAddr: 0x110C, symBinAddr: 0x100002330, symSize: 0x1F4 }
  - { offsetInCU: 0x4C82, offset: 0x4C82, size: 0x8, addend: 0x0, symName: __ZNSt3__1rsB8ue170006IcNS_11char_traitsIcEENS_9allocatorIcEEEERNS_13basic_istreamIT_T0_EES9_RNS_12basic_stringIS6_S7_T1_EE, symObjAddr: 0x3A4, symBinAddr: 0x1000015C8, symSize: 0x314 }
  - { offsetInCU: 0x4D4F, offset: 0x4D4F, size: 0x8, addend: 0x0, symName: __ZNSt3__1lsB8ue170006INS_11char_traitsIcEEEERNS_13basic_ostreamIcT_EES6_PKc, symObjAddr: 0x790, symBinAddr: 0x1000019B4, symSize: 0x48 }
  - { offsetInCU: 0x4D95, offset: 0x4D95, size: 0x8, addend: 0x0, symName: __ZNSt3__1lsB8ue170006IcNS_11char_traitsIcEENS_9allocatorIcEEEERNS_13basic_ostreamIT_T0_EES9_RKNS_12basic_stringIS6_S7_T1_EE, symObjAddr: 0x7F0, symBinAddr: 0x100001A14, symSize: 0x4C }
  - { offsetInCU: 0x57B7, offset: 0x57B7, size: 0x8, addend: 0x0, symName: __ZNSt3__116__pad_and_outputB8ue170006IcNS_11char_traitsIcEEEENS_19ostreambuf_iteratorIT_T0_EES6_PKS4_S8_S8_RNS_8ios_baseES4_, symObjAddr: 0x1364, symBinAddr: 0x100002588, symSize: 0x248 }
  - { offsetInCU: 0x5886, offset: 0x5886, size: 0x8, addend: 0x0, symName: __ZNSt3__112__to_addressB8ue170006IKcEEPT_S3_, symObjAddr: 0x18D4, symBinAddr: 0x100002AF8, symSize: 0x14 }
  - { offsetInCU: 0x58BB, offset: 0x58BB, size: 0x8, addend: 0x0, symName: __ZNSt3__130__libcpp_is_constant_evaluatedB8ue170006Ev, symObjAddr: 0x1A00, symBinAddr: 0x100002C24, symSize: 0xC }
  - { offsetInCU: 0x590B, offset: 0x590B, size: 0x8, addend: 0x0, symName: __ZNSt3__19use_facetB8ue170006INS_5ctypeIcEEEERKT_RKNS_6localeE, symObjAddr: 0x1BB0, symBinAddr: 0x100002DD4, symSize: 0x2C }
  - { offsetInCU: 0x5CE9, offset: 0x5CE9, size: 0x8, addend: 0x0, symName: __ZNSt3__118__constexpr_strlenB8ue170006EPKc, symObjAddr: 0x1C48, symBinAddr: 0x100002E6C, symSize: 0x24 }
  - { offsetInCU: 0x5D15, offset: 0x5D15, size: 0x8, addend: 0x0, symName: __ZNSt3__117__libcpp_allocateB8ue170006Emm, symObjAddr: 0x2118, symBinAddr: 0x10000333C, symSize: 0x28 }
  - { offsetInCU: 0x5D52, offset: 0x5D52, size: 0x8, addend: 0x0, symName: __ZNSt3__121__libcpp_operator_newB8ue170006IJmEEEPvDpT_, symObjAddr: 0x2154, symBinAddr: 0x100003378, symSize: 0x24 }
  - { offsetInCU: 0x61CD, offset: 0x61CD, size: 0x8, addend: 0x0, symName: __ZSt28__throw_bad_array_new_lengthB8ue170006v, symObjAddr: 0x20E4, symBinAddr: 0x100003308, symSize: 0x34 }
  - { offsetInCU: 0x87AB, offset: 0x87AB, size: 0x8, addend: 0x0, symName: _main, symObjAddr: 0x0, symBinAddr: 0x100001224, symSize: 0x378 }
  - { offsetInCU: 0x880D, offset: 0x880D, size: 0x8, addend: 0x0, symName: __ZNSt3__112basic_stringIcNS_11char_traitsIcEENS_9allocatorIcEEEC1B8ue170006Ev, symObjAddr: 0x378, symBinAddr: 0x10000159C, symSize: 0x2C }
  - { offsetInCU: 0x8957, offset: 0x8957, size: 0x8, addend: 0x0, symName: __ZN7StudentC1Ev, symObjAddr: 0x6B8, symBinAddr: 0x1000018DC, symSize: 0x2C }
  - { offsetInCU: 0x8982, offset: 0x8982, size: 0x8, addend: 0x0, symName: __ZN7Student7set_ageEi, symObjAddr: 0x6E4, symBinAddr: 0x100001908, symSize: 0x20 }
  - { offsetInCU: 0x89B5, offset: 0x89B5, size: 0x8, addend: 0x0, symName: __ZN7Student12set_standardEi, symObjAddr: 0x704, symBinAddr: 0x100001928, symSize: 0x20 }
  - { offsetInCU: 0x89E8, offset: 0x89E8, size: 0x8, addend: 0x0, symName: __ZN7Student14set_first_nameENSt3__112basic_stringIcNS0_11char_traitsIcEENS0_9allocatorIcEEEE, symObjAddr: 0x724, symBinAddr: 0x100001948, symSize: 0x30 }
  - { offsetInCU: 0x8A1C, offset: 0x8A1C, size: 0x8, addend: 0x0, symName: __ZN7Student13set_last_nameENSt3__112basic_stringIcNS0_11char_traitsIcEENS0_9allocatorIcEEEE, symObjAddr: 0x760, symBinAddr: 0x100001984, symSize: 0x30 }
  - { offsetInCU: 0x8A50, offset: 0x8A50, size: 0x8, addend: 0x0, symName: __ZN7Student7get_ageEv, symObjAddr: 0x7D8, symBinAddr: 0x1000019FC, symSize: 0x18 }
  - { offsetInCU: 0x8A75, offset: 0x8A75, size: 0x8, addend: 0x0, symName: __ZN7Student13get_last_nameEv, symObjAddr: 0x83C, symBinAddr: 0x100001A60, symSize: 0x3C }
  - { offsetInCU: 0x8A9A, offset: 0x8A9A, size: 0x8, addend: 0x0, symName: __ZN7Student14get_first_nameEv, symObjAddr: 0x878, symBinAddr: 0x100001A9C, symSize: 0x3C }
  - { offsetInCU: 0x8ABF, offset: 0x8ABF, size: 0x8, addend: 0x0, symName: __ZN7Student12get_standardEv, symObjAddr: 0x8B4, symBinAddr: 0x100001AD8, symSize: 0x18 }
  - { offsetInCU: 0x8AE4, offset: 0x8AE4, size: 0x8, addend: 0x0, symName: __ZN7Student9to_stringEv, symObjAddr: 0x8CC, symBinAddr: 0x100001AF0, symSize: 0x138 }
  - { offsetInCU: 0x8B18, offset: 0x8B18, size: 0x8, addend: 0x0, symName: __ZN7StudentD1Ev, symObjAddr: 0xA04, symBinAddr: 0x100001C28, symSize: 0x2C }
  - { offsetInCU: 0x8B43, offset: 0x8B43, size: 0x8, addend: 0x0, symName: __ZN7StudentC2Ev, symObjAddr: 0xA30, symBinAddr: 0x100001C54, symSize: 0x70 }
  - { offsetInCU: 0x8C55, offset: 0x8C55, size: 0x8, addend: 0x0, symName: __ZNSt3__118basic_stringstreamIcNS_11char_traitsIcEENS_9allocatorIcEEEC1B8ue170006Ev, symObjAddr: 0xAA0, symBinAddr: 0x100001CC4, symSize: 0x110 }
  - { offsetInCU: 0x8C7E, offset: 0x8C7E, size: 0x8, addend: 0x0, symName: __ZNKSt3__118basic_stringstreamIcNS_11char_traitsIcEENS_9allocatorIcEEE3strB8ue170006Ev, symObjAddr: 0xBB0, symBinAddr: 0x100001DD4, symSize: 0x30 }
  - { offsetInCU: 0x8CA8, offset: 0x8CA8, size: 0x8, addend: 0x0, symName: __ZNSt3__118basic_stringstreamIcNS_11char_traitsIcEENS_9allocatorIcEEED1Ev, symObjAddr: 0xBE0, symBinAddr: 0x100001E04, symSize: 0x70 }
  - { offsetInCU: 0x8CD3, offset: 0x8CD3, size: 0x8, addend: 0x0, symName: __ZNSt3__19basic_iosIcNS_11char_traitsIcEEEC2B8ue170006Ev, symObjAddr: 0xC50, symBinAddr: 0x100001E74, symSize: 0x44 }
  - { offsetInCU: 0x8CFB, offset: 0x8CFB, size: 0x8, addend: 0x0, symName: __ZNSt3__114basic_iostreamIcNS_11char_traitsIcEEEC2B8ue170006EPNS_15basic_streambufIcS2_EE, symObjAddr: 0xC94, symBinAddr: 0x100001EB8, symSize: 0xB4 }
  - { offsetInCU: 0x8D3E, offset: 0x8D3E, size: 0x8, addend: 0x0, symName: __ZNSt3__115basic_stringbufIcNS_11char_traitsIcEENS_9allocatorIcEEEC1B8ue170006Ej, symObjAddr: 0xD48, symBinAddr: 0x100001F6C, symSize: 0x34 }
  - { offsetInCU: 0x8D76, offset: 0x8D76, size: 0x8, addend: 0x0, symName: __ZNSt3__18ios_baseC2B8ue170006Ev, symObjAddr: 0xD7C, symBinAddr: 0x100001FA0, symSize: 0x24 }
  - { offsetInCU: 0x8D9E, offset: 0x8D9E, size: 0x8, addend: 0x0, symName: __ZNSt3__113basic_istreamIcNS_11char_traitsIcEEEC2B8ue170006EPNS_15basic_streambufIcS2_EE, symObjAddr: 0xDA0, symBinAddr: 0x100001FC4, symSize: 0x64 }
  - { offsetInCU: 0x8DE1, offset: 0x8DE1, size: 0x8, addend: 0x0, symName: __ZNSt3__113basic_ostreamIcNS_11char_traitsIcEEEC2B8ue170006Ev, symObjAddr: 0xE04, symBinAddr: 0x100002028, symSize: 0x34 }
  - { offsetInCU: 0x8E16, offset: 0x8E16, size: 0x8, addend: 0x0, symName: __ZNSt3__19basic_iosIcNS_11char_traitsIcEEE4initB8ue170006EPNS_15basic_streambufIcS2_EE, symObjAddr: 0xE38, symBinAddr: 0x10000205C, symSize: 0x44 }
  - { offsetInCU: 0x8E4C, offset: 0x8E4C, size: 0x8, addend: 0x0, symName: __ZNSt3__111char_traitsIcE3eofB8ue170006Ev, symObjAddr: 0xE7C, symBinAddr: 0x1000020A0, symSize: 0x8 }
  - { offsetInCU: 0x8E5F, offset: 0x8E5F, size: 0x8, addend: 0x0, symName: __ZNSt3__115basic_stringbufIcNS_11char_traitsIcEENS_9allocatorIcEEEC2B8ue170006Ej, symObjAddr: 0xE84, symBinAddr: 0x1000020A8, symSize: 0x90 }
  - { offsetInCU: 0x8E97, offset: 0x8E97, size: 0x8, addend: 0x0, symName: __ZNSt3__118basic_stringstreamIcNS_11char_traitsIcEENS_9allocatorIcEEED2Ev, symObjAddr: 0xF14, symBinAddr: 0x100002138, symSize: 0xA4 }
  - { offsetInCU: 0x8ECF, offset: 0x8ECF, size: 0x8, addend: 0x0, symName: __ZThn16_NSt3__118basic_stringstreamIcNS_11char_traitsIcEENS_9allocatorIcEEED1Ev, symObjAddr: 0xFB8, symBinAddr: 0x1000021DC, symSize: 0x1C }
  - { offsetInCU: 0x8EE6, offset: 0x8EE6, size: 0x8, addend: 0x0, symName: __ZTv0_n24_NSt3__118basic_stringstreamIcNS_11char_traitsIcEENS_9allocatorIcEEED1Ev, symObjAddr: 0xFD4, symBinAddr: 0x1000021F8, symSize: 0x28 }
  - { offsetInCU: 0x8F02, offset: 0x8F02, size: 0x8, addend: 0x0, symName: __ZNSt3__115basic_stringbufIcNS_11char_traitsIcEENS_9allocatorIcEEED1Ev, symObjAddr: 0xFFC, symBinAddr: 0x100002220, symSize: 0x2C }
  - { offsetInCU: 0x8F2E, offset: 0x8F2E, size: 0x8, addend: 0x0, symName: __ZNSt3__115basic_stringbufIcNS_11char_traitsIcEENS_9allocatorIcEEED2Ev, symObjAddr: 0x1028, symBinAddr: 0x10000224C, symSize: 0x78 }
  - { offsetInCU: 0x8F5A, offset: 0x8F5A, size: 0x8, addend: 0x0, symName: __ZN7StudentD2Ev, symObjAddr: 0x10A0, symBinAddr: 0x1000022C4, symSize: 0x6C }
  - { offsetInCU: 0x8F85, offset: 0x8F85, size: 0x8, addend: 0x0, symName: __ZNSt3__111char_traitsIcE6lengthB8ue170006EPKc, symObjAddr: 0x1300, symBinAddr: 0x100002524, symSize: 0x48 }
  - { offsetInCU: 0x8FC6, offset: 0x8FC6, size: 0x8, addend: 0x0, symName: __ZNKSt3__113basic_ostreamIcNS_11char_traitsIcEEE6sentrycvbB8ue170006Ev, symObjAddr: 0x1348, symBinAddr: 0x10000256C, symSize: 0x1C }
  - { offsetInCU: 0x8FEA, offset: 0x8FEA, size: 0x8, addend: 0x0, symName: __ZNSt3__119ostreambuf_iteratorIcNS_11char_traitsIcEEEC1B8ue170006ERNS_13basic_ostreamIcS2_EE, symObjAddr: 0x15AC, symBinAddr: 0x1000027D0, symSize: 0x34 }
  - { offsetInCU: 0x9021, offset: 0x9021, size: 0x8, addend: 0x0, symName: __ZNKSt3__18ios_base5flagsB8ue170006Ev, symObjAddr: 0x15E0, symBinAddr: 0x100002804, symSize: 0x18 }
  - { offsetInCU: 0x9048, offset: 0x9048, size: 0x8, addend: 0x0, symName: __ZNKSt3__19basic_iosIcNS_11char_traitsIcEEE4fillB8ue170006Ev, symObjAddr: 0x15F8, symBinAddr: 0x10000281C, symSize: 0x64 }
  - { offsetInCU: 0x906F, offset: 0x906F, size: 0x8, addend: 0x0, symName: __ZNKSt3__119ostreambuf_iteratorIcNS_11char_traitsIcEEE6failedB8ue170006Ev, symObjAddr: 0x165C, symBinAddr: 0x100002880, symSize: 0x24 }
  - { offsetInCU: 0x9094, offset: 0x9094, size: 0x8, addend: 0x0, symName: __ZNSt3__19basic_iosIcNS_11char_traitsIcEEE8setstateB8ue170006Ej, symObjAddr: 0x1680, symBinAddr: 0x1000028A4, symSize: 0x2C }
  - { offsetInCU: 0x90C8, offset: 0x90C8, size: 0x8, addend: 0x0, symName: __ZNKSt3__18ios_base5widthB8ue170006Ev, symObjAddr: 0x16AC, symBinAddr: 0x1000028D0, symSize: 0x18 }
  - { offsetInCU: 0x90EF, offset: 0x90EF, size: 0x8, addend: 0x0, symName: __ZNSt3__115basic_streambufIcNS_11char_traitsIcEEE5sputnB8ue170006EPKcl, symObjAddr: 0x16C4, symBinAddr: 0x1000028E8, symSize: 0x3C }
  - { offsetInCU: 0x912F, offset: 0x912F, size: 0x8, addend: 0x0, symName: __ZNSt3__112basic_stringIcNS_11char_traitsIcEENS_9allocatorIcEEEC1B8ue170006Emc, symObjAddr: 0x1700, symBinAddr: 0x100002924, symSize: 0x3C }
  - { offsetInCU: 0x9176, offset: 0x9176, size: 0x8, addend: 0x0, symName: __ZNKSt3__112basic_stringIcNS_11char_traitsIcEENS_9allocatorIcEEE4dataB8ue170006Ev, symObjAddr: 0x173C, symBinAddr: 0x100002960, symSize: 0x28 }
  - { offsetInCU: 0x919B, offset: 0x919B, size: 0x8, addend: 0x0, symName: __ZNSt3__18ios_base5widthB8ue170006El, symObjAddr: 0x1764, symBinAddr: 0x100002988, symSize: 0x2C }
  - { offsetInCU: 0x91DF, offset: 0x91DF, size: 0x8, addend: 0x0, symName: __ZNSt3__112basic_stringIcNS_11char_traitsIcEENS_9allocatorIcEEEC2B8ue170006Emc, symObjAddr: 0x1790, symBinAddr: 0x1000029B4, symSize: 0x4C }
  - { offsetInCU: 0x922A, offset: 0x922A, size: 0x8, addend: 0x0, symName: __ZNSt3__117__compressed_pairINS_12basic_stringIcNS_11char_traitsIcEENS_9allocatorIcEEE5__repES5_EC1B8ue170006INS_18__default_init_tagESA_EEOT_OT0_, symObjAddr: 0x17DC, symBinAddr: 0x100002A00, symSize: 0x3C }
  - { offsetInCU: 0x9280, offset: 0x9280, size: 0x8, addend: 0x0, symName: __ZNSt3__117__compressed_pairINS_12basic_stringIcNS_11char_traitsIcEENS_9allocatorIcEEE5__repES5_EC2B8ue170006INS_18__default_init_tagESA_EEOT_OT0_, symObjAddr: 0x1818, symBinAddr: 0x100002A3C, symSize: 0x3C }
  - { offsetInCU: 0x92D7, offset: 0x92D7, size: 0x8, addend: 0x0, symName: __ZNSt3__122__compressed_pair_elemINS_12basic_stringIcNS_11char_traitsIcEENS_9allocatorIcEEE5__repELi0ELb0EEC2B8ue170006ENS_18__default_init_tagE, symObjAddr: 0x1854, symBinAddr: 0x100002A78, symSize: 0x14 }
  - { offsetInCU: 0x930A, offset: 0x930A, size: 0x8, addend: 0x0, symName: __ZNSt3__122__compressed_pair_elemINS_9allocatorIcEELi1ELb1EEC2B8ue170006ENS_18__default_init_tagE, symObjAddr: 0x1868, symBinAddr: 0x100002A8C, symSize: 0x2C }
  - { offsetInCU: 0x933D, offset: 0x933D, size: 0x8, addend: 0x0, symName: __ZNSt3__19allocatorIcEC2B8ue170006Ev, symObjAddr: 0x1894, symBinAddr: 0x100002AB8, symSize: 0x2C }
  - { offsetInCU: 0x9366, offset: 0x9366, size: 0x8, addend: 0x0, symName: __ZNSt3__116__non_trivial_ifILb1ENS_9allocatorIcEEEC2B8ue170006Ev, symObjAddr: 0x18C0, symBinAddr: 0x100002AE4, symSize: 0x14 }
  - { offsetInCU: 0x938F, offset: 0x938F, size: 0x8, addend: 0x0, symName: __ZNKSt3__112basic_stringIcNS_11char_traitsIcEENS_9allocatorIcEEE13__get_pointerB8ue170006Ev, symObjAddr: 0x18E8, symBinAddr: 0x100002B0C, symSize: 0x54 }
  - { offsetInCU: 0x93B4, offset: 0x93B4, size: 0x8, addend: 0x0, symName: __ZNKSt3__112basic_stringIcNS_11char_traitsIcEENS_9allocatorIcEEE9__is_longB8ue170006Ev, symObjAddr: 0x193C, symBinAddr: 0x100002B60, symSize: 0x74 }
  - { offsetInCU: 0x93D9, offset: 0x93D9, size: 0x8, addend: 0x0, symName: __ZNKSt3__112basic_stringIcNS_11char_traitsIcEENS_9allocatorIcEEE18__get_long_pointerB8ue170006Ev, symObjAddr: 0x19B0, symBinAddr: 0x100002BD4, symSize: 0x28 }
  - { offsetInCU: 0x93FE, offset: 0x93FE, size: 0x8, addend: 0x0, symName: __ZNKSt3__112basic_stringIcNS_11char_traitsIcEENS_9allocatorIcEEE19__get_short_pointerB8ue170006Ev, symObjAddr: 0x19D8, symBinAddr: 0x100002BFC, symSize: 0x28 }
  - { offsetInCU: 0x9423, offset: 0x9423, size: 0x8, addend: 0x0, symName: __ZNKSt3__117__compressed_pairINS_12basic_stringIcNS_11char_traitsIcEENS_9allocatorIcEEE5__repES5_E5firstB8ue170006Ev, symObjAddr: 0x1A0C, symBinAddr: 0x100002C30, symSize: 0x24 }
  - { offsetInCU: 0x9448, offset: 0x9448, size: 0x8, addend: 0x0, symName: __ZNKSt3__122__compressed_pair_elemINS_12basic_stringIcNS_11char_traitsIcEENS_9allocatorIcEEE5__repELi0ELb0EE5__getB8ue170006Ev, symObjAddr: 0x1A30, symBinAddr: 0x100002C54, symSize: 0x14 }
  - { offsetInCU: 0x946D, offset: 0x946D, size: 0x8, addend: 0x0, symName: __ZNSt3__114pointer_traitsIPKcE10pointer_toB8ue170006ERS1_, symObjAddr: 0x1A44, symBinAddr: 0x100002C68, symSize: 0x14 }
  - { offsetInCU: 0x948F, offset: 0x948F, size: 0x8, addend: 0x0, symName: __ZNSt3__119ostreambuf_iteratorIcNS_11char_traitsIcEEEC2B8ue170006ERNS_13basic_ostreamIcS2_EE, symObjAddr: 0x1A58, symBinAddr: 0x100002C7C, symSize: 0x68 }
  - { offsetInCU: 0x94C6, offset: 0x94C6, size: 0x8, addend: 0x0, symName: __ZNKSt3__19basic_iosIcNS_11char_traitsIcEEE5rdbufB8ue170006Ev, symObjAddr: 0x1AC0, symBinAddr: 0x100002CE4, symSize: 0x24 }
  - { offsetInCU: 0x94ED, offset: 0x94ED, size: 0x8, addend: 0x0, symName: __ZNKSt3__18ios_base5rdbufB8ue170006Ev, symObjAddr: 0x1AE4, symBinAddr: 0x100002D08, symSize: 0x18 }
  - { offsetInCU: 0x9512, offset: 0x9512, size: 0x8, addend: 0x0, symName: __ZNSt3__111char_traitsIcE11eq_int_typeB8ue170006Eii, symObjAddr: 0x1AFC, symBinAddr: 0x100002D20, symSize: 0x28 }
  - { offsetInCU: 0x9545, offset: 0x9545, size: 0x8, addend: 0x0, symName: __ZNKSt3__19basic_iosIcNS_11char_traitsIcEEE5widenB8ue170006Ec, symObjAddr: 0x1B24, symBinAddr: 0x100002D48, symSize: 0x8C }
  - { offsetInCU: 0x95A8, offset: 0x95A8, size: 0x8, addend: 0x0, symName: __ZNKSt3__15ctypeIcE5widenB8ue170006Ec, symObjAddr: 0x1BDC, symBinAddr: 0x100002E00, symSize: 0x38 }
  - { offsetInCU: 0x95DC, offset: 0x95DC, size: 0x8, addend: 0x0, symName: __ZNSt3__18ios_base8setstateB8ue170006Ej, symObjAddr: 0x1C14, symBinAddr: 0x100002E38, symSize: 0x34 }
  - { offsetInCU: 0x9612, offset: 0x9612, size: 0x8, addend: 0x0, symName: __ZNKSt3__112basic_stringIcNS_11char_traitsIcEENS_9allocatorIcEEE4sizeB8ue170006Ev, symObjAddr: 0x1C6C, symBinAddr: 0x100002E90, symSize: 0x54 }
  - { offsetInCU: 0x9637, offset: 0x9637, size: 0x8, addend: 0x0, symName: __ZNKSt3__112basic_stringIcNS_11char_traitsIcEENS_9allocatorIcEEE15__get_long_sizeB8ue170006Ev, symObjAddr: 0x1CC0, symBinAddr: 0x100002EE4, symSize: 0x28 }
  - { offsetInCU: 0x965C, offset: 0x965C, size: 0x8, addend: 0x0, symName: __ZNKSt3__112basic_stringIcNS_11char_traitsIcEENS_9allocatorIcEEE16__get_short_sizeB8ue170006Ev, symObjAddr: 0x1CE8, symBinAddr: 0x100002F0C, symSize: 0x34 }
  - { offsetInCU: 0x9680, offset: 0x9680, size: 0x8, addend: 0x0, symName: __ZNSt3__112basic_stringIcNS_11char_traitsIcEENS_9allocatorIcEEEC2B8ue170006Ev, symObjAddr: 0x1D1C, symBinAddr: 0x100002F40, symSize: 0x3C }
  - { offsetInCU: 0x96A9, offset: 0x96A9, size: 0x8, addend: 0x0, symName: __ZNSt3__112basic_stringIcNS_11char_traitsIcEENS_9allocatorIcEEE14__default_initB8ue170006Ev, symObjAddr: 0x1D58, symBinAddr: 0x100002F7C, symSize: 0xB0 }
  - { offsetInCU: 0x96FB, offset: 0x96FB, size: 0x8, addend: 0x0, symName: __ZNSt3__117__compressed_pairINS_12basic_stringIcNS_11char_traitsIcEENS_9allocatorIcEEE5__repES5_E5firstB8ue170006Ev, symObjAddr: 0x1E08, symBinAddr: 0x10000302C, symSize: 0x24 }
  - { offsetInCU: 0x9720, offset: 0x9720, size: 0x8, addend: 0x0, symName: __ZNSt3__112basic_stringIcNS_11char_traitsIcEENS_9allocatorIcEEE11__recommendB8ue170006Em, symObjAddr: 0x1E2C, symBinAddr: 0x100003050, symSize: 0x9C }
  - { offsetInCU: 0x9753, offset: 0x9753, size: 0x8, addend: 0x0, symName: __ZNSt3__116allocator_traitsINS_9allocatorIcEEE8allocateB8ue170006ERS2_m, symObjAddr: 0x1EC8, symBinAddr: 0x1000030EC, symSize: 0x2C }
  - { offsetInCU: 0x9786, offset: 0x9786, size: 0x8, addend: 0x0, symName: __ZNSt3__112basic_stringIcNS_11char_traitsIcEENS_9allocatorIcEEE7__allocB8ue170006Ev, symObjAddr: 0x1EF4, symBinAddr: 0x100003118, symSize: 0x24 }
  - { offsetInCU: 0x97AB, offset: 0x97AB, size: 0x8, addend: 0x0, symName: __ZNSt3__112basic_stringIcNS_11char_traitsIcEENS_9allocatorIcEEE16__begin_lifetimeB8ue170006EPcm, symObjAddr: 0x1F18, symBinAddr: 0x10000313C, symSize: 0x14 }
  - { offsetInCU: 0x97DE, offset: 0x97DE, size: 0x8, addend: 0x0, symName: __ZNSt3__112basic_stringIcNS_11char_traitsIcEENS_9allocatorIcEEE18__set_long_pointerB8ue170006EPc, symObjAddr: 0x1F2C, symBinAddr: 0x100003150, symSize: 0x38 }
  - { offsetInCU: 0x9812, offset: 0x9812, size: 0x8, addend: 0x0, symName: __ZNSt3__112basic_stringIcNS_11char_traitsIcEENS_9allocatorIcEEE14__set_long_capB8ue170006Em, symObjAddr: 0x1F64, symBinAddr: 0x100003188, symSize: 0x70 }
  - { offsetInCU: 0x9846, offset: 0x9846, size: 0x8, addend: 0x0, symName: __ZNSt3__112basic_stringIcNS_11char_traitsIcEENS_9allocatorIcEEE15__set_long_sizeB8ue170006Em, symObjAddr: 0x1FD4, symBinAddr: 0x1000031F8, symSize: 0x38 }
  - { offsetInCU: 0x987A, offset: 0x987A, size: 0x8, addend: 0x0, symName: __ZNSt3__122__compressed_pair_elemINS_12basic_stringIcNS_11char_traitsIcEENS_9allocatorIcEEE5__repELi0ELb0EE5__getB8ue170006Ev, symObjAddr: 0x200C, symBinAddr: 0x100003230, symSize: 0x14 }
  - { offsetInCU: 0x989F, offset: 0x989F, size: 0x8, addend: 0x0, symName: __ZNSt3__112basic_stringIcNS_11char_traitsIcEENS_9allocatorIcEEE10__align_itB8ue170006ILm16EEEmm, symObjAddr: 0x2020, symBinAddr: 0x100003244, symSize: 0x1C }
  - { offsetInCU: 0x98CD, offset: 0x98CD, size: 0x8, addend: 0x0, symName: __ZNSt3__19allocatorIcE8allocateB8ue170006Em, symObjAddr: 0x203C, symBinAddr: 0x100003260, symSize: 0x84 }
  - { offsetInCU: 0x990A, offset: 0x990A, size: 0x8, addend: 0x0, symName: __ZNSt3__116allocator_traitsINS_9allocatorIcEEE8max_sizeB8ue170006IS2_vEEmRKS2_, symObjAddr: 0x20C0, symBinAddr: 0x1000032E4, symSize: 0x24 }
  - { offsetInCU: 0x9938, offset: 0x9938, size: 0x8, addend: 0x0, symName: __ZNKSt3__19allocatorIcE8max_sizeB8ue170006Ev, symObjAddr: 0x2140, symBinAddr: 0x100003364, symSize: 0x14 }
  - { offsetInCU: 0x995D, offset: 0x995D, size: 0x8, addend: 0x0, symName: __ZNSt3__117__compressed_pairINS_12basic_stringIcNS_11char_traitsIcEENS_9allocatorIcEEE5__repES5_E6secondB8ue170006Ev, symObjAddr: 0x2178, symBinAddr: 0x10000339C, symSize: 0x24 }
  - { offsetInCU: 0x9982, offset: 0x9982, size: 0x8, addend: 0x0, symName: __ZNSt3__122__compressed_pair_elemINS_9allocatorIcEELi1ELb1EE5__getB8ue170006Ev, symObjAddr: 0x219C, symBinAddr: 0x1000033C0, symSize: 0x14 }
  - { offsetInCU: 0x99C5, offset: 0x99C5, size: 0x8, addend: 0x0, symName: __ZNKSt3__113basic_istreamIcNS_11char_traitsIcEEE6sentrycvbB8ue170006Ev, symObjAddr: 0x21B0, symBinAddr: 0x1000033D4, symSize: 0x1C }
  - { offsetInCU: 0x99EA, offset: 0x99EA, size: 0x8, addend: 0x0, symName: __ZNSt3__112basic_stringIcNS_11char_traitsIcEENS_9allocatorIcEEE5clearB8ue170006Ev, symObjAddr: 0x21CC, symBinAddr: 0x1000033F0, symSize: 0x78 }
  - { offsetInCU: 0x9A11, offset: 0x9A11, size: 0x8, addend: 0x0, symName: __ZNKSt3__112basic_stringIcNS_11char_traitsIcEENS_9allocatorIcEEE8max_sizeB8ue170006Ev, symObjAddr: 0x2244, symBinAddr: 0x100003468, symSize: 0xAC }
  - { offsetInCU: 0x9A63, offset: 0x9A63, size: 0x8, addend: 0x0, symName: __ZNSt3__114numeric_limitsIlE3maxB8ue170006Ev, symObjAddr: 0x22F0, symBinAddr: 0x100003514, symSize: 0x14 }
  - { offsetInCU: 0x9A77, offset: 0x9A77, size: 0x8, addend: 0x0, symName: __ZNSt3__115basic_streambufIcNS_11char_traitsIcEEE5sgetcB8ue170006Ev, symObjAddr: 0x2304, symBinAddr: 0x100003528, symSize: 0x70 }
  - { offsetInCU: 0x9A9C, offset: 0x9A9C, size: 0x8, addend: 0x0, symName: __ZNSt3__111char_traitsIcE12to_char_typeB8ue170006Ei, symObjAddr: 0x2374, symBinAddr: 0x100003598, symSize: 0x18 }
  - { offsetInCU: 0x9ABF, offset: 0x9ABF, size: 0x8, addend: 0x0, symName: __ZNKSt3__15ctypeIcE2isB8ue170006Ejc, symObjAddr: 0x238C, symBinAddr: 0x1000035B0, symSize: 0x7C }
  - { offsetInCU: 0x9B02, offset: 0x9B02, size: 0x8, addend: 0x0, symName: __ZNSt3__115basic_streambufIcNS_11char_traitsIcEEE6sbumpcB8ue170006Ev, symObjAddr: 0x2408, symBinAddr: 0x10000362C, symSize: 0x78 }
  - { offsetInCU: 0x9B27, offset: 0x9B27, size: 0x8, addend: 0x0, symName: __ZNSt3__18ios_base18__setstate_nothrowB8ue170006Ej, symObjAddr: 0x2480, symBinAddr: 0x1000036A4, symSize: 0x64 }
  - { offsetInCU: 0x9B5B, offset: 0x9B5B, size: 0x8, addend: 0x0, symName: __ZNKSt3__19basic_iosIcNS_11char_traitsIcEEE10exceptionsB8ue170006Ev, symObjAddr: 0x24E4, symBinAddr: 0x100003708, symSize: 0x24 }
  - { offsetInCU: 0x9B80, offset: 0x9B80, size: 0x8, addend: 0x0, symName: __ZNSt3__111char_traitsIcE6assignB8ue170006ERcRKc, symObjAddr: 0x2508, symBinAddr: 0x10000372C, symSize: 0x24 }
  - { offsetInCU: 0x9BB1, offset: 0x9BB1, size: 0x8, addend: 0x0, symName: __ZNSt3__112basic_stringIcNS_11char_traitsIcEENS_9allocatorIcEEE18__get_long_pointerB8ue170006Ev, symObjAddr: 0x252C, symBinAddr: 0x100003750, symSize: 0x28 }
  - { offsetInCU: 0x9BD6, offset: 0x9BD6, size: 0x8, addend: 0x0, symName: __ZNSt3__112basic_stringIcNS_11char_traitsIcEENS_9allocatorIcEEE19__get_short_pointerB8ue170006Ev, symObjAddr: 0x2554, symBinAddr: 0x100003778, symSize: 0x28 }
  - { offsetInCU: 0x9BFB, offset: 0x9BFB, size: 0x8, addend: 0x0, symName: __ZNSt3__112basic_stringIcNS_11char_traitsIcEENS_9allocatorIcEEE16__set_short_sizeB8ue170006Em, symObjAddr: 0x257C, symBinAddr: 0x1000037A0, symSize: 0x78 }
  - { offsetInCU: 0x9C2F, offset: 0x9C2F, size: 0x8, addend: 0x0, symName: __ZNSt3__114pointer_traitsIPcE10pointer_toB8ue170006ERc, symObjAddr: 0x25F4, symBinAddr: 0x100003818, symSize: 0x14 }
  - { offsetInCU: 0x9C52, offset: 0x9C52, size: 0x8, addend: 0x0, symName: __ZNKSt3__112basic_stringIcNS_11char_traitsIcEENS_9allocatorIcEEE7__allocB8ue170006Ev, symObjAddr: 0x2608, symBinAddr: 0x10000382C, symSize: 0x24 }
  - { offsetInCU: 0x9C77, offset: 0x9C77, size: 0x8, addend: 0x0, symName: __ZNSt3__114numeric_limitsImE3maxB8ue170006Ev, symObjAddr: 0x262C, symBinAddr: 0x100003850, symSize: 0x14 }
  - { offsetInCU: 0x9C8B, offset: 0x9C8B, size: 0x8, addend: 0x0, symName: __ZNKSt3__117__compressed_pairINS_12basic_stringIcNS_11char_traitsIcEENS_9allocatorIcEEE5__repES5_E6secondB8ue170006Ev, symObjAddr: 0x2640, symBinAddr: 0x100003864, symSize: 0x24 }
  - { offsetInCU: 0x9CB0, offset: 0x9CB0, size: 0x8, addend: 0x0, symName: __ZNKSt3__122__compressed_pair_elemINS_9allocatorIcEELi1ELb1EE5__getB8ue170006Ev, symObjAddr: 0x2664, symBinAddr: 0x100003888, symSize: 0x14 }
  - { offsetInCU: 0x9CD5, offset: 0x9CD5, size: 0x8, addend: 0x0, symName: __ZNSt3__123__libcpp_numeric_limitsImLb1EE3maxB8ue170006Ev, symObjAddr: 0x2678, symBinAddr: 0x10000389C, symSize: 0x8 }
  - { offsetInCU: 0x9CE9, offset: 0x9CE9, size: 0x8, addend: 0x0, symName: __ZNSt3__123__libcpp_numeric_limitsIlLb1EE3maxB8ue170006Ev, symObjAddr: 0x2680, symBinAddr: 0x1000038A4, symSize: 0x8 }
  - { offsetInCU: 0x9CFD, offset: 0x9CFD, size: 0x8, addend: 0x0, symName: __ZNSt3__111char_traitsIcE11to_int_typeB8ue170006Ec, symObjAddr: 0x2688, symBinAddr: 0x1000038AC, symSize: 0x14 }
  - { offsetInCU: 0x9D20, offset: 0x9D20, size: 0x8, addend: 0x0, symName: __Z7isasciii, symObjAddr: 0x269C, symBinAddr: 0x1000038C0, symSize: 0x24 }
  - { offsetInCU: 0x9D4D, offset: 0x9D4D, size: 0x8, addend: 0x0, symName: __ZNKSt3__18ios_base10exceptionsB8ue170006Ev, symObjAddr: 0x26C0, symBinAddr: 0x1000038E4, symSize: 0x18 }
...
