---
triple:          'arm64-apple-darwin'
binary-path:     '/Users/kajalbormon/Developer/Code/HakerRank/deque/output/dequeH'
relocations:
  - { offsetInCU: 0x513C, offset: 0x513C, size: 0x8, addend: 0x0, symName: __ZNSt3__124__put_character_sequenceB8ue170006IcNS_11char_traitsIcEEEERNS_13basic_ostreamIT_T0_EES7_PKS4_m, symObjAddr: 0x4C64, symBinAddr: 0x100006C80, symSize: 0x1F4 }
  - { offsetInCU: 0x6A89, offset: 0x6A89, size: 0x8, addend: 0x0, symName: __ZNSt3__1lsB8ue170006INS_11char_traitsIcEEEERNS_13basic_ostreamIcT_EES6_PKc, symObjAddr: 0x560, symBinAddr: 0x10000257C, symSize: 0x48 }
  - { offsetInCU: 0x6ACF, offset: 0x6ACF, size: 0x8, addend: 0x0, symName: __ZNSt3__14endlB8ue170006IcNS_11char_traitsIcEEEERNS_13basic_ostreamIT_T0_EES7_, symObjAddr: 0x5D4, symBinAddr: 0x1000025F0, symSize: 0x58 }
  - { offsetInCU: 0x6B0F, offset: 0x6B0F, size: 0x8, addend: 0x0, symName: __ZNSt3__112__to_addressB8ue170006IiEEPT_S2_, symObjAddr: 0x11A0, symBinAddr: 0x1000031BC, symSize: 0x14 }
  - { offsetInCU: 0x6B44, offset: 0x6B44, size: 0x8, addend: 0x0, symName: __ZNSt3__112__to_addressB8ue170006IPiEEPT_S3_, symObjAddr: 0x146C, symBinAddr: 0x100003488, symSize: 0x14 }
  - { offsetInCU: 0x6B79, offset: 0x6B79, size: 0x8, addend: 0x0, symName: __ZNSt3__130__libcpp_is_constant_evaluatedB8ue170006Ev, symObjAddr: 0x1504, symBinAddr: 0x100003520, symSize: 0xC }
  - { offsetInCU: 0x6B96, offset: 0x6B96, size: 0x8, addend: 0x0, symName: __ZNSt3__119__libcpp_deallocateB8ue170006EPvmm, symObjAddr: 0x1510, symBinAddr: 0x10000352C, symSize: 0x30 }
  - { offsetInCU: 0x6BDE, offset: 0x6BDE, size: 0x8, addend: 0x0, symName: __ZNSt3__127__do_deallocate_handle_sizeB8ue170006IJEEEvPvmDpT_, symObjAddr: 0x1540, symBinAddr: 0x10000355C, symSize: 0x28 }
  - { offsetInCU: 0x6C1C, offset: 0x6C1C, size: 0x8, addend: 0x0, symName: __ZNSt3__124__libcpp_operator_deleteB8ue170006IJPvEEEvDpT_, symObjAddr: 0x1568, symBinAddr: 0x100003584, symSize: 0x24 }
  - { offsetInCU: 0x6C51, offset: 0x6C51, size: 0x8, addend: 0x0, symName: __ZNSt3__1neB8ue170006ERKNS_16__deque_iteratorIiPiRiPS1_lLl1024EEES6_, symObjAddr: 0x1B58, symBinAddr: 0x100003B74, symSize: 0x34 }
  - { offsetInCU: 0x6C8E, offset: 0x6C8E, size: 0x8, addend: 0x0, symName: __ZNSt3__1eqB8ue170006ERKNS_16__deque_iteratorIiPiRiPS1_lLl1024EEES6_, symObjAddr: 0x1D3C, symBinAddr: 0x100003D58, symSize: 0x30 }
  - { offsetInCU: 0x6CCB, offset: 0x6CCB, size: 0x8, addend: 0x0, symName: __ZNSt3__13maxB8ue170006ImEERKT_S3_S3_, symObjAddr: 0x2F78, symBinAddr: 0x100004F94, symSize: 0x2C }
  - { offsetInCU: 0x7197, offset: 0x7197, size: 0x8, addend: 0x0, symName: __ZNSt3__14swapB8ue170006IPPiEEvRT_S4_, symObjAddr: 0x35A8, symBinAddr: 0x1000055C4, symSize: 0x3C }
  - { offsetInCU: 0x71E8, offset: 0x71E8, size: 0x8, addend: 0x0, symName: __ZNSt3__14moveB8ue170006IPPiS2_EET0_T_S4_S3_, symObjAddr: 0x368C, symBinAddr: 0x1000056A8, symSize: 0x40 }
  - { offsetInCU: 0x725E, offset: 0x725E, size: 0x8, addend: 0x0, symName: __ZNSt3__16__moveB8ue170006INS_17_ClassicAlgPolicyEPPiS3_S3_EENS_4pairIT0_T2_EES5_T1_S6_, symObjAddr: 0x3794, symBinAddr: 0x1000057B0, symSize: 0x44 }
  - { offsetInCU: 0x72CA, offset: 0x72CA, size: 0x8, addend: 0x0, symName: __ZNSt3__123__dispatch_copy_or_moveB8ue170006INS_17_ClassicAlgPolicyENS_11__move_loopIS1_EENS_14__move_trivialEPPiS6_S6_EENS_4pairIT2_T4_EES8_T3_S9_, symObjAddr: 0x37D8, symBinAddr: 0x1000057F4, symSize: 0x44 }
  - { offsetInCU: 0x7348, offset: 0x7348, size: 0x8, addend: 0x0, symName: __ZNSt3__121__unwrap_and_dispatchB8ue170006INS_10__overloadINS_11__move_loopINS_17_ClassicAlgPolicyEEENS_14__move_trivialEEEPPiS8_S8_Li0EEENS_4pairIT0_T2_EESA_T1_SB_, symObjAddr: 0x381C, symBinAddr: 0x100005838, symSize: 0xB4 }
  - { offsetInCU: 0x73D6, offset: 0x73D6, size: 0x8, addend: 0x0, symName: __ZNSt3__114__unwrap_rangeB8ue170006IPPiS2_EENS_4pairIT0_S4_EET_S6_, symObjAddr: 0x38D0, symBinAddr: 0x1000058EC, symSize: 0x60 }
  - { offsetInCU: 0x7515, offset: 0x7515, size: 0x8, addend: 0x0, symName: __ZNSt3__113__unwrap_iterB8ue170006IPPiNS_18__unwrap_iter_implIS2_Lb1EEELi0EEEDTclsrT0_8__unwrapclsr3stdE7declvalIT_EEEES6_, symObjAddr: 0x3978, symBinAddr: 0x100005994, symSize: 0x24 }
  - { offsetInCU: 0x7559, offset: 0x7559, size: 0x8, addend: 0x0, symName: __ZNSt3__19make_pairB8ue170006IPPiS2_EENS_4pairINS_18__unwrap_ref_decayIT_E4typeENS4_IT0_E4typeEEEOS5_OS8_, symObjAddr: 0x399C, symBinAddr: 0x1000059B8, symSize: 0x38 }
  - { offsetInCU: 0x75A8, offset: 0x75A8, size: 0x8, addend: 0x0, symName: __ZNSt3__114__rewrap_rangeB8ue170006IPPiS2_EET_S3_T0_, symObjAddr: 0x39D4, symBinAddr: 0x1000059F0, symSize: 0x2C }
  - { offsetInCU: 0x75F4, offset: 0x75F4, size: 0x8, addend: 0x0, symName: __ZNSt3__113__rewrap_iterB8ue170006IPPiS2_NS_18__unwrap_iter_implIS2_Lb1EEEEET_S5_T0_, symObjAddr: 0x3A00, symBinAddr: 0x100005A1C, symSize: 0x50 }
  - { offsetInCU: 0x7649, offset: 0x7649, size: 0x8, addend: 0x0, symName: __ZNSt3__119__copy_trivial_implB8ue170006IPiS1_EENS_4pairIPT_PT0_EES4_S4_S6_, symObjAddr: 0x3A50, symBinAddr: 0x100005A6C, symSize: 0x80 }
  - { offsetInCU: 0x76B1, offset: 0x76B1, size: 0x8, addend: 0x0, symName: __ZNSt3__119__constexpr_memmoveB8ue170006IPiS1_Li0EEEPT_S3_PT0_NS_15__element_countE, symObjAddr: 0x3AD0, symBinAddr: 0x100005AEC, symSize: 0xA0 }
  - { offsetInCU: 0x771F, offset: 0x771F, size: 0x8, addend: 0x0, symName: __ZNSt3__19make_pairB8ue170006IRPPiS2_EENS_4pairINS_18__unwrap_ref_decayIT_E4typeENS5_IT0_E4typeEEEOS6_OS9_, symObjAddr: 0x3B70, symBinAddr: 0x100005B8C, symSize: 0x38 }
  - { offsetInCU: 0x77C1, offset: 0x77C1, size: 0x8, addend: 0x0, symName: __ZNSt3__18distanceB8ue170006INS_13move_iteratorIPPiEEEENS_15iterator_traitsIT_E15difference_typeES6_S6_, symObjAddr: 0x3D70, symBinAddr: 0x100005D8C, symSize: 0x3C }
  - { offsetInCU: 0x7804, offset: 0x7804, size: 0x8, addend: 0x0, symName: __ZNSt3__110__distanceB8ue170006INS_13move_iteratorIPPiEEEENS_15iterator_traitsIT_E15difference_typeES6_S6_NS_26random_access_iterator_tagE, symObjAddr: 0x3F74, symBinAddr: 0x100005F90, symSize: 0x30 }
  - { offsetInCU: 0x7851, offset: 0x7851, size: 0x8, addend: 0x0, symName: __ZNSt3__1miB8ue170006IPPiS2_EENS_13move_iteratorIT_E15difference_typeERKS5_RKNS3_IT0_EE, symObjAddr: 0x3FA4, symBinAddr: 0x100005FC0, symSize: 0x48 }
  - { offsetInCU: 0x78A0, offset: 0x78A0, size: 0x8, addend: 0x0, symName: __ZNSt3__117__libcpp_allocateB8ue170006Emm, symObjAddr: 0x4128, symBinAddr: 0x100006144, symSize: 0x28 }
  - { offsetInCU: 0x78DD, offset: 0x78DD, size: 0x8, addend: 0x0, symName: __ZNSt3__121__libcpp_operator_newB8ue170006IJmEEEPvDpT_, symObjAddr: 0x4164, symBinAddr: 0x100006180, symSize: 0x24 }
  - { offsetInCU: 0x7916, offset: 0x7916, size: 0x8, addend: 0x0, symName: __ZNSt3__113move_backwardB8ue170006IPPiS2_EET0_T_S4_S3_, symObjAddr: 0x4188, symBinAddr: 0x1000061A4, symSize: 0x40 }
  - { offsetInCU: 0x7970, offset: 0x7970, size: 0x8, addend: 0x0, symName: __ZNSt3__115__move_backwardB8ue170006INS_17_ClassicAlgPolicyEPPiS3_S3_EENS_4pairIT0_T2_EES5_T1_S6_, symObjAddr: 0x41C8, symBinAddr: 0x1000061E4, symSize: 0x44 }
  - { offsetInCU: 0x79DC, offset: 0x79DC, size: 0x8, addend: 0x0, symName: __ZNSt3__123__dispatch_copy_or_moveB8ue170006INS_17_ClassicAlgPolicyENS_20__move_backward_loopIS1_EENS_23__move_backward_trivialEPPiS6_S6_EENS_4pairIT2_T4_EES8_T3_S9_, symObjAddr: 0x420C, symBinAddr: 0x100006228, symSize: 0x44 }
  - { offsetInCU: 0x7A5A, offset: 0x7A5A, size: 0x8, addend: 0x0, symName: __ZNSt3__121__unwrap_and_dispatchB8ue170006INS_10__overloadINS_20__move_backward_loopINS_17_ClassicAlgPolicyEEENS_23__move_backward_trivialEEEPPiS8_S8_Li0EEENS_4pairIT0_T2_EESA_T1_SB_, symObjAddr: 0x4250, symBinAddr: 0x10000626C, symSize: 0xB4 }
  - { offsetInCU: 0x7B2E, offset: 0x7B2E, size: 0x8, addend: 0x0, symName: __ZNSt3__128__copy_backward_trivial_implB8ue170006IPiS1_EENS_4pairIPT_PT0_EES4_S4_S6_, symObjAddr: 0x434C, symBinAddr: 0x100006368, symSize: 0x90 }
  - { offsetInCU: 0x7B96, offset: 0x7B96, size: 0x8, addend: 0x0, symName: __ZNSt3__19make_pairB8ue170006IRPPiS3_EENS_4pairINS_18__unwrap_ref_decayIT_E4typeENS5_IT0_E4typeEEEOS6_OS9_, symObjAddr: 0x43DC, symBinAddr: 0x1000063F8, symSize: 0x38 }
  - { offsetInCU: 0x7BE5, offset: 0x7BE5, size: 0x8, addend: 0x0, symName: __ZNSt3__13maxB8ue170006ImNS_6__lessIvvEEEERKT_S5_S5_T0_, symObjAddr: 0x4414, symBinAddr: 0x100006430, symSize: 0x54 }
  - { offsetInCU: 0x7C84, offset: 0x7C84, size: 0x8, addend: 0x0, symName: __ZNSt3__119__allocate_at_leastB8ue170006INS_9allocatorIPiEEEENS_19__allocation_resultINS_16allocator_traitsIT_E7pointerEEERS6_m, symObjAddr: 0x45AC, symBinAddr: 0x1000065C8, symSize: 0x40 }
  - { offsetInCU: 0x7CC7, offset: 0x7CC7, size: 0x8, addend: 0x0, symName: __ZNSt3__116__pad_and_outputB8ue170006IcNS_11char_traitsIcEEEENS_19ostreambuf_iteratorIT_T0_EES6_PKS4_S8_S8_RNS_8ios_baseES4_, symObjAddr: 0x4EBC, symBinAddr: 0x100006ED8, symSize: 0x248 }
  - { offsetInCU: 0x7D96, offset: 0x7D96, size: 0x8, addend: 0x0, symName: __ZNSt3__112__to_addressB8ue170006IKcEEPT_S3_, symObjAddr: 0x542C, symBinAddr: 0x100007448, symSize: 0x14 }
  - { offsetInCU: 0x7DFE, offset: 0x7DFE, size: 0x8, addend: 0x0, symName: __ZNSt3__19use_facetB8ue170006INS_5ctypeIcEEEERKT_RKNS_6localeE, symObjAddr: 0x5704, symBinAddr: 0x100007720, symSize: 0x2C }
  - { offsetInCU: 0x82CB, offset: 0x82CB, size: 0x8, addend: 0x0, symName: __ZNSt3__118__constexpr_strlenB8ue170006EPKc, symObjAddr: 0x579C, symBinAddr: 0x1000077B8, symSize: 0x24 }
  - { offsetInCU: 0x8408, offset: 0x8408, size: 0x8, addend: 0x0, symName: __ZSt28__throw_bad_array_new_lengthB8ue170006v, symObjAddr: 0x40F4, symBinAddr: 0x100006110, symSize: 0x34 }
  - { offsetInCU: 0xAC3B, offset: 0xAC3B, size: 0x8, addend: 0x0, symName: __Z9printKMaxPiii, symObjAddr: 0x0, symBinAddr: 0x10000201C, symSize: 0x1EC }
  - { offsetInCU: 0xACA3, offset: 0xACA3, size: 0x8, addend: 0x0, symName: __ZNSt3__15dequeIiNS_9allocatorIiEEEC1B8ue170006Ev, symObjAddr: 0x1EC, symBinAddr: 0x100002208, symSize: 0x2C }
  - { offsetInCU: 0xACCD, offset: 0xACCD, size: 0x8, addend: 0x0, symName: __ZNKSt3__15dequeIiNS_9allocatorIiEEE5emptyB8ue170006Ev, symObjAddr: 0x218, symBinAddr: 0x100002234, symSize: 0x30 }
  - { offsetInCU: 0xACF3, offset: 0xACF3, size: 0x8, addend: 0x0, symName: __ZNSt3__15dequeIiNS_9allocatorIiEEE5frontEv, symObjAddr: 0x248, symBinAddr: 0x100002264, symSize: 0x50 }
  - { offsetInCU: 0xAD1B, offset: 0xAD1B, size: 0x8, addend: 0x0, symName: __ZNSt3__15dequeIiNS_9allocatorIiEEE9pop_frontEv, symObjAddr: 0x298, symBinAddr: 0x1000022B4, symSize: 0xD4 }
  - { offsetInCU: 0xAD70, offset: 0xAD70, size: 0x8, addend: 0x0, symName: __ZNSt3__15dequeIiNS_9allocatorIiEEE4backEv, symObjAddr: 0x36C, symBinAddr: 0x100002388, symSize: 0x68 }
  - { offsetInCU: 0xADA7, offset: 0xADA7, size: 0x8, addend: 0x0, symName: __ZNSt3__15dequeIiNS_9allocatorIiEEE8pop_backEv, symObjAddr: 0x3D4, symBinAddr: 0x1000023F0, symSize: 0xE0 }
  - { offsetInCU: 0xAE0B, offset: 0xAE0B, size: 0x8, addend: 0x0, symName: __ZNSt3__15dequeIiNS_9allocatorIiEEE9push_backERKi, symObjAddr: 0x4B4, symBinAddr: 0x1000024D0, symSize: 0xAC }
  - { offsetInCU: 0xAE51, offset: 0xAE51, size: 0x8, addend: 0x0, symName: __ZNSt3__113basic_ostreamIcNS_11char_traitsIcEEElsB8ue170006EPFRS3_S4_E, symObjAddr: 0x5A8, symBinAddr: 0x1000025C4, symSize: 0x2C }
  - { offsetInCU: 0xAE85, offset: 0xAE85, size: 0x8, addend: 0x0, symName: __ZNSt3__15dequeIiNS_9allocatorIiEEED1B8ue170006Ev, symObjAddr: 0x62C, symBinAddr: 0x100002648, symSize: 0x2C }
  - { offsetInCU: 0xAEAF, offset: 0xAEAF, size: 0x8, addend: 0x0, symName: _main, symObjAddr: 0x664, symBinAddr: 0x100002680, symSize: 0x144 }
  - { offsetInCU: 0xAF2E, offset: 0xAF2E, size: 0x8, addend: 0x0, symName: __ZNSt3__15dequeIiNS_9allocatorIiEEEC2B8ue170006Ev, symObjAddr: 0x7A8, symBinAddr: 0x1000027C4, symSize: 0x84 }
  - { offsetInCU: 0xAF58, offset: 0xAF58, size: 0x8, addend: 0x0, symName: __ZNSt3__114__split_bufferIPiNS_9allocatorIS1_EEEC1B8ue170006Ev, symObjAddr: 0x82C, symBinAddr: 0x100002848, symSize: 0x2C }
  - { offsetInCU: 0xAF8C, offset: 0xAF8C, size: 0x8, addend: 0x0, symName: __ZNSt3__117__compressed_pairImNS_9allocatorIiEEEC1B8ue170006IiNS_18__default_init_tagEEEOT_OT0_, symObjAddr: 0x858, symBinAddr: 0x100002874, symSize: 0x3C }
  - { offsetInCU: 0xAFE4, offset: 0xAFE4, size: 0x8, addend: 0x0, symName: __ZNKSt3__15dequeIiNS_9allocatorIiEEE14__annotate_newB8ue170006Em, symObjAddr: 0x894, symBinAddr: 0x1000028B0, symSize: 0xDC }
  - { offsetInCU: 0xB019, offset: 0xB019, size: 0x8, addend: 0x0, symName: __ZNSt3__114__split_bufferIPiNS_9allocatorIS1_EEED1Ev, symObjAddr: 0x970, symBinAddr: 0x10000298C, symSize: 0x2C }
  - { offsetInCU: 0xB045, offset: 0xB045, size: 0x8, addend: 0x0, symName: __ZNSt3__114__split_bufferIPiNS_9allocatorIS1_EEEC2B8ue170006Ev, symObjAddr: 0x99C, symBinAddr: 0x1000029B8, symSize: 0x48 }
  - { offsetInCU: 0xB074, offset: 0xB074, size: 0x8, addend: 0x0, symName: __ZNSt3__117__compressed_pairIPPiNS_9allocatorIS1_EEEC1B8ue170006IDnNS_18__default_init_tagEEEOT_OT0_, symObjAddr: 0x9E4, symBinAddr: 0x100002A00, symSize: 0x3C }
  - { offsetInCU: 0xB0CC, offset: 0xB0CC, size: 0x8, addend: 0x0, symName: __ZNSt3__117__compressed_pairIPPiNS_9allocatorIS1_EEEC2B8ue170006IDnNS_18__default_init_tagEEEOT_OT0_, symObjAddr: 0xA20, symBinAddr: 0x100002A3C, symSize: 0x40 }
  - { offsetInCU: 0xB124, offset: 0xB124, size: 0x8, addend: 0x0, symName: __ZNSt3__122__compressed_pair_elemIPPiLi0ELb0EEC2B8ue170006IDnvEEOT_, symObjAddr: 0xA60, symBinAddr: 0x100002A7C, symSize: 0x1C }
  - { offsetInCU: 0xB166, offset: 0xB166, size: 0x8, addend: 0x0, symName: __ZNSt3__122__compressed_pair_elemINS_9allocatorIPiEELi1ELb1EEC2B8ue170006ENS_18__default_init_tagE, symObjAddr: 0xA7C, symBinAddr: 0x100002A98, symSize: 0x2C }
  - { offsetInCU: 0xB19A, offset: 0xB19A, size: 0x8, addend: 0x0, symName: __ZNSt3__19allocatorIPiEC2B8ue170006Ev, symObjAddr: 0xAA8, symBinAddr: 0x100002AC4, symSize: 0x2C }
  - { offsetInCU: 0xB1C4, offset: 0xB1C4, size: 0x8, addend: 0x0, symName: __ZNSt3__116__non_trivial_ifILb1ENS_9allocatorIPiEEEC2B8ue170006Ev, symObjAddr: 0xAD4, symBinAddr: 0x100002AF0, symSize: 0x14 }
  - { offsetInCU: 0xB1EE, offset: 0xB1EE, size: 0x8, addend: 0x0, symName: __ZNSt3__117__compressed_pairImNS_9allocatorIiEEEC2B8ue170006IiNS_18__default_init_tagEEEOT_OT0_, symObjAddr: 0xAE8, symBinAddr: 0x100002B04, symSize: 0x40 }
  - { offsetInCU: 0xB246, offset: 0xB246, size: 0x8, addend: 0x0, symName: __ZNSt3__122__compressed_pair_elemImLi0ELb0EEC2B8ue170006IivEEOT_, symObjAddr: 0xB28, symBinAddr: 0x100002B44, symSize: 0x24 }
  - { offsetInCU: 0xB288, offset: 0xB288, size: 0x8, addend: 0x0, symName: __ZNSt3__122__compressed_pair_elemINS_9allocatorIiEELi1ELb1EEC2B8ue170006ENS_18__default_init_tagE, symObjAddr: 0xB4C, symBinAddr: 0x100002B68, symSize: 0x2C }
  - { offsetInCU: 0xB2BC, offset: 0xB2BC, size: 0x8, addend: 0x0, symName: __ZNSt3__19allocatorIiEC2B8ue170006Ev, symObjAddr: 0xB78, symBinAddr: 0x100002B94, symSize: 0x2C }
  - { offsetInCU: 0xB2E6, offset: 0xB2E6, size: 0x8, addend: 0x0, symName: __ZNSt3__116__non_trivial_ifILb1ENS_9allocatorIiEEEC2B8ue170006Ev, symObjAddr: 0xBA4, symBinAddr: 0x100002BC0, symSize: 0x14 }
  - { offsetInCU: 0xB310, offset: 0xB310, size: 0x8, addend: 0x0, symName: __ZNKSt3__15dequeIiNS_9allocatorIiEEE18__annotate_from_toB8ue170006EmmNS3_22__asan_annotation_typeENS3_23__asan_annotation_placeE, symObjAddr: 0xBB8, symBinAddr: 0x100002BD4, symSize: 0x580 }
  - { offsetInCU: 0xB4CE, offset: 0xB4CE, size: 0x8, addend: 0x0, symName: __ZNKSt3__114__split_bufferIPiNS_9allocatorIS1_EEE4sizeB8ue170006Ev, symObjAddr: 0x1138, symBinAddr: 0x100003154, symSize: 0x28 }
  - { offsetInCU: 0xB4F4, offset: 0xB4F4, size: 0x8, addend: 0x0, symName: __ZNKSt3__114__split_bufferIPiNS_9allocatorIS1_EEE5beginB8ue170006Ev, symObjAddr: 0x1160, symBinAddr: 0x10000317C, symSize: 0x18 }
  - { offsetInCU: 0xB51A, offset: 0xB51A, size: 0x8, addend: 0x0, symName: __ZNKSt3__15dequeIiNS_9allocatorIiEEE4sizeB8ue170006Ev, symObjAddr: 0x1178, symBinAddr: 0x100003194, symSize: 0x28 }
  - { offsetInCU: 0xB540, offset: 0xB540, size: 0x8, addend: 0x0, symName: __ZNKSt3__15dequeIiNS_9allocatorIiEEE44__annotate_double_ended_contiguous_containerB8ue170006EPKvS5_S5_S5_S5_S5_, symObjAddr: 0x11B4, symBinAddr: 0x1000031D0, symSize: 0x28 }
  - { offsetInCU: 0xB5AE, offset: 0xB5AE, size: 0x8, addend: 0x0, symName: __ZNKSt3__15dequeIiNS_9allocatorIiEEE6__sizeB8ue170006Ev, symObjAddr: 0x11DC, symBinAddr: 0x1000031F8, symSize: 0x28 }
  - { offsetInCU: 0xB5D4, offset: 0xB5D4, size: 0x8, addend: 0x0, symName: __ZNKSt3__117__compressed_pairImNS_9allocatorIiEEE5firstB8ue170006Ev, symObjAddr: 0x1204, symBinAddr: 0x100003220, symSize: 0x24 }
  - { offsetInCU: 0xB5FA, offset: 0xB5FA, size: 0x8, addend: 0x0, symName: __ZNKSt3__122__compressed_pair_elemImLi0ELb0EE5__getB8ue170006Ev, symObjAddr: 0x1228, symBinAddr: 0x100003244, symSize: 0x14 }
  - { offsetInCU: 0xB620, offset: 0xB620, size: 0x8, addend: 0x0, symName: __ZNSt3__114__split_bufferIPiNS_9allocatorIS1_EEED2Ev, symObjAddr: 0x123C, symBinAddr: 0x100003258, symSize: 0x80 }
  - { offsetInCU: 0xB64C, offset: 0xB64C, size: 0x8, addend: 0x0, symName: __ZNSt3__114__split_bufferIPiNS_9allocatorIS1_EEE5clearB8ue170006Ev, symObjAddr: 0x12BC, symBinAddr: 0x1000032D8, symSize: 0x28 }
  - { offsetInCU: 0xB672, offset: 0xB672, size: 0x8, addend: 0x0, symName: __ZNSt3__116allocator_traitsINS_9allocatorIPiEEE10deallocateB8ue170006ERS3_PS2_m, symObjAddr: 0x12E4, symBinAddr: 0x100003300, symSize: 0x34 }
  - { offsetInCU: 0xB6B4, offset: 0xB6B4, size: 0x8, addend: 0x0, symName: __ZNSt3__114__split_bufferIPiNS_9allocatorIS1_EEE7__allocB8ue170006Ev, symObjAddr: 0x1318, symBinAddr: 0x100003334, symSize: 0x28 }
  - { offsetInCU: 0xB6DA, offset: 0xB6DA, size: 0x8, addend: 0x0, symName: __ZNKSt3__114__split_bufferIPiNS_9allocatorIS1_EEE8capacityB8ue170006Ev, symObjAddr: 0x1340, symBinAddr: 0x10000335C, symSize: 0x40 }
  - { offsetInCU: 0xB700, offset: 0xB700, size: 0x8, addend: 0x0, symName: __ZNSt3__114__split_bufferIPiNS_9allocatorIS1_EEE17__destruct_at_endB8ue170006EPS1_, symObjAddr: 0x1380, symBinAddr: 0x10000339C, symSize: 0x2C }
  - { offsetInCU: 0xB734, offset: 0xB734, size: 0x8, addend: 0x0, symName: __ZNSt3__114__split_bufferIPiNS_9allocatorIS1_EEE17__destruct_at_endB8ue170006EPS1_NS_17integral_constantIbLb0EEE, symObjAddr: 0x13AC, symBinAddr: 0x1000033C8, symSize: 0x94 }
  - { offsetInCU: 0xB774, offset: 0xB774, size: 0x8, addend: 0x0, symName: __ZNSt3__116allocator_traitsINS_9allocatorIPiEEE7destroyB8ue170006IS2_vEEvRS3_PT_, symObjAddr: 0x1440, symBinAddr: 0x10000345C, symSize: 0x2C }
  - { offsetInCU: 0xB7B1, offset: 0xB7B1, size: 0x8, addend: 0x0, symName: __ZNSt3__19allocatorIPiE7destroyB8ue170006EPS1_, symObjAddr: 0x1480, symBinAddr: 0x10000349C, symSize: 0x14 }
  - { offsetInCU: 0xB7E5, offset: 0xB7E5, size: 0x8, addend: 0x0, symName: __ZNSt3__19allocatorIPiE10deallocateB8ue170006EPS1_m, symObjAddr: 0x1494, symBinAddr: 0x1000034B0, symSize: 0x70 }
  - { offsetInCU: 0xB827, offset: 0xB827, size: 0x8, addend: 0x0, symName: __ZNSt3__117__compressed_pairIPPiNS_9allocatorIS1_EEE6secondB8ue170006Ev, symObjAddr: 0x158C, symBinAddr: 0x1000035A8, symSize: 0x24 }
  - { offsetInCU: 0xB84D, offset: 0xB84D, size: 0x8, addend: 0x0, symName: __ZNSt3__122__compressed_pair_elemINS_9allocatorIPiEELi1ELb1EE5__getB8ue170006Ev, symObjAddr: 0x15B0, symBinAddr: 0x1000035CC, symSize: 0x14 }
  - { offsetInCU: 0xB873, offset: 0xB873, size: 0x8, addend: 0x0, symName: __ZNKSt3__114__split_bufferIPiNS_9allocatorIS1_EEE9__end_capB8ue170006Ev, symObjAddr: 0x15C4, symBinAddr: 0x1000035E0, symSize: 0x28 }
  - { offsetInCU: 0xB899, offset: 0xB899, size: 0x8, addend: 0x0, symName: __ZNKSt3__117__compressed_pairIPPiNS_9allocatorIS1_EEE5firstB8ue170006Ev, symObjAddr: 0x15EC, symBinAddr: 0x100003608, symSize: 0x24 }
  - { offsetInCU: 0xB8BF, offset: 0xB8BF, size: 0x8, addend: 0x0, symName: __ZNKSt3__122__compressed_pair_elemIPPiLi0ELb0EE5__getB8ue170006Ev, symObjAddr: 0x1610, symBinAddr: 0x10000362C, symSize: 0x14 }
  - { offsetInCU: 0xB8E5, offset: 0xB8E5, size: 0x8, addend: 0x0, symName: __ZNSt3__15dequeIiNS_9allocatorIiEEED2B8ue170006Ev, symObjAddr: 0x1624, symBinAddr: 0x100003640, symSize: 0xA4 }
  - { offsetInCU: 0xB93C, offset: 0xB93C, size: 0x8, addend: 0x0, symName: __ZNSt3__15dequeIiNS_9allocatorIiEEE5clearEv, symObjAddr: 0x16C8, symBinAddr: 0x1000036E4, symSize: 0x194 }
  - { offsetInCU: 0xB9A0, offset: 0xB9A0, size: 0x8, addend: 0x0, symName: __ZNKSt3__15dequeIiNS_9allocatorIiEEE17__annotate_deleteB8ue170006Ev, symObjAddr: 0x185C, symBinAddr: 0x100003878, symSize: 0xE8 }
  - { offsetInCU: 0xB9E4, offset: 0xB9E4, size: 0x8, addend: 0x0, symName: __ZNSt3__114__split_bufferIPiNS_9allocatorIS1_EEE5beginB8ue170006Ev, symObjAddr: 0x1944, symBinAddr: 0x100003960, symSize: 0x18 }
  - { offsetInCU: 0xBA0A, offset: 0xBA0A, size: 0x8, addend: 0x0, symName: __ZNSt3__114__split_bufferIPiNS_9allocatorIS1_EEE3endB8ue170006Ev, symObjAddr: 0x195C, symBinAddr: 0x100003978, symSize: 0x18 }
  - { offsetInCU: 0xBA30, offset: 0xBA30, size: 0x8, addend: 0x0, symName: __ZNSt3__116allocator_traitsINS_9allocatorIiEEE10deallocateB8ue170006ERS2_Pim, symObjAddr: 0x1974, symBinAddr: 0x100003990, symSize: 0x34 }
  - { offsetInCU: 0xBA72, offset: 0xBA72, size: 0x8, addend: 0x0, symName: __ZNSt3__15dequeIiNS_9allocatorIiEEE7__allocB8ue170006Ev, symObjAddr: 0x19A8, symBinAddr: 0x1000039C4, symSize: 0x28 }
  - { offsetInCU: 0xBA98, offset: 0xBA98, size: 0x8, addend: 0x0, symName: __ZNSt3__15dequeIiNS_9allocatorIiEEE5beginB8ue170006Ev, symObjAddr: 0x19D0, symBinAddr: 0x1000039EC, symSize: 0xCC }
  - { offsetInCU: 0xBACD, offset: 0xBACD, size: 0x8, addend: 0x0, symName: __ZNSt3__15dequeIiNS_9allocatorIiEEE3endB8ue170006Ev, symObjAddr: 0x1A9C, symBinAddr: 0x100003AB8, symSize: 0xBC }
  - { offsetInCU: 0xBB11, offset: 0xBB11, size: 0x8, addend: 0x0, symName: __ZNSt3__116allocator_traitsINS_9allocatorIiEEE7destroyB8ue170006IivEEvRS2_PT_, symObjAddr: 0x1B8C, symBinAddr: 0x100003BA8, symSize: 0x2C }
  - { offsetInCU: 0xBB4E, offset: 0xBB4E, size: 0x8, addend: 0x0, symName: __ZNKSt3__116__deque_iteratorIiPiRiPS1_lLl1024EEdeB8ue170006Ev, symObjAddr: 0x1BB8, symBinAddr: 0x100003BD4, symSize: 0x18 }
  - { offsetInCU: 0xBB74, offset: 0xBB74, size: 0x8, addend: 0x0, symName: __ZNSt3__116__deque_iteratorIiPiRiPS1_lLl1024EEppB8ue170006Ev, symObjAddr: 0x1BD0, symBinAddr: 0x100003BEC, symSize: 0x70 }
  - { offsetInCU: 0xBB9A, offset: 0xBB9A, size: 0x8, addend: 0x0, symName: __ZNSt3__15dequeIiNS_9allocatorIiEEE6__sizeB8ue170006Ev, symObjAddr: 0x1C40, symBinAddr: 0x100003C5C, symSize: 0x28 }
  - { offsetInCU: 0xBBC0, offset: 0xBBC0, size: 0x8, addend: 0x0, symName: __ZNSt3__114__split_bufferIPiNS_9allocatorIS1_EEE5frontB8ue170006Ev, symObjAddr: 0x1C68, symBinAddr: 0x100003C84, symSize: 0x18 }
  - { offsetInCU: 0xBBE6, offset: 0xBBE6, size: 0x8, addend: 0x0, symName: __ZNSt3__114__split_bufferIPiNS_9allocatorIS1_EEE9pop_frontB8ue170006Ev, symObjAddr: 0x1C80, symBinAddr: 0x100003C9C, symSize: 0x2C }
  - { offsetInCU: 0xBC0C, offset: 0xBC0C, size: 0x8, addend: 0x0, symName: __ZNKSt3__114__split_bufferIPiNS_9allocatorIS1_EEE5emptyB8ue170006Ev, symObjAddr: 0x1CAC, symBinAddr: 0x100003CC8, symSize: 0x28 }
  - { offsetInCU: 0xBC32, offset: 0xBC32, size: 0x8, addend: 0x0, symName: __ZNSt3__116__deque_iteratorIiPiRiPS1_lLl1024EEC1B8ue170006ES3_S1_, symObjAddr: 0x1CD4, symBinAddr: 0x100003CF0, symSize: 0x3C }
  - { offsetInCU: 0xBC7A, offset: 0xBC7A, size: 0x8, addend: 0x0, symName: __ZNSt3__116__deque_iteratorIiPiRiPS1_lLl1024EEC2B8ue170006ES3_S1_, symObjAddr: 0x1D10, symBinAddr: 0x100003D2C, symSize: 0x2C }
  - { offsetInCU: 0xBCC2, offset: 0xBCC2, size: 0x8, addend: 0x0, symName: __ZNSt3__19allocatorIiE7destroyB8ue170006EPi, symObjAddr: 0x1D6C, symBinAddr: 0x100003D88, symSize: 0x14 }
  - { offsetInCU: 0xBCF6, offset: 0xBCF6, size: 0x8, addend: 0x0, symName: __ZNSt3__117__compressed_pairImNS_9allocatorIiEEE5firstB8ue170006Ev, symObjAddr: 0x1D80, symBinAddr: 0x100003D9C, symSize: 0x24 }
  - { offsetInCU: 0xBD1C, offset: 0xBD1C, size: 0x8, addend: 0x0, symName: __ZNSt3__122__compressed_pair_elemImLi0ELb0EE5__getB8ue170006Ev, symObjAddr: 0x1DA4, symBinAddr: 0x100003DC0, symSize: 0x14 }
  - { offsetInCU: 0xBD42, offset: 0xBD42, size: 0x8, addend: 0x0, symName: __ZNSt3__114__split_bufferIPiNS_9allocatorIS1_EEE19__destruct_at_beginB8ue170006EPS1_, symObjAddr: 0x1DB8, symBinAddr: 0x100003DD4, symSize: 0x2C }
  - { offsetInCU: 0xBD76, offset: 0xBD76, size: 0x8, addend: 0x0, symName: __ZNSt3__114__split_bufferIPiNS_9allocatorIS1_EEE19__destruct_at_beginEPS1_NS_17integral_constantIbLb1EEE, symObjAddr: 0x1DE4, symBinAddr: 0x100003E00, symSize: 0x20 }
  - { offsetInCU: 0xBDB6, offset: 0xBDB6, size: 0x8, addend: 0x0, symName: __ZNKSt3__15dequeIiNS_9allocatorIiEEE22__annotate_whole_blockB8ue170006EmNS3_22__asan_annotation_typeE, symObjAddr: 0x1E04, symBinAddr: 0x100003E20, symSize: 0xAC }
  - { offsetInCU: 0xBE27, offset: 0xBE27, size: 0x8, addend: 0x0, symName: __ZNKSt3__15dequeIiNS_9allocatorIiEEE23__annotate_poison_blockB8ue170006EPKvS5_, symObjAddr: 0x1EB0, symBinAddr: 0x100003ECC, symSize: 0x44 }
  - { offsetInCU: 0xBE6B, offset: 0xBE6B, size: 0x8, addend: 0x0, symName: __ZNSt3__19allocatorIiE10deallocateB8ue170006EPim, symObjAddr: 0x1EF4, symBinAddr: 0x100003F10, symSize: 0x70 }
  - { offsetInCU: 0xBEAD, offset: 0xBEAD, size: 0x8, addend: 0x0, symName: __ZNSt3__117__compressed_pairImNS_9allocatorIiEEE6secondB8ue170006Ev, symObjAddr: 0x1F64, symBinAddr: 0x100003F80, symSize: 0x24 }
  - { offsetInCU: 0xBED3, offset: 0xBED3, size: 0x8, addend: 0x0, symName: __ZNSt3__122__compressed_pair_elemINS_9allocatorIiEELi1ELb1EE5__getB8ue170006Ev, symObjAddr: 0x1F88, symBinAddr: 0x100003FA4, symSize: 0x14 }
  - { offsetInCU: 0xBEF9, offset: 0xBEF9, size: 0x8, addend: 0x0, symName: __ZNKSt3__15dequeIiNS_9allocatorIiEEE23__annotate_shrink_frontB8ue170006Emm, symObjAddr: 0x1F9C, symBinAddr: 0x100003FB8, symSize: 0x70 }
  - { offsetInCU: 0xBF3D, offset: 0xBF3D, size: 0x8, addend: 0x0, symName: __ZNSt3__15dequeIiNS_9allocatorIiEEE26__maybe_remove_front_spareB8ue170006Eb, symObjAddr: 0x200C, symBinAddr: 0x100004028, symSize: 0xEC }
  - { offsetInCU: 0xBF72, offset: 0xBF72, size: 0x8, addend: 0x0, symName: __ZNKSt3__15dequeIiNS_9allocatorIiEEE20__front_spare_blocksB8ue170006Ev, symObjAddr: 0x20F8, symBinAddr: 0x100004114, symSize: 0x2C }
  - { offsetInCU: 0xBF98, offset: 0xBF98, size: 0x8, addend: 0x0, symName: __ZNKSt3__15dequeIiNS_9allocatorIiEEE13__front_spareB8ue170006Ev, symObjAddr: 0x2124, symBinAddr: 0x100004140, symSize: 0x18 }
  - { offsetInCU: 0xBFBE, offset: 0xBFBE, size: 0x8, addend: 0x0, symName: __ZNKSt3__15dequeIiNS_9allocatorIiEEE22__annotate_shrink_backB8ue170006Emm, symObjAddr: 0x213C, symBinAddr: 0x100004158, symSize: 0x60 }
  - { offsetInCU: 0xC002, offset: 0xC002, size: 0x8, addend: 0x0, symName: __ZNSt3__15dequeIiNS_9allocatorIiEEE25__maybe_remove_back_spareB8ue170006Eb, symObjAddr: 0x219C, symBinAddr: 0x1000041B8, symSize: 0xE8 }
  - { offsetInCU: 0xC037, offset: 0xC037, size: 0x8, addend: 0x0, symName: __ZNKSt3__15dequeIiNS_9allocatorIiEEE19__back_spare_blocksB8ue170006Ev, symObjAddr: 0x2284, symBinAddr: 0x1000042A0, symSize: 0x2C }
  - { offsetInCU: 0xC05D, offset: 0xC05D, size: 0x8, addend: 0x0, symName: __ZNSt3__114__split_bufferIPiNS_9allocatorIS1_EEE4backB8ue170006Ev, symObjAddr: 0x22B0, symBinAddr: 0x1000042CC, symSize: 0x1C }
  - { offsetInCU: 0xC083, offset: 0xC083, size: 0x8, addend: 0x0, symName: __ZNSt3__114__split_bufferIPiNS_9allocatorIS1_EEE8pop_backB8ue170006Ev, symObjAddr: 0x22CC, symBinAddr: 0x1000042E8, symSize: 0x2C }
  - { offsetInCU: 0xC0A9, offset: 0xC0A9, size: 0x8, addend: 0x0, symName: __ZNKSt3__15dequeIiNS_9allocatorIiEEE12__back_spareB8ue170006Ev, symObjAddr: 0x22F8, symBinAddr: 0x100004314, symSize: 0x54 }
  - { offsetInCU: 0xC0CF, offset: 0xC0CF, size: 0x8, addend: 0x0, symName: __ZNKSt3__15dequeIiNS_9allocatorIiEEE10__capacityB8ue170006Ev, symObjAddr: 0x234C, symBinAddr: 0x100004368, symSize: 0x60 }
  - { offsetInCU: 0xC0F5, offset: 0xC0F5, size: 0x8, addend: 0x0, symName: __ZNSt3__15dequeIiNS_9allocatorIiEEE19__add_back_capacityEv, symObjAddr: 0x23AC, symBinAddr: 0x1000043C8, symSize: 0x364 }
  - { offsetInCU: 0xC1AD, offset: 0xC1AD, size: 0x8, addend: 0x0, symName: __ZNKSt3__15dequeIiNS_9allocatorIiEEE24__annotate_increase_backB8ue170006Em, symObjAddr: 0x2710, symBinAddr: 0x10000472C, symSize: 0x7C }
  - { offsetInCU: 0xC1E2, offset: 0xC1E2, size: 0x8, addend: 0x0, symName: __ZNSt3__116allocator_traitsINS_9allocatorIiEEE9constructB8ue170006IiJRKiEvEEvRS2_PT_DpOT0_, symObjAddr: 0x278C, symBinAddr: 0x1000047A8, symSize: 0x34 }
  - { offsetInCU: 0xC239, offset: 0xC239, size: 0x8, addend: 0x0, symName: __ZNSt3__114__split_bufferIPiNS_9allocatorIS1_EEE9push_backB8ue170006ERKS1_, symObjAddr: 0x27C0, symBinAddr: 0x1000047DC, symSize: 0x270 }
  - { offsetInCU: 0xC2B2, offset: 0xC2B2, size: 0x8, addend: 0x0, symName: __ZNKSt3__114__split_bufferIPiNS_9allocatorIS1_EEE12__back_spareB8ue170006Ev, symObjAddr: 0x2A30, symBinAddr: 0x100004A4C, symSize: 0x40 }
  - { offsetInCU: 0xC2D8, offset: 0xC2D8, size: 0x8, addend: 0x0, symName: __ZNSt3__114__split_bufferIPiNS_9allocatorIS1_EEE9push_backEOS1_, symObjAddr: 0x2A70, symBinAddr: 0x100004A8C, symSize: 0x270 }
  - { offsetInCU: 0xC351, offset: 0xC351, size: 0x8, addend: 0x0, symName: __ZNSt3__116allocator_traitsINS_9allocatorIiEEE8allocateB8ue170006ERS2_m, symObjAddr: 0x2CE0, symBinAddr: 0x100004CFC, symSize: 0x2C }
  - { offsetInCU: 0xC384, offset: 0xC384, size: 0x8, addend: 0x0, symName: __ZNSt3__114__split_bufferIPiNS_9allocatorIS1_EEE10push_frontEOS1_, symObjAddr: 0x2D0C, symBinAddr: 0x100004D28, symSize: 0x26C }
  - { offsetInCU: 0xC3FD, offset: 0xC3FD, size: 0x8, addend: 0x0, symName: __ZNSt3__114__split_bufferIPiRNS_9allocatorIS1_EEEC1EmmS4_, symObjAddr: 0x2FA4, symBinAddr: 0x100004FC0, symSize: 0x44 }
  - { offsetInCU: 0xC458, offset: 0xC458, size: 0x8, addend: 0x0, symName: __ZNSt3__122__allocator_destructorINS_9allocatorIiEEEC1B8ue170006ERS2_m, symObjAddr: 0x2FE8, symBinAddr: 0x100005004, symSize: 0x3C }
  - { offsetInCU: 0xC520, offset: 0xC520, size: 0x8, addend: 0x0, symName: __ZNSt3__110unique_ptrIPiNS_22__allocator_destructorINS_9allocatorIiEEEEEC1B8ue170006ILb1EvEES1_NS_16__dependent_typeINS_27__unique_ptr_deleter_sfinaeIS5_EEXT_EE20__good_rval_ref_typeE, symObjAddr: 0x3024, symBinAddr: 0x100005040, symSize: 0x3C }
  - { offsetInCU: 0xC571, offset: 0xC571, size: 0x8, addend: 0x0, symName: __ZNSt3__114__split_bufferIPiRNS_9allocatorIS1_EEE9push_backEOS1_, symObjAddr: 0x3060, symBinAddr: 0x10000507C, symSize: 0x270 }
  - { offsetInCU: 0xC5EA, offset: 0xC5EA, size: 0x8, addend: 0x0, symName: __ZNKSt3__110unique_ptrIPiNS_22__allocator_destructorINS_9allocatorIiEEEEE3getB8ue170006Ev, symObjAddr: 0x32D0, symBinAddr: 0x1000052EC, symSize: 0x28 }
  - { offsetInCU: 0xC610, offset: 0xC610, size: 0x8, addend: 0x0, symName: __ZNSt3__110unique_ptrIPiNS_22__allocator_destructorINS_9allocatorIiEEEEE7releaseB8ue170006Ev, symObjAddr: 0x32F8, symBinAddr: 0x100005314, symSize: 0x44 }
  - { offsetInCU: 0xC645, offset: 0xC645, size: 0x8, addend: 0x0, symName: __ZNSt3__114__split_bufferIPiRNS_9allocatorIS1_EEE10push_frontERKS1_, symObjAddr: 0x333C, symBinAddr: 0x100005358, symSize: 0x26C }
  - { offsetInCU: 0xC6BE, offset: 0xC6BE, size: 0x8, addend: 0x0, symName: __ZNSt3__114__split_bufferIPiNS_9allocatorIS1_EEE9__end_capB8ue170006Ev, symObjAddr: 0x35E4, symBinAddr: 0x100005600, symSize: 0x28 }
  - { offsetInCU: 0xC6E4, offset: 0xC6E4, size: 0x8, addend: 0x0, symName: __ZNSt3__114__split_bufferIPiRNS_9allocatorIS1_EEE9__end_capB8ue170006Ev, symObjAddr: 0x360C, symBinAddr: 0x100005628, symSize: 0x28 }
  - { offsetInCU: 0xC70A, offset: 0xC70A, size: 0x8, addend: 0x0, symName: __ZNSt3__110unique_ptrIPiNS_22__allocator_destructorINS_9allocatorIiEEEEED1B8ue170006Ev, symObjAddr: 0x3634, symBinAddr: 0x100005650, symSize: 0x2C }
  - { offsetInCU: 0xC734, offset: 0xC734, size: 0x8, addend: 0x0, symName: __ZNSt3__114__split_bufferIPiRNS_9allocatorIS1_EEED1Ev, symObjAddr: 0x3660, symBinAddr: 0x10000567C, symSize: 0x2C }
  - { offsetInCU: 0xC760, offset: 0xC760, size: 0x8, addend: 0x0, symName: __ZNSt3__114__split_bufferIPiRNS_9allocatorIS1_EEE18__construct_at_endINS_13move_iteratorIPS1_EEEENS_9enable_ifIXsr31__has_forward_iterator_categoryIT_EE5valueEvE4typeESB_SB_, symObjAddr: 0x36CC, symBinAddr: 0x1000056E8, symSize: 0x60 }
  - { offsetInCU: 0xC7AD, offset: 0xC7AD, size: 0x8, addend: 0x0, symName: __ZNSt3__113move_iteratorIPPiEC1B8ue170006ES2_, symObjAddr: 0x372C, symBinAddr: 0x100005748, symSize: 0x34 }
  - { offsetInCU: 0xC7E5, offset: 0xC7E5, size: 0x8, addend: 0x0, symName: __ZNSt3__116allocator_traitsINS_9allocatorIPiEEE9constructB8ue170006IS2_JRKS2_EvEEvRS3_PT_DpOT0_, symObjAddr: 0x3760, symBinAddr: 0x10000577C, symSize: 0x34 }
  - { offsetInCU: 0xC85F, offset: 0xC85F, size: 0x8, addend: 0x0, symName: __ZNKSt3__114__move_trivialclB8ue170006IPiS2_Li0EEENS_4pairIPT_PT0_EES5_S5_S7_, symObjAddr: 0x3930, symBinAddr: 0x10000594C, symSize: 0x48 }
  - { offsetInCU: 0xC8C7, offset: 0xC8C7, size: 0x8, addend: 0x0, symName: __ZNSt3__14pairIPPiS2_EC1B8ue170006ERKS2_S5_, symObjAddr: 0x3BA8, symBinAddr: 0x100005BC4, symSize: 0x3C }
  - { offsetInCU: 0xC90D, offset: 0xC90D, size: 0x8, addend: 0x0, symName: __ZNSt3__14pairIPPiS2_EC2B8ue170006ERKS2_S5_, symObjAddr: 0x3BE4, symBinAddr: 0x100005C00, symSize: 0x34 }
  - { offsetInCU: 0xC953, offset: 0xC953, size: 0x8, addend: 0x0, symName: __ZNSt3__118__unwrap_iter_implIPPiLb1EE8__unwrapB8ue170006ES2_, symObjAddr: 0x3C18, symBinAddr: 0x100005C34, symSize: 0x24 }
  - { offsetInCU: 0xC976, offset: 0xC976, size: 0x8, addend: 0x0, symName: __ZNSt3__118__unwrap_iter_implIPPiLb1EE8__rewrapB8ue170006ES2_S2_, symObjAddr: 0x3C3C, symBinAddr: 0x100005C58, symSize: 0x50 }
  - { offsetInCU: 0xC9A7, offset: 0xC9A7, size: 0x8, addend: 0x0, symName: __ZNSt3__114__split_bufferIPiRNS_9allocatorIS1_EEE28__construct_at_end_with_sizeINS_13move_iteratorIPS1_EEEEvT_m, symObjAddr: 0x3C8C, symBinAddr: 0x100005CA8, symSize: 0xE4 }
  - { offsetInCU: 0xCA0D, offset: 0xCA0D, size: 0x8, addend: 0x0, symName: __ZNSt3__114__split_bufferIPiRNS_9allocatorIS1_EEE21_ConstructTransactionC1B8ue170006EPPS1_m, symObjAddr: 0x3DAC, symBinAddr: 0x100005DC8, symSize: 0x3C }
  - { offsetInCU: 0xCA53, offset: 0xCA53, size: 0x8, addend: 0x0, symName: __ZNSt3__116allocator_traitsINS_9allocatorIPiEEE9constructB8ue170006IS2_JS2_EvEEvRS3_PT_DpOT0_, symObjAddr: 0x3DE8, symBinAddr: 0x100005E04, symSize: 0x34 }
  - { offsetInCU: 0xCAAA, offset: 0xCAAA, size: 0x8, addend: 0x0, symName: __ZNSt3__114__split_bufferIPiRNS_9allocatorIS1_EEE7__allocB8ue170006Ev, symObjAddr: 0x3E1C, symBinAddr: 0x100005E38, symSize: 0x28 }
  - { offsetInCU: 0xCAD0, offset: 0xCAD0, size: 0x8, addend: 0x0, symName: __ZNKSt3__113move_iteratorIPPiEdeB8ue170006Ev, symObjAddr: 0x3E44, symBinAddr: 0x100005E60, symSize: 0x18 }
  - { offsetInCU: 0xCAF6, offset: 0xCAF6, size: 0x8, addend: 0x0, symName: __ZNSt3__113move_iteratorIPPiEppB8ue170006Ev, symObjAddr: 0x3E5C, symBinAddr: 0x100005E78, symSize: 0x20 }
  - { offsetInCU: 0xCB1C, offset: 0xCB1C, size: 0x8, addend: 0x0, symName: __ZNSt3__114__split_bufferIPiRNS_9allocatorIS1_EEE21_ConstructTransactionD1B8ue170006Ev, symObjAddr: 0x3E7C, symBinAddr: 0x100005E98, symSize: 0x2C }
  - { offsetInCU: 0xCB46, offset: 0xCB46, size: 0x8, addend: 0x0, symName: __ZNSt3__114__split_bufferIPiRNS_9allocatorIS1_EEE21_ConstructTransactionC2B8ue170006EPPS1_m, symObjAddr: 0x3EA8, symBinAddr: 0x100005EC4, symSize: 0x44 }
  - { offsetInCU: 0xCB8C, offset: 0xCB8C, size: 0x8, addend: 0x0, symName: __ZNSt3__19allocatorIPiE9constructB8ue170006IS1_JS1_EEEvPT_DpOT0_, symObjAddr: 0x3EEC, symBinAddr: 0x100005F08, symSize: 0x28 }
  - { offsetInCU: 0xCBE2, offset: 0xCBE2, size: 0x8, addend: 0x0, symName: __ZNSt3__117__compressed_pairIPPiRNS_9allocatorIS1_EEE6secondB8ue170006Ev, symObjAddr: 0x3F14, symBinAddr: 0x100005F30, symSize: 0x28 }
  - { offsetInCU: 0xCC08, offset: 0xCC08, size: 0x8, addend: 0x0, symName: __ZNSt3__122__compressed_pair_elemIRNS_9allocatorIPiEELi1ELb0EE5__getB8ue170006Ev, symObjAddr: 0x3F3C, symBinAddr: 0x100005F58, symSize: 0x18 }
  - { offsetInCU: 0xCC2E, offset: 0xCC2E, size: 0x8, addend: 0x0, symName: __ZNSt3__114__split_bufferIPiRNS_9allocatorIS1_EEE21_ConstructTransactionD2B8ue170006Ev, symObjAddr: 0x3F54, symBinAddr: 0x100005F70, symSize: 0x20 }
  - { offsetInCU: 0xCC58, offset: 0xCC58, size: 0x8, addend: 0x0, symName: __ZNKSt3__113move_iteratorIPPiE4baseB8ue170006Ev, symObjAddr: 0x3FEC, symBinAddr: 0x100006008, symSize: 0x18 }
  - { offsetInCU: 0xCC7E, offset: 0xCC7E, size: 0x8, addend: 0x0, symName: __ZNSt3__113move_iteratorIPPiEC2B8ue170006ES2_, symObjAddr: 0x4004, symBinAddr: 0x100006020, symSize: 0x20 }
  - { offsetInCU: 0xCCB6, offset: 0xCCB6, size: 0x8, addend: 0x0, symName: __ZNSt3__19allocatorIPiE9constructB8ue170006IS1_JRKS1_EEEvPT_DpOT0_, symObjAddr: 0x4024, symBinAddr: 0x100006040, symSize: 0x28 }
  - { offsetInCU: 0xCD0C, offset: 0xCD0C, size: 0x8, addend: 0x0, symName: __ZNSt3__19allocatorIiE8allocateB8ue170006Em, symObjAddr: 0x404C, symBinAddr: 0x100006068, symSize: 0x84 }
  - { offsetInCU: 0xCD4A, offset: 0xCD4A, size: 0x8, addend: 0x0, symName: __ZNSt3__116allocator_traitsINS_9allocatorIiEEE8max_sizeB8ue170006IS2_vEEmRKS2_, symObjAddr: 0x40D0, symBinAddr: 0x1000060EC, symSize: 0x24 }
  - { offsetInCU: 0xCD78, offset: 0xCD78, size: 0x8, addend: 0x0, symName: __ZNKSt3__19allocatorIiE8max_sizeB8ue170006Ev, symObjAddr: 0x4150, symBinAddr: 0x10000616C, symSize: 0x14 }
  - { offsetInCU: 0xCDA8, offset: 0xCDA8, size: 0x8, addend: 0x0, symName: __ZNKSt3__123__move_backward_trivialclB8ue170006IPiS2_Li0EEENS_4pairIPT_PT0_EES5_S5_S7_, symObjAddr: 0x4304, symBinAddr: 0x100006320, symSize: 0x48 }
  - { offsetInCU: 0xCE1A, offset: 0xCE1A, size: 0x8, addend: 0x0, symName: __ZNKSt3__16__lessIvvEclB8ue170006ImmEEbRKT_RKT0_, symObjAddr: 0x4468, symBinAddr: 0x100006484, symSize: 0x34 }
  - { offsetInCU: 0xCE6E, offset: 0xCE6E, size: 0x8, addend: 0x0, symName: __ZNSt3__114__split_bufferIPiRNS_9allocatorIS1_EEEC2EmmS4_, symObjAddr: 0x449C, symBinAddr: 0x1000064B8, symSize: 0xD4 }
  - { offsetInCU: 0xCEE2, offset: 0xCEE2, size: 0x8, addend: 0x0, symName: __ZNSt3__117__compressed_pairIPPiRNS_9allocatorIS1_EEEC1B8ue170006IDnS5_EEOT_OT0_, symObjAddr: 0x4570, symBinAddr: 0x10000658C, symSize: 0x3C }
  - { offsetInCU: 0xCF3A, offset: 0xCF3A, size: 0x8, addend: 0x0, symName: __ZNSt3__117__compressed_pairIPPiRNS_9allocatorIS1_EEEC2B8ue170006IDnS5_EEOT_OT0_, symObjAddr: 0x45EC, symBinAddr: 0x100006608, symSize: 0x48 }
  - { offsetInCU: 0xCF92, offset: 0xCF92, size: 0x8, addend: 0x0, symName: __ZNSt3__122__compressed_pair_elemIRNS_9allocatorIPiEELi1ELb0EEC2B8ue170006IS4_vEEOT_, symObjAddr: 0x4634, symBinAddr: 0x100006650, symSize: 0x20 }
  - { offsetInCU: 0xCFD4, offset: 0xCFD4, size: 0x8, addend: 0x0, symName: __ZNSt3__19allocatorIPiE8allocateB8ue170006Em, symObjAddr: 0x4654, symBinAddr: 0x100006670, symSize: 0x84 }
  - { offsetInCU: 0xD012, offset: 0xD012, size: 0x8, addend: 0x0, symName: __ZNSt3__116allocator_traitsINS_9allocatorIPiEEE8max_sizeB8ue170006IS3_vEEmRKS3_, symObjAddr: 0x46D8, symBinAddr: 0x1000066F4, symSize: 0x24 }
  - { offsetInCU: 0xD040, offset: 0xD040, size: 0x8, addend: 0x0, symName: __ZNKSt3__19allocatorIPiE8max_sizeB8ue170006Ev, symObjAddr: 0x46FC, symBinAddr: 0x100006718, symSize: 0x14 }
  - { offsetInCU: 0xD066, offset: 0xD066, size: 0x8, addend: 0x0, symName: __ZNSt3__122__allocator_destructorINS_9allocatorIiEEEC2B8ue170006ERS2_m, symObjAddr: 0x4710, symBinAddr: 0x10000672C, symSize: 0x2C }
  - { offsetInCU: 0xD0AC, offset: 0xD0AC, size: 0x8, addend: 0x0, symName: __ZNSt3__110unique_ptrIPiNS_22__allocator_destructorINS_9allocatorIiEEEEEC2B8ue170006ILb1EvEES1_NS_16__dependent_typeINS_27__unique_ptr_deleter_sfinaeIS5_EEXT_EE20__good_rval_ref_typeE, symObjAddr: 0x473C, symBinAddr: 0x100006758, symSize: 0x5C }
  - { offsetInCU: 0xD0FD, offset: 0xD0FD, size: 0x8, addend: 0x0, symName: __ZNSt3__117__compressed_pairIPiNS_22__allocator_destructorINS_9allocatorIiEEEEEC1B8ue170006IRS1_S5_EEOT_OT0_, symObjAddr: 0x4798, symBinAddr: 0x1000067B4, symSize: 0x3C }
  - { offsetInCU: 0xD155, offset: 0xD155, size: 0x8, addend: 0x0, symName: __ZNSt3__117__compressed_pairIPiNS_22__allocator_destructorINS_9allocatorIiEEEEEC2B8ue170006IRS1_S5_EEOT_OT0_, symObjAddr: 0x47D4, symBinAddr: 0x1000067F0, symSize: 0x48 }
  - { offsetInCU: 0xD1AD, offset: 0xD1AD, size: 0x8, addend: 0x0, symName: __ZNSt3__122__compressed_pair_elemIPiLi0ELb0EEC2B8ue170006IRS1_vEEOT_, symObjAddr: 0x481C, symBinAddr: 0x100006838, symSize: 0x24 }
  - { offsetInCU: 0xD1EF, offset: 0xD1EF, size: 0x8, addend: 0x0, symName: __ZNSt3__122__compressed_pair_elemINS_22__allocator_destructorINS_9allocatorIiEEEELi1ELb0EEC2B8ue170006IS4_vEEOT_, symObjAddr: 0x4840, symBinAddr: 0x10000685C, symSize: 0x24 }
  - { offsetInCU: 0xD231, offset: 0xD231, size: 0x8, addend: 0x0, symName: __ZNKSt3__117__compressed_pairIPiNS_22__allocator_destructorINS_9allocatorIiEEEEE5firstB8ue170006Ev, symObjAddr: 0x4864, symBinAddr: 0x100006880, symSize: 0x24 }
  - { offsetInCU: 0xD257, offset: 0xD257, size: 0x8, addend: 0x0, symName: __ZNKSt3__122__compressed_pair_elemIPiLi0ELb0EE5__getB8ue170006Ev, symObjAddr: 0x4888, symBinAddr: 0x1000068A4, symSize: 0x14 }
  - { offsetInCU: 0xD27D, offset: 0xD27D, size: 0x8, addend: 0x0, symName: __ZNSt3__117__compressed_pairIPiNS_22__allocator_destructorINS_9allocatorIiEEEEE5firstB8ue170006Ev, symObjAddr: 0x489C, symBinAddr: 0x1000068B8, symSize: 0x24 }
  - { offsetInCU: 0xD2A3, offset: 0xD2A3, size: 0x8, addend: 0x0, symName: __ZNSt3__122__compressed_pair_elemIPiLi0ELb0EE5__getB8ue170006Ev, symObjAddr: 0x48C0, symBinAddr: 0x1000068DC, symSize: 0x14 }
  - { offsetInCU: 0xD2C9, offset: 0xD2C9, size: 0x8, addend: 0x0, symName: __ZNSt3__117__compressed_pairIPPiNS_9allocatorIS1_EEE5firstB8ue170006Ev, symObjAddr: 0x48D4, symBinAddr: 0x1000068F0, symSize: 0x24 }
  - { offsetInCU: 0xD2EF, offset: 0xD2EF, size: 0x8, addend: 0x0, symName: __ZNSt3__122__compressed_pair_elemIPPiLi0ELb0EE5__getB8ue170006Ev, symObjAddr: 0x48F8, symBinAddr: 0x100006914, symSize: 0x14 }
  - { offsetInCU: 0xD315, offset: 0xD315, size: 0x8, addend: 0x0, symName: __ZNSt3__117__compressed_pairIPPiRNS_9allocatorIS1_EEE5firstB8ue170006Ev, symObjAddr: 0x490C, symBinAddr: 0x100006928, symSize: 0x24 }
  - { offsetInCU: 0xD33B, offset: 0xD33B, size: 0x8, addend: 0x0, symName: __ZNSt3__110unique_ptrIPiNS_22__allocator_destructorINS_9allocatorIiEEEEED2B8ue170006Ev, symObjAddr: 0x4930, symBinAddr: 0x10000694C, symSize: 0x30 }
  - { offsetInCU: 0xD365, offset: 0xD365, size: 0x8, addend: 0x0, symName: __ZNSt3__110unique_ptrIPiNS_22__allocator_destructorINS_9allocatorIiEEEEE5resetB8ue170006ES1_, symObjAddr: 0x4960, symBinAddr: 0x10000697C, symSize: 0x78 }
  - { offsetInCU: 0xD3A9, offset: 0xD3A9, size: 0x8, addend: 0x0, symName: __ZNSt3__117__compressed_pairIPiNS_22__allocator_destructorINS_9allocatorIiEEEEE6secondB8ue170006Ev, symObjAddr: 0x49D8, symBinAddr: 0x1000069F4, symSize: 0x28 }
  - { offsetInCU: 0xD3CF, offset: 0xD3CF, size: 0x8, addend: 0x0, symName: __ZNSt3__122__allocator_destructorINS_9allocatorIiEEEclB8ue170006EPi, symObjAddr: 0x4A00, symBinAddr: 0x100006A1C, symSize: 0x34 }
  - { offsetInCU: 0xD403, offset: 0xD403, size: 0x8, addend: 0x0, symName: __ZNSt3__122__compressed_pair_elemINS_22__allocator_destructorINS_9allocatorIiEEEELi1ELb0EE5__getB8ue170006Ev, symObjAddr: 0x4A34, symBinAddr: 0x100006A50, symSize: 0x14 }
  - { offsetInCU: 0xD429, offset: 0xD429, size: 0x8, addend: 0x0, symName: __ZNSt3__114__split_bufferIPiRNS_9allocatorIS1_EEED2Ev, symObjAddr: 0x4A48, symBinAddr: 0x100006A64, symSize: 0x80 }
  - { offsetInCU: 0xD455, offset: 0xD455, size: 0x8, addend: 0x0, symName: __ZNSt3__114__split_bufferIPiRNS_9allocatorIS1_EEE5clearB8ue170006Ev, symObjAddr: 0x4AC8, symBinAddr: 0x100006AE4, symSize: 0x28 }
  - { offsetInCU: 0xD47B, offset: 0xD47B, size: 0x8, addend: 0x0, symName: __ZNKSt3__114__split_bufferIPiRNS_9allocatorIS1_EEE8capacityB8ue170006Ev, symObjAddr: 0x4AF0, symBinAddr: 0x100006B0C, symSize: 0x40 }
  - { offsetInCU: 0xD4A1, offset: 0xD4A1, size: 0x8, addend: 0x0, symName: __ZNSt3__114__split_bufferIPiRNS_9allocatorIS1_EEE17__destruct_at_endB8ue170006EPS1_, symObjAddr: 0x4B30, symBinAddr: 0x100006B4C, symSize: 0x2C }
  - { offsetInCU: 0xD4D5, offset: 0xD4D5, size: 0x8, addend: 0x0, symName: __ZNSt3__114__split_bufferIPiRNS_9allocatorIS1_EEE17__destruct_at_endB8ue170006EPS1_NS_17integral_constantIbLb0EEE, symObjAddr: 0x4B5C, symBinAddr: 0x100006B78, symSize: 0x94 }
  - { offsetInCU: 0xD515, offset: 0xD515, size: 0x8, addend: 0x0, symName: __ZNKSt3__114__split_bufferIPiRNS_9allocatorIS1_EEE9__end_capB8ue170006Ev, symObjAddr: 0x4BF0, symBinAddr: 0x100006C0C, symSize: 0x28 }
  - { offsetInCU: 0xD53B, offset: 0xD53B, size: 0x8, addend: 0x0, symName: __ZNKSt3__117__compressed_pairIPPiRNS_9allocatorIS1_EEE5firstB8ue170006Ev, symObjAddr: 0x4C18, symBinAddr: 0x100006C34, symSize: 0x24 }
  - { offsetInCU: 0xD561, offset: 0xD561, size: 0x8, addend: 0x0, symName: __ZNSt3__19allocatorIiE9constructB8ue170006IiJRKiEEEvPT_DpOT0_, symObjAddr: 0x4C3C, symBinAddr: 0x100006C58, symSize: 0x28 }
  - { offsetInCU: 0xD5B7, offset: 0xD5B7, size: 0x8, addend: 0x0, symName: __ZNSt3__111char_traitsIcE6lengthB8ue170006EPKc, symObjAddr: 0x4E58, symBinAddr: 0x100006E74, symSize: 0x48 }
  - { offsetInCU: 0xD5F8, offset: 0xD5F8, size: 0x8, addend: 0x0, symName: __ZNKSt3__113basic_ostreamIcNS_11char_traitsIcEEE6sentrycvbB8ue170006Ev, symObjAddr: 0x4EA0, symBinAddr: 0x100006EBC, symSize: 0x1C }
  - { offsetInCU: 0xD61E, offset: 0xD61E, size: 0x8, addend: 0x0, symName: __ZNSt3__119ostreambuf_iteratorIcNS_11char_traitsIcEEEC1B8ue170006ERNS_13basic_ostreamIcS2_EE, symObjAddr: 0x5104, symBinAddr: 0x100007120, symSize: 0x34 }
  - { offsetInCU: 0xD656, offset: 0xD656, size: 0x8, addend: 0x0, symName: __ZNKSt3__18ios_base5flagsB8ue170006Ev, symObjAddr: 0x5138, symBinAddr: 0x100007154, symSize: 0x18 }
  - { offsetInCU: 0xD67E, offset: 0xD67E, size: 0x8, addend: 0x0, symName: __ZNKSt3__19basic_iosIcNS_11char_traitsIcEEE4fillB8ue170006Ev, symObjAddr: 0x5150, symBinAddr: 0x10000716C, symSize: 0x64 }
  - { offsetInCU: 0xD6A6, offset: 0xD6A6, size: 0x8, addend: 0x0, symName: __ZNKSt3__119ostreambuf_iteratorIcNS_11char_traitsIcEEE6failedB8ue170006Ev, symObjAddr: 0x51B4, symBinAddr: 0x1000071D0, symSize: 0x24 }
  - { offsetInCU: 0xD6CC, offset: 0xD6CC, size: 0x8, addend: 0x0, symName: __ZNSt3__19basic_iosIcNS_11char_traitsIcEEE8setstateB8ue170006Ej, symObjAddr: 0x51D8, symBinAddr: 0x1000071F4, symSize: 0x2C }
  - { offsetInCU: 0xD701, offset: 0xD701, size: 0x8, addend: 0x0, symName: __ZNKSt3__18ios_base5widthB8ue170006Ev, symObjAddr: 0x5204, symBinAddr: 0x100007220, symSize: 0x18 }
  - { offsetInCU: 0xD729, offset: 0xD729, size: 0x8, addend: 0x0, symName: __ZNSt3__115basic_streambufIcNS_11char_traitsIcEEE5sputnB8ue170006EPKcl, symObjAddr: 0x521C, symBinAddr: 0x100007238, symSize: 0x3C }
  - { offsetInCU: 0xD76B, offset: 0xD76B, size: 0x8, addend: 0x0, symName: __ZNSt3__112basic_stringIcNS_11char_traitsIcEENS_9allocatorIcEEEC1B8ue170006Emc, symObjAddr: 0x5258, symBinAddr: 0x100007274, symSize: 0x3C }
  - { offsetInCU: 0xD7B3, offset: 0xD7B3, size: 0x8, addend: 0x0, symName: __ZNKSt3__112basic_stringIcNS_11char_traitsIcEENS_9allocatorIcEEE4dataB8ue170006Ev, symObjAddr: 0x5294, symBinAddr: 0x1000072B0, symSize: 0x28 }
  - { offsetInCU: 0xD7D9, offset: 0xD7D9, size: 0x8, addend: 0x0, symName: __ZNSt3__18ios_base5widthB8ue170006El, symObjAddr: 0x52BC, symBinAddr: 0x1000072D8, symSize: 0x2C }
  - { offsetInCU: 0xD81F, offset: 0xD81F, size: 0x8, addend: 0x0, symName: __ZNSt3__112basic_stringIcNS_11char_traitsIcEENS_9allocatorIcEEEC2B8ue170006Emc, symObjAddr: 0x52E8, symBinAddr: 0x100007304, symSize: 0x4C }
  - { offsetInCU: 0xD867, offset: 0xD867, size: 0x8, addend: 0x0, symName: __ZNSt3__117__compressed_pairINS_12basic_stringIcNS_11char_traitsIcEENS_9allocatorIcEEE5__repES5_EC1B8ue170006INS_18__default_init_tagESA_EEOT_OT0_, symObjAddr: 0x5334, symBinAddr: 0x100007350, symSize: 0x3C }
  - { offsetInCU: 0xD8BF, offset: 0xD8BF, size: 0x8, addend: 0x0, symName: __ZNSt3__117__compressed_pairINS_12basic_stringIcNS_11char_traitsIcEENS_9allocatorIcEEE5__repES5_EC2B8ue170006INS_18__default_init_tagESA_EEOT_OT0_, symObjAddr: 0x5370, symBinAddr: 0x10000738C, symSize: 0x3C }
  - { offsetInCU: 0xD917, offset: 0xD917, size: 0x8, addend: 0x0, symName: __ZNSt3__122__compressed_pair_elemINS_12basic_stringIcNS_11char_traitsIcEENS_9allocatorIcEEE5__repELi0ELb0EEC2B8ue170006ENS_18__default_init_tagE, symObjAddr: 0x53AC, symBinAddr: 0x1000073C8, symSize: 0x14 }
  - { offsetInCU: 0xD94B, offset: 0xD94B, size: 0x8, addend: 0x0, symName: __ZNSt3__122__compressed_pair_elemINS_9allocatorIcEELi1ELb1EEC2B8ue170006ENS_18__default_init_tagE, symObjAddr: 0x53C0, symBinAddr: 0x1000073DC, symSize: 0x2C }
  - { offsetInCU: 0xD97F, offset: 0xD97F, size: 0x8, addend: 0x0, symName: __ZNSt3__19allocatorIcEC2B8ue170006Ev, symObjAddr: 0x53EC, symBinAddr: 0x100007408, symSize: 0x2C }
  - { offsetInCU: 0xD9A9, offset: 0xD9A9, size: 0x8, addend: 0x0, symName: __ZNSt3__116__non_trivial_ifILb1ENS_9allocatorIcEEEC2B8ue170006Ev, symObjAddr: 0x5418, symBinAddr: 0x100007434, symSize: 0x14 }
  - { offsetInCU: 0xD9D3, offset: 0xD9D3, size: 0x8, addend: 0x0, symName: __ZNKSt3__112basic_stringIcNS_11char_traitsIcEENS_9allocatorIcEEE13__get_pointerB8ue170006Ev, symObjAddr: 0x5440, symBinAddr: 0x10000745C, symSize: 0x54 }
  - { offsetInCU: 0xD9F9, offset: 0xD9F9, size: 0x8, addend: 0x0, symName: __ZNKSt3__112basic_stringIcNS_11char_traitsIcEENS_9allocatorIcEEE9__is_longB8ue170006Ev, symObjAddr: 0x5494, symBinAddr: 0x1000074B0, symSize: 0x74 }
  - { offsetInCU: 0xDA1F, offset: 0xDA1F, size: 0x8, addend: 0x0, symName: __ZNKSt3__112basic_stringIcNS_11char_traitsIcEENS_9allocatorIcEEE18__get_long_pointerB8ue170006Ev, symObjAddr: 0x5508, symBinAddr: 0x100007524, symSize: 0x28 }
  - { offsetInCU: 0xDA45, offset: 0xDA45, size: 0x8, addend: 0x0, symName: __ZNKSt3__112basic_stringIcNS_11char_traitsIcEENS_9allocatorIcEEE19__get_short_pointerB8ue170006Ev, symObjAddr: 0x5530, symBinAddr: 0x10000754C, symSize: 0x28 }
  - { offsetInCU: 0xDA6B, offset: 0xDA6B, size: 0x8, addend: 0x0, symName: __ZNKSt3__117__compressed_pairINS_12basic_stringIcNS_11char_traitsIcEENS_9allocatorIcEEE5__repES5_E5firstB8ue170006Ev, symObjAddr: 0x5558, symBinAddr: 0x100007574, symSize: 0x24 }
  - { offsetInCU: 0xDA91, offset: 0xDA91, size: 0x8, addend: 0x0, symName: __ZNKSt3__122__compressed_pair_elemINS_12basic_stringIcNS_11char_traitsIcEENS_9allocatorIcEEE5__repELi0ELb0EE5__getB8ue170006Ev, symObjAddr: 0x557C, symBinAddr: 0x100007598, symSize: 0x14 }
  - { offsetInCU: 0xDAB7, offset: 0xDAB7, size: 0x8, addend: 0x0, symName: __ZNSt3__114pointer_traitsIPKcE10pointer_toB8ue170006ERS1_, symObjAddr: 0x5590, symBinAddr: 0x1000075AC, symSize: 0x14 }
  - { offsetInCU: 0xDADA, offset: 0xDADA, size: 0x8, addend: 0x0, symName: __ZNSt3__119ostreambuf_iteratorIcNS_11char_traitsIcEEEC2B8ue170006ERNS_13basic_ostreamIcS2_EE, symObjAddr: 0x55A4, symBinAddr: 0x1000075C0, symSize: 0x68 }
  - { offsetInCU: 0xDB12, offset: 0xDB12, size: 0x8, addend: 0x0, symName: __ZNKSt3__19basic_iosIcNS_11char_traitsIcEEE5rdbufB8ue170006Ev, symObjAddr: 0x560C, symBinAddr: 0x100007628, symSize: 0x24 }
  - { offsetInCU: 0xDB3A, offset: 0xDB3A, size: 0x8, addend: 0x0, symName: __ZNKSt3__18ios_base5rdbufB8ue170006Ev, symObjAddr: 0x5630, symBinAddr: 0x10000764C, symSize: 0x18 }
  - { offsetInCU: 0xDB60, offset: 0xDB60, size: 0x8, addend: 0x0, symName: __ZNSt3__111char_traitsIcE11eq_int_typeB8ue170006Eii, symObjAddr: 0x5648, symBinAddr: 0x100007664, symSize: 0x28 }
  - { offsetInCU: 0xDB93, offset: 0xDB93, size: 0x8, addend: 0x0, symName: __ZNSt3__111char_traitsIcE3eofB8ue170006Ev, symObjAddr: 0x5670, symBinAddr: 0x10000768C, symSize: 0x8 }
  - { offsetInCU: 0xDBA7, offset: 0xDBA7, size: 0x8, addend: 0x0, symName: __ZNKSt3__19basic_iosIcNS_11char_traitsIcEEE5widenB8ue170006Ec, symObjAddr: 0x5678, symBinAddr: 0x100007694, symSize: 0x8C }
  - { offsetInCU: 0xDC10, offset: 0xDC10, size: 0x8, addend: 0x0, symName: __ZNKSt3__15ctypeIcE5widenB8ue170006Ec, symObjAddr: 0x5730, symBinAddr: 0x10000774C, symSize: 0x38 }
  - { offsetInCU: 0xDC45, offset: 0xDC45, size: 0x8, addend: 0x0, symName: __ZNSt3__18ios_base8setstateB8ue170006Ej, symObjAddr: 0x5768, symBinAddr: 0x100007784, symSize: 0x34 }
...
