---
triple:          'arm64-apple-darwin'
binary-path:     '/Users/kajalbormon/Developer/Code/HakerRank/vector_sort/output/vector_sort'
relocations:
  - { offsetInCU: 0x47D1, offset: 0x47D1, size: 0x8, addend: 0x0, symName: __ZNSt3__111__sift_downB8ue170006INS_17_ClassicAlgPolicyERNS_6__lessIvvEEPiEEvT1_OT0_NS_15iterator_traitsIS6_E15difference_typeES6_, symObjAddr: 0x275C, symBinAddr: 0x100006778, symSize: 0x20C }
  - { offsetInCU: 0x487E, offset: 0x487E, size: 0x8, addend: 0x0, symName: __ZNSt3__117__floyd_sift_downB8ue170006INS_17_ClassicAlgPolicyERNS_6__lessIvvEEPiEET1_S6_OT0_NS_15iterator_traitsIS6_E15difference_typeE, symObjAddr: 0x2B98, symBinAddr: 0x100006BB4, symSize: 0x100 }
  - { offsetInCU: 0x4916, offset: 0x4916, size: 0x8, addend: 0x0, symName: __ZNSt3__124__put_character_sequenceB8ue170006IcNS_11char_traitsIcEEEERNS_13basic_ostreamIT_T0_EES7_PKS4_m, symObjAddr: 0x2E74, symBinAddr: 0x100006E90, symSize: 0x1F4 }
  - { offsetInCU: 0x646F, offset: 0x646F, size: 0x8, addend: 0x0, symName: __ZNSt3__14sortB8ue170006INS_11__wrap_iterIPiEEEEvT_S4_, symObjAddr: 0x214, symBinAddr: 0x100004230, symSize: 0x3C }
  - { offsetInCU: 0x64B1, offset: 0x64B1, size: 0x8, addend: 0x0, symName: __ZNSt3__1lsB8ue170006INS_11char_traitsIcEEEERNS_13basic_ostreamIcT_EES6_PKc, symObjAddr: 0x2B0, symBinAddr: 0x1000042CC, symSize: 0x48 }
  - { offsetInCU: 0x64F7, offset: 0x64F7, size: 0x8, addend: 0x0, symName: __ZNSt3__14endlB8ue170006IcNS_11char_traitsIcEEEERNS_13basic_ostreamIT_T0_EES7_, symObjAddr: 0x348, symBinAddr: 0x100004364, symSize: 0x58 }
  - { offsetInCU: 0x6537, offset: 0x6537, size: 0x8, addend: 0x0, symName: __ZNSt3__112__to_addressB8ue170006IiEEPT_S2_, symObjAddr: 0x888, symBinAddr: 0x1000048A4, symSize: 0x14 }
  - { offsetInCU: 0x656C, offset: 0x656C, size: 0x8, addend: 0x0, symName: __ZNSt3__130__libcpp_is_constant_evaluatedB8ue170006Ev, symObjAddr: 0x990, symBinAddr: 0x1000049AC, symSize: 0xC }
  - { offsetInCU: 0x6589, offset: 0x6589, size: 0x8, addend: 0x0, symName: __ZNSt3__119__libcpp_deallocateB8ue170006EPvmm, symObjAddr: 0x99C, symBinAddr: 0x1000049B8, symSize: 0x30 }
  - { offsetInCU: 0x65D1, offset: 0x65D1, size: 0x8, addend: 0x0, symName: __ZNSt3__127__do_deallocate_handle_sizeB8ue170006IJEEEvPvmDpT_, symObjAddr: 0x9CC, symBinAddr: 0x1000049E8, symSize: 0x28 }
  - { offsetInCU: 0x660F, offset: 0x660F, size: 0x8, addend: 0x0, symName: __ZNSt3__124__libcpp_operator_deleteB8ue170006IJPvEEEvDpT_, symObjAddr: 0x9F4, symBinAddr: 0x100004A10, symSize: 0x24 }
  - { offsetInCU: 0x6644, offset: 0x6644, size: 0x8, addend: 0x0, symName: __ZNSt3__13maxB8ue170006ImEERKT_S3_S3_, symObjAddr: 0x1074, symBinAddr: 0x100005090, symSize: 0x2C }
  - { offsetInCU: 0x6687, offset: 0x6687, size: 0x8, addend: 0x0, symName: __ZNSt3__13minB8ue170006ImEERKT_S3_S3_, symObjAddr: 0x10A0, symBinAddr: 0x1000050BC, symSize: 0x2C }
  - { offsetInCU: 0x68CB, offset: 0x68CB, size: 0x8, addend: 0x0, symName: __ZNSt3__13minB8ue170006ImNS_6__lessIvvEEEERKT_S5_S5_T0_, symObjAddr: 0x112C, symBinAddr: 0x100005148, symSize: 0x54 }
  - { offsetInCU: 0x699B, offset: 0x699B, size: 0x8, addend: 0x0, symName: __ZNSt3__120__throw_length_errorB8ue170006EPKc, symObjAddr: 0x1208, symBinAddr: 0x100005224, symSize: 0x64 }
  - { offsetInCU: 0x69C5, offset: 0x69C5, size: 0x8, addend: 0x0, symName: __ZNSt3__13maxB8ue170006ImNS_6__lessIvvEEEERKT_S5_S5_T0_, symObjAddr: 0x12EC, symBinAddr: 0x100005308, symSize: 0x54 }
  - { offsetInCU: 0x6A1F, offset: 0x6A1F, size: 0x8, addend: 0x0, symName: __ZNSt3__119__allocate_at_leastB8ue170006INS_9allocatorIiEEEENS_19__allocation_resultINS_16allocator_traitsIT_E7pointerEEERS5_m, symObjAddr: 0x1450, symBinAddr: 0x10000546C, symSize: 0x40 }
  - { offsetInCU: 0x6A62, offset: 0x6A62, size: 0x8, addend: 0x0, symName: __ZNSt3__117__libcpp_allocateB8ue170006Emm, symObjAddr: 0x1600, symBinAddr: 0x10000561C, symSize: 0x28 }
  - { offsetInCU: 0x6A9F, offset: 0x6A9F, size: 0x8, addend: 0x0, symName: __ZNSt3__121__libcpp_operator_newB8ue170006IJmEEEPvDpT_, symObjAddr: 0x1628, symBinAddr: 0x100005644, symSize: 0x24 }
  - { offsetInCU: 0x6AD8, offset: 0x6AD8, size: 0x8, addend: 0x0, symName: __ZNSt3__142__uninitialized_allocator_move_if_noexceptB8ue170006INS_9allocatorIiEENS_16reverse_iteratorIPiEES5_ivEET1_RT_T0_S9_S6_, symObjAddr: 0x16B0, symBinAddr: 0x1000056CC, symSize: 0xE8 }
  - { offsetInCU: 0x6B55, offset: 0x6B55, size: 0x8, addend: 0x0, symName: __ZNSt3__14swapB8ue170006IPiEEvRT_S3_, symObjAddr: 0x17E4, symBinAddr: 0x100005800, symSize: 0x3C }
  - { offsetInCU: 0x6BA6, offset: 0x6BA6, size: 0x8, addend: 0x0, symName: __ZNSt3__1neB8ue170006IPiS1_EEbRKNS_16reverse_iteratorIT_EERKNS2_IT0_EE, symObjAddr: 0x18CC, symBinAddr: 0x1000058E8, symSize: 0x48 }
  - { offsetInCU: 0x6C17, offset: 0x6C17, size: 0x8, addend: 0x0, symName: __ZNSt3__114__construct_atB8ue170006IiJiEPiEEPT_S3_DpOT0_, symObjAddr: 0x1914, symBinAddr: 0x100005930, symSize: 0x2C }
  - { offsetInCU: 0x6C87, offset: 0x6C87, size: 0x8, addend: 0x0, symName: __ZNSt3__112__to_addressB8ue170006INS_16reverse_iteratorIPiEEvEEu7__decayIDTclsr19__to_address_helperIT_EE6__callclsr3stdE7declvalIRKS4_EEEEES6_, symObjAddr: 0x1940, symBinAddr: 0x10000595C, symSize: 0x24 }
  - { offsetInCU: 0x6CBD, offset: 0x6CBD, size: 0x8, addend: 0x0, symName: __ZNSt3__14moveB8ue170006INS_16reverse_iteratorIPiEES3_EET0_T_S5_S4_, symObjAddr: 0x19AC, symBinAddr: 0x1000059C8, symSize: 0x78 }
  - { offsetInCU: 0x6D40, offset: 0x6D40, size: 0x8, addend: 0x0, symName: __ZNSt3__16__moveB8ue170006INS_17_ClassicAlgPolicyENS_16reverse_iteratorIPiEES4_S4_EENS_4pairIT0_T2_EES6_T1_S7_, symObjAddr: 0x1A94, symBinAddr: 0x100005AB0, symSize: 0x64 }
  - { offsetInCU: 0x6DAC, offset: 0x6DAC, size: 0x8, addend: 0x0, symName: __ZNSt3__123__dispatch_copy_or_moveB8ue170006INS_17_ClassicAlgPolicyENS_11__move_loopIS1_EENS_14__move_trivialENS_16reverse_iteratorIPiEES7_S7_EENS_4pairIT2_T4_EES9_T3_SA_, symObjAddr: 0x1AF8, symBinAddr: 0x100005B14, symSize: 0x64 }
  - { offsetInCU: 0x6E2A, offset: 0x6E2A, size: 0x8, addend: 0x0, symName: __ZNSt3__121__unwrap_and_dispatchB8ue170006INS_10__overloadINS_11__move_loopINS_17_ClassicAlgPolicyEEENS_14__move_trivialEEENS_16reverse_iteratorIPiEES9_S9_Li0EEENS_4pairIT0_T2_EESB_T1_SC_, symObjAddr: 0x1B5C, symBinAddr: 0x100005B78, symSize: 0x12C }
  - { offsetInCU: 0x6EBA, offset: 0x6EBA, size: 0x8, addend: 0x0, symName: __ZNSt3__114__unwrap_rangeB8ue170006INS_16reverse_iteratorIPiEES3_EENS_4pairIT0_S5_EET_S7_, symObjAddr: 0x1C88, symBinAddr: 0x100005CA4, symSize: 0x84 }
  - { offsetInCU: 0x700E, offset: 0x700E, size: 0x8, addend: 0x0, symName: __ZNSt3__113__unwrap_iterB8ue170006INS_16reverse_iteratorIPiEENS_18__unwrap_iter_implIS3_Lb0EEELi0EEEDTclsrT0_8__unwrapclsr3stdE7declvalIT_EEEES7_, symObjAddr: 0x1DAC, symBinAddr: 0x100005DC8, symSize: 0x44 }
  - { offsetInCU: 0x7052, offset: 0x7052, size: 0x8, addend: 0x0, symName: __ZNSt3__19make_pairB8ue170006INS_16reverse_iteratorIPiEES3_EENS_4pairINS_18__unwrap_ref_decayIT_E4typeENS5_IT0_E4typeEEEOS6_OS9_, symObjAddr: 0x1DF0, symBinAddr: 0x100005E0C, symSize: 0x38 }
  - { offsetInCU: 0x70A1, offset: 0x70A1, size: 0x8, addend: 0x0, symName: __ZNSt3__114__rewrap_rangeB8ue170006INS_16reverse_iteratorIPiEES3_EET_S4_T0_, symObjAddr: 0x1E28, symBinAddr: 0x100005E44, symSize: 0x5C }
  - { offsetInCU: 0x70ED, offset: 0x70ED, size: 0x8, addend: 0x0, symName: __ZNSt3__113__rewrap_iterB8ue170006INS_16reverse_iteratorIPiEES3_NS_18__unwrap_iter_implIS3_Lb0EEEEET_S6_T0_, symObjAddr: 0x1E84, symBinAddr: 0x100005EA0, symSize: 0x88 }
  - { offsetInCU: 0x7272, offset: 0x7272, size: 0x8, addend: 0x0, symName: __ZNSt3__14sortB8ue170006INS_11__wrap_iterIPiEENS_6__lessIvvEEEEvT_S6_T0_, symObjAddr: 0x2298, symBinAddr: 0x1000062B4, symSize: 0x40 }
  - { offsetInCU: 0x72CC, offset: 0x72CC, size: 0x8, addend: 0x0, symName: __ZNSt3__111__sort_implB8ue170006INS_17_ClassicAlgPolicyENS_11__wrap_iterIPiEENS_6__lessIvvEEEEvT0_S7_RT1_, symObjAddr: 0x22D8, symBinAddr: 0x1000062F4, symSize: 0x108 }
  - { offsetInCU: 0x732F, offset: 0x732F, size: 0x8, addend: 0x0, symName: __ZNSt3__123__debug_randomize_rangeB8ue170006INS_17_ClassicAlgPolicyENS_11__wrap_iterIPiEES4_EEvT0_T1_, symObjAddr: 0x23E0, symBinAddr: 0x1000063FC, symSize: 0x14 }
  - { offsetInCU: 0x7380, offset: 0x7380, size: 0x8, addend: 0x0, symName: __ZNSt3__114__partial_sortB8ue170006INS_17_ClassicAlgPolicyENS_6__lessIvvEEPiS4_EET1_S5_S5_T2_RT0_, symObjAddr: 0x23F4, symBinAddr: 0x100006410, symSize: 0x94 }
  - { offsetInCU: 0x7408, offset: 0x7408, size: 0x8, addend: 0x0, symName: __ZNSt3__113__unwrap_iterB8ue170006INS_11__wrap_iterIPiEENS_18__unwrap_iter_implIS3_Lb1EEELi0EEEDTclsrT0_8__unwrapclsr3stdE7declvalIT_EEEES7_, symObjAddr: 0x2488, symBinAddr: 0x1000064A4, symSize: 0x2C }
  - { offsetInCU: 0x744C, offset: 0x744C, size: 0x8, addend: 0x0, symName: __ZNSt3__115__sort_dispatchB8ue170006INS_17_ClassicAlgPolicyEiLi0EEEvPT0_S3_RNS_6__lessIvvEE, symObjAddr: 0x24B4, symBinAddr: 0x1000064D0, symSize: 0x34 }
  - { offsetInCU: 0x74B7, offset: 0x74B7, size: 0x8, addend: 0x0, symName: __ZNSt3__135__check_strict_weak_ordering_sortedB8ue170006IPiNS_6__lessIvvEEEEvT_S4_RT0_, symObjAddr: 0x24E8, symBinAddr: 0x100006504, symSize: 0x18 }
  - { offsetInCU: 0x750D, offset: 0x750D, size: 0x8, addend: 0x0, symName: __ZNSt3__123__debug_randomize_rangeB8ue170006INS_17_ClassicAlgPolicyEPiS2_EEvT0_T1_, symObjAddr: 0x2518, symBinAddr: 0x100006534, symSize: 0x14 }
  - { offsetInCU: 0x755E, offset: 0x755E, size: 0x8, addend: 0x0, symName: __ZNSt3__119__partial_sort_implB8ue170006INS_17_ClassicAlgPolicyERNS_6__lessIvvEEPiS5_EET1_S6_S6_T2_OT0_, symObjAddr: 0x252C, symBinAddr: 0x100006548, symSize: 0x110 }
  - { offsetInCU: 0x75F4, offset: 0x75F4, size: 0x8, addend: 0x0, symName: __ZNSt3__111__make_heapB8ue170006INS_17_ClassicAlgPolicyERNS_6__lessIvvEEPiEEvT1_S6_OT0_, symObjAddr: 0x263C, symBinAddr: 0x100006658, symSize: 0xB8 }
  - { offsetInCU: 0x7696, offset: 0x7696, size: 0x8, addend: 0x0, symName: __ZNSt3__111__sort_heapB8ue170006INS_17_ClassicAlgPolicyERNS_6__lessIvvEEPiEEvT1_S6_OT0_, symObjAddr: 0x2968, symBinAddr: 0x100006984, symSize: 0xA8 }
  - { offsetInCU: 0x7738, offset: 0x7738, size: 0x8, addend: 0x0, symName: __ZNSt3__19iter_swapB8ue170006IPiS1_EEvT_T0_, symObjAddr: 0x2A10, symBinAddr: 0x100006A2C, symSize: 0x2C }
  - { offsetInCU: 0x7780, offset: 0x7780, size: 0x8, addend: 0x0, symName: __ZNSt3__14swapB8ue170006IiEEvRT_S2_, symObjAddr: 0x2A3C, symBinAddr: 0x100006A58, symSize: 0x3C }
  - { offsetInCU: 0x77D1, offset: 0x77D1, size: 0x8, addend: 0x0, symName: __ZNSt3__110__pop_heapB8ue170006INS_17_ClassicAlgPolicyENS_6__lessIvvEEPiEEvT1_S5_RT0_NS_15iterator_traitsIS5_E15difference_typeE, symObjAddr: 0x2AA4, symBinAddr: 0x100006AC0, symSize: 0xF4 }
  - { offsetInCU: 0x7881, offset: 0x7881, size: 0x8, addend: 0x0, symName: __ZNSt3__19__sift_upB8ue170006INS_17_ClassicAlgPolicyERNS_6__lessIvvEEPiEEvT1_S6_OT0_NS_15iterator_traitsIS6_E15difference_typeE, symObjAddr: 0x2C98, symBinAddr: 0x100006CB4, symSize: 0x11C }
  - { offsetInCU: 0x7984, offset: 0x7984, size: 0x8, addend: 0x0, symName: __ZNSt3__112__to_addressB8ue170006INS_11__wrap_iterIPiEEvEEu7__decayIDTclsr19__to_address_helperIT_EE6__callclsr3stdE7declvalIRKS4_EEEEES6_, symObjAddr: 0x2DDC, symBinAddr: 0x100006DF8, symSize: 0x24 }
  - { offsetInCU: 0x7A5F, offset: 0x7A5F, size: 0x8, addend: 0x0, symName: __ZNSt3__116__pad_and_outputB8ue170006IcNS_11char_traitsIcEEEENS_19ostreambuf_iteratorIT_T0_EES6_PKS4_S8_S8_RNS_8ios_baseES4_, symObjAddr: 0x30CC, symBinAddr: 0x1000070E8, symSize: 0x248 }
  - { offsetInCU: 0x7B2E, offset: 0x7B2E, size: 0x8, addend: 0x0, symName: __ZNSt3__112__to_addressB8ue170006IKcEEPT_S3_, symObjAddr: 0x363C, symBinAddr: 0x100007658, symSize: 0x14 }
  - { offsetInCU: 0x7B96, offset: 0x7B96, size: 0x8, addend: 0x0, symName: __ZNSt3__19use_facetB8ue170006INS_5ctypeIcEEEERKT_RKNS_6localeE, symObjAddr: 0x3914, symBinAddr: 0x100007930, symSize: 0x2C }
  - { offsetInCU: 0x8063, offset: 0x8063, size: 0x8, addend: 0x0, symName: __ZNSt3__118__constexpr_strlenB8ue170006EPKc, symObjAddr: 0x39AC, symBinAddr: 0x1000079C8, symSize: 0x24 }
  - { offsetInCU: 0x82B1, offset: 0x82B1, size: 0x8, addend: 0x0, symName: __ZSt28__throw_bad_array_new_lengthB8ue170006v, symObjAddr: 0x15CC, symBinAddr: 0x1000055E8, symSize: 0x34 }
  - { offsetInCU: 0x8748, offset: 0x8748, size: 0x8, addend: 0x0, symName: __ZNSt3__16vectorIiNS_9allocatorIiEEE26__swap_out_circular_bufferERNS_14__split_bufferIiRS2_EE, symObjAddr: 0xEA8, symBinAddr: 0x100004EC4, symSize: 0x110 }
  - { offsetInCU: 0xABD1, offset: 0xABD1, size: 0x8, addend: 0x0, symName: _main, symObjAddr: 0x0, symBinAddr: 0x10000401C, symSize: 0x17C }
  - { offsetInCU: 0xAC4E, offset: 0xAC4E, size: 0x8, addend: 0x0, symName: __ZNSt3__16vectorIiNS_9allocatorIiEEEC1B8ue170006Ev, symObjAddr: 0x17C, symBinAddr: 0x100004198, symSize: 0x2C }
  - { offsetInCU: 0xAC76, offset: 0xAC76, size: 0x8, addend: 0x0, symName: __ZNSt3__16vectorIiNS_9allocatorIiEEE9push_backB8ue170006ERKi, symObjAddr: 0x1A8, symBinAddr: 0x1000041C4, symSize: 0x6C }
  - { offsetInCU: 0xACAB, offset: 0xACAB, size: 0x8, addend: 0x0, symName: __ZNSt3__16vectorIiNS_9allocatorIiEEE5beginB8ue170006Ev, symObjAddr: 0x250, symBinAddr: 0x10000426C, symSize: 0x30 }
  - { offsetInCU: 0xACD1, offset: 0xACD1, size: 0x8, addend: 0x0, symName: __ZNSt3__16vectorIiNS_9allocatorIiEEE3endB8ue170006Ev, symObjAddr: 0x280, symBinAddr: 0x10000429C, symSize: 0x30 }
  - { offsetInCU: 0xACF8, offset: 0xACF8, size: 0x8, addend: 0x0, symName: __ZNSt3__16vectorIiNS_9allocatorIiEEEixB8ue170006Em, symObjAddr: 0x2F8, symBinAddr: 0x100004314, symSize: 0x24 }
  - { offsetInCU: 0xAD2E, offset: 0xAD2E, size: 0x8, addend: 0x0, symName: __ZNSt3__113basic_ostreamIcNS_11char_traitsIcEEElsB8ue170006EPFRS3_S4_E, symObjAddr: 0x31C, symBinAddr: 0x100004338, symSize: 0x2C }
  - { offsetInCU: 0xAD61, offset: 0xAD61, size: 0x8, addend: 0x0, symName: __ZNSt3__16vectorIiNS_9allocatorIiEEED1B8ue170006Ev, symObjAddr: 0x3A0, symBinAddr: 0x1000043BC, symSize: 0x2C }
  - { offsetInCU: 0xAD8A, offset: 0xAD8A, size: 0x8, addend: 0x0, symName: __ZNSt3__16vectorIiNS_9allocatorIiEEEC2B8ue170006Ev, symObjAddr: 0x3D8, symBinAddr: 0x1000043F4, symSize: 0x44 }
  - { offsetInCU: 0xADBD, offset: 0xADBD, size: 0x8, addend: 0x0, symName: __ZNSt3__117__compressed_pairIPiNS_9allocatorIiEEEC1B8ue170006IDnNS_18__default_init_tagEEEOT_OT0_, symObjAddr: 0x41C, symBinAddr: 0x100004438, symSize: 0x3C }
  - { offsetInCU: 0xAE14, offset: 0xAE14, size: 0x8, addend: 0x0, symName: __ZNSt3__117__compressed_pairIPiNS_9allocatorIiEEEC2B8ue170006IDnNS_18__default_init_tagEEEOT_OT0_, symObjAddr: 0x458, symBinAddr: 0x100004474, symSize: 0x40 }
  - { offsetInCU: 0xAE6B, offset: 0xAE6B, size: 0x8, addend: 0x0, symName: __ZNSt3__122__compressed_pair_elemIPiLi0ELb0EEC2B8ue170006IDnvEEOT_, symObjAddr: 0x498, symBinAddr: 0x1000044B4, symSize: 0x1C }
  - { offsetInCU: 0xAEAC, offset: 0xAEAC, size: 0x8, addend: 0x0, symName: __ZNSt3__122__compressed_pair_elemINS_9allocatorIiEELi1ELb1EEC2B8ue170006ENS_18__default_init_tagE, symObjAddr: 0x4B4, symBinAddr: 0x1000044D0, symSize: 0x2C }
  - { offsetInCU: 0xAEE0, offset: 0xAEE0, size: 0x8, addend: 0x0, symName: __ZNSt3__19allocatorIiEC2B8ue170006Ev, symObjAddr: 0x4E0, symBinAddr: 0x1000044FC, symSize: 0x2C }
  - { offsetInCU: 0xAF09, offset: 0xAF09, size: 0x8, addend: 0x0, symName: __ZNSt3__116__non_trivial_ifILb1ENS_9allocatorIiEEEC2B8ue170006Ev, symObjAddr: 0x50C, symBinAddr: 0x100004528, symSize: 0x14 }
  - { offsetInCU: 0xAF32, offset: 0xAF32, size: 0x8, addend: 0x0, symName: __ZNSt3__16vectorIiNS_9allocatorIiEEED2B8ue170006Ev, symObjAddr: 0x520, symBinAddr: 0x10000453C, symSize: 0x3C }
  - { offsetInCU: 0xAF5B, offset: 0xAF5B, size: 0x8, addend: 0x0, symName: __ZNSt3__16vectorIiNS_9allocatorIiEEE16__destroy_vectorC1B8ue170006ERS3_, symObjAddr: 0x55C, symBinAddr: 0x100004578, symSize: 0x34 }
  - { offsetInCU: 0xAF93, offset: 0xAF93, size: 0x8, addend: 0x0, symName: __ZNSt3__16vectorIiNS_9allocatorIiEEE16__destroy_vectorclB8ue170006Ev, symObjAddr: 0x590, symBinAddr: 0x1000045AC, symSize: 0x90 }
  - { offsetInCU: 0xAFB8, offset: 0xAFB8, size: 0x8, addend: 0x0, symName: __ZNSt3__16vectorIiNS_9allocatorIiEEE16__destroy_vectorC2B8ue170006ERS3_, symObjAddr: 0x620, symBinAddr: 0x10000463C, symSize: 0x20 }
  - { offsetInCU: 0xAFF0, offset: 0xAFF0, size: 0x8, addend: 0x0, symName: __ZNSt3__16vectorIiNS_9allocatorIiEEE7__clearB8ue170006Ev, symObjAddr: 0x640, symBinAddr: 0x10000465C, symSize: 0x28 }
  - { offsetInCU: 0xB015, offset: 0xB015, size: 0x8, addend: 0x0, symName: __ZNKSt3__16vectorIiNS_9allocatorIiEEE17__annotate_deleteB8ue170006Ev, symObjAddr: 0x668, symBinAddr: 0x100004684, symSize: 0xB8 }
  - { offsetInCU: 0xB03A, offset: 0xB03A, size: 0x8, addend: 0x0, symName: __ZNSt3__116allocator_traitsINS_9allocatorIiEEE10deallocateB8ue170006ERS2_Pim, symObjAddr: 0x720, symBinAddr: 0x10000473C, symSize: 0x34 }
  - { offsetInCU: 0xB07C, offset: 0xB07C, size: 0x8, addend: 0x0, symName: __ZNSt3__16vectorIiNS_9allocatorIiEEE7__allocB8ue170006Ev, symObjAddr: 0x754, symBinAddr: 0x100004770, symSize: 0x28 }
  - { offsetInCU: 0xB0A1, offset: 0xB0A1, size: 0x8, addend: 0x0, symName: __ZNKSt3__16vectorIiNS_9allocatorIiEEE8capacityB8ue170006Ev, symObjAddr: 0x77C, symBinAddr: 0x100004798, symSize: 0x40 }
  - { offsetInCU: 0xB0C6, offset: 0xB0C6, size: 0x8, addend: 0x0, symName: __ZNSt3__16vectorIiNS_9allocatorIiEEE22__base_destruct_at_endB8ue170006EPi, symObjAddr: 0x7BC, symBinAddr: 0x1000047D8, symSize: 0xA0 }
  - { offsetInCU: 0xB109, offset: 0xB109, size: 0x8, addend: 0x0, symName: __ZNSt3__116allocator_traitsINS_9allocatorIiEEE7destroyB8ue170006IivEEvRS2_PT_, symObjAddr: 0x85C, symBinAddr: 0x100004878, symSize: 0x2C }
  - { offsetInCU: 0xB146, offset: 0xB146, size: 0x8, addend: 0x0, symName: __ZNSt3__19allocatorIiE7destroyB8ue170006EPi, symObjAddr: 0x89C, symBinAddr: 0x1000048B8, symSize: 0x14 }
  - { offsetInCU: 0xB179, offset: 0xB179, size: 0x8, addend: 0x0, symName: __ZNKSt3__16vectorIiNS_9allocatorIiEEE31__annotate_contiguous_containerB8ue170006EPKvS5_S5_S5_, symObjAddr: 0x8B0, symBinAddr: 0x1000048CC, symSize: 0x20 }
  - { offsetInCU: 0xB1CA, offset: 0xB1CA, size: 0x8, addend: 0x0, symName: __ZNKSt3__16vectorIiNS_9allocatorIiEEE4dataB8ue170006Ev, symObjAddr: 0x8D0, symBinAddr: 0x1000048EC, symSize: 0x28 }
  - { offsetInCU: 0xB1EF, offset: 0xB1EF, size: 0x8, addend: 0x0, symName: __ZNKSt3__16vectorIiNS_9allocatorIiEEE4sizeB8ue170006Ev, symObjAddr: 0x8F8, symBinAddr: 0x100004914, symSize: 0x28 }
  - { offsetInCU: 0xB214, offset: 0xB214, size: 0x8, addend: 0x0, symName: __ZNSt3__19allocatorIiE10deallocateB8ue170006EPim, symObjAddr: 0x920, symBinAddr: 0x10000493C, symSize: 0x70 }
  - { offsetInCU: 0xB255, offset: 0xB255, size: 0x8, addend: 0x0, symName: __ZNSt3__117__compressed_pairIPiNS_9allocatorIiEEE6secondB8ue170006Ev, symObjAddr: 0xA18, symBinAddr: 0x100004A34, symSize: 0x24 }
  - { offsetInCU: 0xB27A, offset: 0xB27A, size: 0x8, addend: 0x0, symName: __ZNSt3__122__compressed_pair_elemINS_9allocatorIiEELi1ELb1EE5__getB8ue170006Ev, symObjAddr: 0xA3C, symBinAddr: 0x100004A58, symSize: 0x14 }
  - { offsetInCU: 0xB29F, offset: 0xB29F, size: 0x8, addend: 0x0, symName: __ZNKSt3__16vectorIiNS_9allocatorIiEEE9__end_capB8ue170006Ev, symObjAddr: 0xA50, symBinAddr: 0x100004A6C, symSize: 0x28 }
  - { offsetInCU: 0xB2C4, offset: 0xB2C4, size: 0x8, addend: 0x0, symName: __ZNKSt3__117__compressed_pairIPiNS_9allocatorIiEEE5firstB8ue170006Ev, symObjAddr: 0xA78, symBinAddr: 0x100004A94, symSize: 0x24 }
  - { offsetInCU: 0xB2E9, offset: 0xB2E9, size: 0x8, addend: 0x0, symName: __ZNKSt3__122__compressed_pair_elemIPiLi0ELb0EE5__getB8ue170006Ev, symObjAddr: 0xA9C, symBinAddr: 0x100004AB8, symSize: 0x14 }
  - { offsetInCU: 0xB30E, offset: 0xB30E, size: 0x8, addend: 0x0, symName: __ZNSt3__16vectorIiNS_9allocatorIiEEE9__end_capB8ue170006Ev, symObjAddr: 0xAB0, symBinAddr: 0x100004ACC, symSize: 0x28 }
  - { offsetInCU: 0xB333, offset: 0xB333, size: 0x8, addend: 0x0, symName: __ZNSt3__16vectorIiNS_9allocatorIiEEE22__construct_one_at_endB8ue170006IJRKiEEEvDpOT_, symObjAddr: 0xAD8, symBinAddr: 0x100004AF4, symSize: 0x98 }
  - { offsetInCU: 0xB380, offset: 0xB380, size: 0x8, addend: 0x0, symName: __ZNSt3__16vectorIiNS_9allocatorIiEEE21__push_back_slow_pathIRKiEEvOT_, symObjAddr: 0xB70, symBinAddr: 0x100004B8C, symSize: 0xE0 }
  - { offsetInCU: 0xB3DD, offset: 0xB3DD, size: 0x8, addend: 0x0, symName: __ZNSt3__117__compressed_pairIPiNS_9allocatorIiEEE5firstB8ue170006Ev, symObjAddr: 0xC50, symBinAddr: 0x100004C6C, symSize: 0x24 }
  - { offsetInCU: 0xB402, offset: 0xB402, size: 0x8, addend: 0x0, symName: __ZNSt3__122__compressed_pair_elemIPiLi0ELb0EE5__getB8ue170006Ev, symObjAddr: 0xC74, symBinAddr: 0x100004C90, symSize: 0x14 }
  - { offsetInCU: 0xB440, offset: 0xB440, size: 0x8, addend: 0x0, symName: __ZNSt3__16vectorIiNS_9allocatorIiEEE21_ConstructTransactionC1B8ue170006ERS3_m, symObjAddr: 0xC88, symBinAddr: 0x100004CA4, symSize: 0x3C }
  - { offsetInCU: 0xB487, offset: 0xB487, size: 0x8, addend: 0x0, symName: __ZNSt3__116allocator_traitsINS_9allocatorIiEEE9constructB8ue170006IiJRKiEvEEvRS2_PT_DpOT0_, symObjAddr: 0xCC4, symBinAddr: 0x100004CE0, symSize: 0x34 }
  - { offsetInCU: 0xB4DE, offset: 0xB4DE, size: 0x8, addend: 0x0, symName: __ZNSt3__16vectorIiNS_9allocatorIiEEE21_ConstructTransactionD1B8ue170006Ev, symObjAddr: 0xCF8, symBinAddr: 0x100004D14, symSize: 0x2C }
  - { offsetInCU: 0xB507, offset: 0xB507, size: 0x8, addend: 0x0, symName: __ZNSt3__16vectorIiNS_9allocatorIiEEE21_ConstructTransactionC2B8ue170006ERS3_m, symObjAddr: 0xD24, symBinAddr: 0x100004D40, symSize: 0x44 }
  - { offsetInCU: 0xB54E, offset: 0xB54E, size: 0x8, addend: 0x0, symName: __ZNSt3__19allocatorIiE9constructB8ue170006IiJRKiEEEvPT_DpOT0_, symObjAddr: 0xD68, symBinAddr: 0x100004D84, symSize: 0x28 }
  - { offsetInCU: 0xB5A3, offset: 0xB5A3, size: 0x8, addend: 0x0, symName: __ZNSt3__16vectorIiNS_9allocatorIiEEE21_ConstructTransactionD2B8ue170006Ev, symObjAddr: 0xD90, symBinAddr: 0x100004DAC, symSize: 0x20 }
  - { offsetInCU: 0xB5CB, offset: 0xB5CB, size: 0x8, addend: 0x0, symName: __ZNKSt3__16vectorIiNS_9allocatorIiEEE11__recommendB8ue170006Em, symObjAddr: 0xDB0, symBinAddr: 0x100004DCC, symSize: 0xB4 }
  - { offsetInCU: 0xB61F, offset: 0xB61F, size: 0x8, addend: 0x0, symName: __ZNSt3__114__split_bufferIiRNS_9allocatorIiEEEC1EmmS3_, symObjAddr: 0xE64, symBinAddr: 0x100004E80, symSize: 0x44 }
  - { offsetInCU: 0xB674, offset: 0xB674, size: 0x8, addend: 0x0, symName: __ZNSt3__114__split_bufferIiRNS_9allocatorIiEEED1Ev, symObjAddr: 0xFB8, symBinAddr: 0x100004FD4, symSize: 0x2C }
  - { offsetInCU: 0xB69E, offset: 0xB69E, size: 0x8, addend: 0x0, symName: __ZNKSt3__16vectorIiNS_9allocatorIiEEE8max_sizeEv, symObjAddr: 0xFE4, symBinAddr: 0x100005000, symSize: 0x74 }
  - { offsetInCU: 0xB6C5, offset: 0xB6C5, size: 0x8, addend: 0x0, symName: __ZNKSt3__16vectorIiNS_9allocatorIiEEE20__throw_length_errorB8ue170006Ev, symObjAddr: 0x1058, symBinAddr: 0x100005074, symSize: 0x1C }
  - { offsetInCU: 0xB6F4, offset: 0xB6F4, size: 0x8, addend: 0x0, symName: __ZNSt3__116allocator_traitsINS_9allocatorIiEEE8max_sizeB8ue170006IS2_vEEmRKS2_, symObjAddr: 0x10CC, symBinAddr: 0x1000050E8, symSize: 0x24 }
  - { offsetInCU: 0xB722, offset: 0xB722, size: 0x8, addend: 0x0, symName: __ZNKSt3__16vectorIiNS_9allocatorIiEEE7__allocB8ue170006Ev, symObjAddr: 0x10F0, symBinAddr: 0x10000510C, symSize: 0x28 }
  - { offsetInCU: 0xB747, offset: 0xB747, size: 0x8, addend: 0x0, symName: __ZNSt3__114numeric_limitsIlE3maxB8ue170006Ev, symObjAddr: 0x1118, symBinAddr: 0x100005134, symSize: 0x14 }
  - { offsetInCU: 0xB76F, offset: 0xB76F, size: 0x8, addend: 0x0, symName: __ZNKSt3__16__lessIvvEclB8ue170006ImmEEbRKT_RKT0_, symObjAddr: 0x1180, symBinAddr: 0x10000519C, symSize: 0x34 }
  - { offsetInCU: 0xB7C2, offset: 0xB7C2, size: 0x8, addend: 0x0, symName: __ZNKSt3__19allocatorIiE8max_sizeB8ue170006Ev, symObjAddr: 0x11B4, symBinAddr: 0x1000051D0, symSize: 0x14 }
  - { offsetInCU: 0xB7E7, offset: 0xB7E7, size: 0x8, addend: 0x0, symName: __ZNKSt3__117__compressed_pairIPiNS_9allocatorIiEEE6secondB8ue170006Ev, symObjAddr: 0x11C8, symBinAddr: 0x1000051E4, symSize: 0x24 }
  - { offsetInCU: 0xB80C, offset: 0xB80C, size: 0x8, addend: 0x0, symName: __ZNKSt3__122__compressed_pair_elemINS_9allocatorIiEELi1ELb1EE5__getB8ue170006Ev, symObjAddr: 0x11EC, symBinAddr: 0x100005208, symSize: 0x14 }
  - { offsetInCU: 0xB831, offset: 0xB831, size: 0x8, addend: 0x0, symName: __ZNSt3__123__libcpp_numeric_limitsIlLb1EE3maxB8ue170006Ev, symObjAddr: 0x1200, symBinAddr: 0x10000521C, symSize: 0x8 }
  - { offsetInCU: 0xB845, offset: 0xB845, size: 0x8, addend: 0x0, symName: __ZNSt12length_errorC1B8ue170006EPKc, symObjAddr: 0x126C, symBinAddr: 0x100005288, symSize: 0x34 }
  - { offsetInCU: 0xB87C, offset: 0xB87C, size: 0x8, addend: 0x0, symName: __ZNSt12length_errorC2B8ue170006EPKc, symObjAddr: 0x12A0, symBinAddr: 0x1000052BC, symSize: 0x4C }
  - { offsetInCU: 0xB8B3, offset: 0xB8B3, size: 0x8, addend: 0x0, symName: __ZNSt3__114__split_bufferIiRNS_9allocatorIiEEEC2EmmS3_, symObjAddr: 0x1340, symBinAddr: 0x10000535C, symSize: 0xD4 }
  - { offsetInCU: 0xB925, offset: 0xB925, size: 0x8, addend: 0x0, symName: __ZNSt3__117__compressed_pairIPiRNS_9allocatorIiEEEC1B8ue170006IDnS4_EEOT_OT0_, symObjAddr: 0x1414, symBinAddr: 0x100005430, symSize: 0x3C }
  - { offsetInCU: 0xB97C, offset: 0xB97C, size: 0x8, addend: 0x0, symName: __ZNSt3__114__split_bufferIiRNS_9allocatorIiEEE7__allocB8ue170006Ev, symObjAddr: 0x1490, symBinAddr: 0x1000054AC, symSize: 0x28 }
  - { offsetInCU: 0xB9A1, offset: 0xB9A1, size: 0x8, addend: 0x0, symName: __ZNSt3__114__split_bufferIiRNS_9allocatorIiEEE9__end_capB8ue170006Ev, symObjAddr: 0x14B8, symBinAddr: 0x1000054D4, symSize: 0x28 }
  - { offsetInCU: 0xB9C6, offset: 0xB9C6, size: 0x8, addend: 0x0, symName: __ZNSt3__117__compressed_pairIPiRNS_9allocatorIiEEEC2B8ue170006IDnS4_EEOT_OT0_, symObjAddr: 0x14E0, symBinAddr: 0x1000054FC, symSize: 0x48 }
  - { offsetInCU: 0xBA1D, offset: 0xBA1D, size: 0x8, addend: 0x0, symName: __ZNSt3__122__compressed_pair_elemIRNS_9allocatorIiEELi1ELb0EEC2B8ue170006IS3_vEEOT_, symObjAddr: 0x1528, symBinAddr: 0x100005544, symSize: 0x20 }
  - { offsetInCU: 0xBA5E, offset: 0xBA5E, size: 0x8, addend: 0x0, symName: __ZNSt3__19allocatorIiE8allocateB8ue170006Em, symObjAddr: 0x1548, symBinAddr: 0x100005564, symSize: 0x84 }
  - { offsetInCU: 0xBA91, offset: 0xBA91, size: 0x8, addend: 0x0, symName: __ZNSt3__117__compressed_pairIPiRNS_9allocatorIiEEE6secondB8ue170006Ev, symObjAddr: 0x164C, symBinAddr: 0x100005668, symSize: 0x28 }
  - { offsetInCU: 0xBAB6, offset: 0xBAB6, size: 0x8, addend: 0x0, symName: __ZNSt3__122__compressed_pair_elemIRNS_9allocatorIiEELi1ELb0EE5__getB8ue170006Ev, symObjAddr: 0x1674, symBinAddr: 0x100005690, symSize: 0x18 }
  - { offsetInCU: 0xBADB, offset: 0xBADB, size: 0x8, addend: 0x0, symName: __ZNSt3__117__compressed_pairIPiRNS_9allocatorIiEEE5firstB8ue170006Ev, symObjAddr: 0x168C, symBinAddr: 0x1000056A8, symSize: 0x24 }
  - { offsetInCU: 0xBB00, offset: 0xBB00, size: 0x8, addend: 0x0, symName: __ZNSt3__116reverse_iteratorIPiEC1B8ue170006ES1_, symObjAddr: 0x1798, symBinAddr: 0x1000057B4, symSize: 0x34 }
  - { offsetInCU: 0xBB37, offset: 0xBB37, size: 0x8, addend: 0x0, symName: __ZNKSt3__116reverse_iteratorIPiE4baseB8ue170006Ev, symObjAddr: 0x17CC, symBinAddr: 0x1000057E8, symSize: 0x18 }
  - { offsetInCU: 0xBB5C, offset: 0xBB5C, size: 0x8, addend: 0x0, symName: __ZNKSt3__16vectorIiNS_9allocatorIiEEE14__annotate_newB8ue170006Em, symObjAddr: 0x1820, symBinAddr: 0x10000583C, symSize: 0xAC }
  - { offsetInCU: 0xBB90, offset: 0xBB90, size: 0x8, addend: 0x0, symName: __ZNKSt3__116reverse_iteratorIPiEdeB8ue170006Ev, symObjAddr: 0x1964, symBinAddr: 0x100005980, symSize: 0x28 }
  - { offsetInCU: 0xBBC3, offset: 0xBBC3, size: 0x8, addend: 0x0, symName: __ZNSt3__116reverse_iteratorIPiEppB8ue170006Ev, symObjAddr: 0x198C, symBinAddr: 0x1000059A8, symSize: 0x20 }
  - { offsetInCU: 0xBBED, offset: 0xBBED, size: 0x8, addend: 0x0, symName: __ZNSt3__119__to_address_helperINS_16reverse_iteratorIPiEEvE6__callB8ue170006ERKS3_, symObjAddr: 0x1A24, symBinAddr: 0x100005A40, symSize: 0x4C }
  - { offsetInCU: 0xBC10, offset: 0xBC10, size: 0x8, addend: 0x0, symName: __ZNKSt3__116reverse_iteratorIPiEptB8ue170006Ev, symObjAddr: 0x1A70, symBinAddr: 0x100005A8C, symSize: 0x24 }
  - { offsetInCU: 0xBC58, offset: 0xBC58, size: 0x8, addend: 0x0, symName: __ZNKSt3__111__move_loopINS_17_ClassicAlgPolicyEEclB8ue170006INS_16reverse_iteratorIPiEES6_S6_EENS_4pairIT_T1_EES8_T0_S9_, symObjAddr: 0x1D0C, symBinAddr: 0x100005D28, symSize: 0xA0 }
  - { offsetInCU: 0xBCC7, offset: 0xBCC7, size: 0x8, addend: 0x0, symName: __ZNSt3__18_IterOpsINS_17_ClassicAlgPolicyEE11__iter_moveB8ue170006IRNS_16reverse_iteratorIPiEEEENS_9enable_ifIXsr12is_referenceIDTdeclsr3stdE7declvalIRT_EEEEE5valueEDTclsr3stdE4movedeclsr3stdE7declvalISA_EEEEE4typeEOS9_, symObjAddr: 0x1F0C, symBinAddr: 0x100005F28, symSize: 0x28 }
  - { offsetInCU: 0xBCF3, offset: 0xBCF3, size: 0x8, addend: 0x0, symName: __ZNSt3__18_IterOpsINS_17_ClassicAlgPolicyEE25__validate_iter_referenceB8ue170006IRNS_16reverse_iteratorIPiEEEEvv, symObjAddr: 0x1F34, symBinAddr: 0x100005F50, symSize: 0x4 }
  - { offsetInCU: 0xBD11, offset: 0xBD11, size: 0x8, addend: 0x0, symName: __ZNSt3__118__unwrap_iter_implINS_16reverse_iteratorIPiEELb0EE8__unwrapB8ue170006ES3_, symObjAddr: 0x1F38, symBinAddr: 0x100005F54, symSize: 0x24 }
  - { offsetInCU: 0xBD34, offset: 0xBD34, size: 0x8, addend: 0x0, symName: __ZNSt3__14pairINS_16reverse_iteratorIPiEES3_EC1B8ue170006ERKS3_S6_, symObjAddr: 0x1F5C, symBinAddr: 0x100005F78, symSize: 0x3C }
  - { offsetInCU: 0xBD79, offset: 0xBD79, size: 0x8, addend: 0x0, symName: __ZNSt3__14pairINS_16reverse_iteratorIPiEES3_EC2B8ue170006ERKS3_S6_, symObjAddr: 0x1F98, symBinAddr: 0x100005FB4, symSize: 0x34 }
  - { offsetInCU: 0xBDBE, offset: 0xBDBE, size: 0x8, addend: 0x0, symName: __ZNSt3__118__unwrap_iter_implINS_16reverse_iteratorIPiEELb0EE8__rewrapB8ue170006ES3_S3_, symObjAddr: 0x1FCC, symBinAddr: 0x100005FE8, symSize: 0x2C }
  - { offsetInCU: 0xBDEC, offset: 0xBDEC, size: 0x8, addend: 0x0, symName: __ZNSt3__116reverse_iteratorIPiEC2B8ue170006ES1_, symObjAddr: 0x1FF8, symBinAddr: 0x100006014, symSize: 0x28 }
  - { offsetInCU: 0xBE23, offset: 0xBE23, size: 0x8, addend: 0x0, symName: __ZNSt3__114__split_bufferIiRNS_9allocatorIiEEED2Ev, symObjAddr: 0x2020, symBinAddr: 0x10000603C, symSize: 0x80 }
  - { offsetInCU: 0xBE4E, offset: 0xBE4E, size: 0x8, addend: 0x0, symName: __ZNSt3__114__split_bufferIiRNS_9allocatorIiEEE5clearB8ue170006Ev, symObjAddr: 0x20A0, symBinAddr: 0x1000060BC, symSize: 0x28 }
  - { offsetInCU: 0xBE73, offset: 0xBE73, size: 0x8, addend: 0x0, symName: __ZNKSt3__114__split_bufferIiRNS_9allocatorIiEEE8capacityB8ue170006Ev, symObjAddr: 0x20C8, symBinAddr: 0x1000060E4, symSize: 0x40 }
  - { offsetInCU: 0xBE98, offset: 0xBE98, size: 0x8, addend: 0x0, symName: __ZNSt3__114__split_bufferIiRNS_9allocatorIiEEE17__destruct_at_endB8ue170006EPi, symObjAddr: 0x2108, symBinAddr: 0x100006124, symSize: 0x2C }
  - { offsetInCU: 0xBECA, offset: 0xBECA, size: 0x8, addend: 0x0, symName: __ZNSt3__114__split_bufferIiRNS_9allocatorIiEEE17__destruct_at_endB8ue170006EPiNS_17integral_constantIbLb0EEE, symObjAddr: 0x2134, symBinAddr: 0x100006150, symSize: 0x94 }
  - { offsetInCU: 0xBF0A, offset: 0xBF0A, size: 0x8, addend: 0x0, symName: __ZNKSt3__114__split_bufferIiRNS_9allocatorIiEEE9__end_capB8ue170006Ev, symObjAddr: 0x21C8, symBinAddr: 0x1000061E4, symSize: 0x28 }
  - { offsetInCU: 0xBF2F, offset: 0xBF2F, size: 0x8, addend: 0x0, symName: __ZNKSt3__117__compressed_pairIPiRNS_9allocatorIiEEE5firstB8ue170006Ev, symObjAddr: 0x21F0, symBinAddr: 0x10000620C, symSize: 0x24 }
  - { offsetInCU: 0xBF54, offset: 0xBF54, size: 0x8, addend: 0x0, symName: __ZNSt3__16vectorIiNS_9allocatorIiEEE11__make_iterB8ue170006EPi, symObjAddr: 0x2214, symBinAddr: 0x100006230, symSize: 0x30 }
  - { offsetInCU: 0xBF88, offset: 0xBF88, size: 0x8, addend: 0x0, symName: __ZNSt3__111__wrap_iterIPiEC1B8ue170006ES1_, symObjAddr: 0x2244, symBinAddr: 0x100006260, symSize: 0x34 }
  - { offsetInCU: 0xBFBF, offset: 0xBFBF, size: 0x8, addend: 0x0, symName: __ZNSt3__111__wrap_iterIPiEC2B8ue170006ES1_, symObjAddr: 0x2278, symBinAddr: 0x100006294, symSize: 0x20 }
  - { offsetInCU: 0xBFF6, offset: 0xBFF6, size: 0x8, addend: 0x0, symName: __ZNSt3__18_IterOpsINS_17_ClassicAlgPolicyEE4nextB8ue170006IPiEET_S5_S5_, symObjAddr: 0x2500, symBinAddr: 0x10000651C, symSize: 0x18 }
  - { offsetInCU: 0xC02D, offset: 0xC02D, size: 0x8, addend: 0x0, symName: __ZNKSt3__16__lessIvvEclB8ue170006IiiEEbRKT_RKT0_, symObjAddr: 0x26F4, symBinAddr: 0x100006710, symSize: 0x34 }
  - { offsetInCU: 0xC080, offset: 0xC080, size: 0x8, addend: 0x0, symName: __ZNSt3__18_IterOpsINS_17_ClassicAlgPolicyEE9iter_swapB8ue170006IRPiS5_EEvOT_OT0_, symObjAddr: 0x2728, symBinAddr: 0x100006744, symSize: 0x34 }
  - { offsetInCU: 0xC0C3, offset: 0xC0C3, size: 0x8, addend: 0x0, symName: __ZNSt3__18_IterOpsINS_17_ClassicAlgPolicyEE11__iter_moveB8ue170006IRPiEENS_9enable_ifIXsr12is_referenceIDTdeclsr3stdE7declvalIRT_EEEEE5valueEDTclsr3stdE4movedeclsr3stdE7declvalIS8_EEEEE4typeEOS7_, symObjAddr: 0x2A78, symBinAddr: 0x100006A94, symSize: 0x28 }
  - { offsetInCU: 0xC0EF, offset: 0xC0EF, size: 0x8, addend: 0x0, symName: __ZNSt3__18_IterOpsINS_17_ClassicAlgPolicyEE25__validate_iter_referenceB8ue170006IRPiEEvv, symObjAddr: 0x2AA0, symBinAddr: 0x100006ABC, symSize: 0x4 }
  - { offsetInCU: 0xC10D, offset: 0xC10D, size: 0x8, addend: 0x0, symName: __ZNSt3__118__unwrap_iter_implINS_11__wrap_iterIPiEELb1EE8__unwrapB8ue170006ES3_, symObjAddr: 0x2DB4, symBinAddr: 0x100006DD0, symSize: 0x28 }
  - { offsetInCU: 0xC13A, offset: 0xC13A, size: 0x8, addend: 0x0, symName: __ZNSt3__119__to_address_helperINS_11__wrap_iterIPiEEvE6__callB8ue170006ERKS3_, symObjAddr: 0x2E00, symBinAddr: 0x100006E1C, symSize: 0x30 }
  - { offsetInCU: 0xC15D, offset: 0xC15D, size: 0x8, addend: 0x0, symName: __ZNSt3__114pointer_traitsINS_11__wrap_iterIPiEEE10to_addressB8ue170006ES3_, symObjAddr: 0x2E30, symBinAddr: 0x100006E4C, symSize: 0x2C }
  - { offsetInCU: 0xC180, offset: 0xC180, size: 0x8, addend: 0x0, symName: __ZNKSt3__111__wrap_iterIPiE4baseB8ue170006Ev, symObjAddr: 0x2E5C, symBinAddr: 0x100006E78, symSize: 0x18 }
  - { offsetInCU: 0xC1A5, offset: 0xC1A5, size: 0x8, addend: 0x0, symName: __ZNSt3__111char_traitsIcE6lengthB8ue170006EPKc, symObjAddr: 0x3068, symBinAddr: 0x100007084, symSize: 0x48 }
  - { offsetInCU: 0xC1E6, offset: 0xC1E6, size: 0x8, addend: 0x0, symName: __ZNKSt3__113basic_ostreamIcNS_11char_traitsIcEEE6sentrycvbB8ue170006Ev, symObjAddr: 0x30B0, symBinAddr: 0x1000070CC, symSize: 0x1C }
  - { offsetInCU: 0xC20B, offset: 0xC20B, size: 0x8, addend: 0x0, symName: __ZNSt3__119ostreambuf_iteratorIcNS_11char_traitsIcEEEC1B8ue170006ERNS_13basic_ostreamIcS2_EE, symObjAddr: 0x3314, symBinAddr: 0x100007330, symSize: 0x34 }
  - { offsetInCU: 0xC242, offset: 0xC242, size: 0x8, addend: 0x0, symName: __ZNKSt3__18ios_base5flagsB8ue170006Ev, symObjAddr: 0x3348, symBinAddr: 0x100007364, symSize: 0x18 }
  - { offsetInCU: 0xC268, offset: 0xC268, size: 0x8, addend: 0x0, symName: __ZNKSt3__19basic_iosIcNS_11char_traitsIcEEE4fillB8ue170006Ev, symObjAddr: 0x3360, symBinAddr: 0x10000737C, symSize: 0x64 }
  - { offsetInCU: 0xC28F, offset: 0xC28F, size: 0x8, addend: 0x0, symName: __ZNKSt3__119ostreambuf_iteratorIcNS_11char_traitsIcEEE6failedB8ue170006Ev, symObjAddr: 0x33C4, symBinAddr: 0x1000073E0, symSize: 0x24 }
  - { offsetInCU: 0xC2B4, offset: 0xC2B4, size: 0x8, addend: 0x0, symName: __ZNSt3__19basic_iosIcNS_11char_traitsIcEEE8setstateB8ue170006Ej, symObjAddr: 0x33E8, symBinAddr: 0x100007404, symSize: 0x2C }
  - { offsetInCU: 0xC2E8, offset: 0xC2E8, size: 0x8, addend: 0x0, symName: __ZNKSt3__18ios_base5widthB8ue170006Ev, symObjAddr: 0x3414, symBinAddr: 0x100007430, symSize: 0x18 }
  - { offsetInCU: 0xC30F, offset: 0xC30F, size: 0x8, addend: 0x0, symName: __ZNSt3__115basic_streambufIcNS_11char_traitsIcEEE5sputnB8ue170006EPKcl, symObjAddr: 0x342C, symBinAddr: 0x100007448, symSize: 0x3C }
  - { offsetInCU: 0xC350, offset: 0xC350, size: 0x8, addend: 0x0, symName: __ZNSt3__112basic_stringIcNS_11char_traitsIcEENS_9allocatorIcEEEC1B8ue170006Emc, symObjAddr: 0x3468, symBinAddr: 0x100007484, symSize: 0x3C }
  - { offsetInCU: 0xC397, offset: 0xC397, size: 0x8, addend: 0x0, symName: __ZNKSt3__112basic_stringIcNS_11char_traitsIcEENS_9allocatorIcEEE4dataB8ue170006Ev, symObjAddr: 0x34A4, symBinAddr: 0x1000074C0, symSize: 0x28 }
  - { offsetInCU: 0xC3BC, offset: 0xC3BC, size: 0x8, addend: 0x0, symName: __ZNSt3__18ios_base5widthB8ue170006El, symObjAddr: 0x34CC, symBinAddr: 0x1000074E8, symSize: 0x2C }
  - { offsetInCU: 0xC401, offset: 0xC401, size: 0x8, addend: 0x0, symName: __ZNSt3__112basic_stringIcNS_11char_traitsIcEENS_9allocatorIcEEEC2B8ue170006Emc, symObjAddr: 0x34F8, symBinAddr: 0x100007514, symSize: 0x4C }
  - { offsetInCU: 0xC448, offset: 0xC448, size: 0x8, addend: 0x0, symName: __ZNSt3__117__compressed_pairINS_12basic_stringIcNS_11char_traitsIcEENS_9allocatorIcEEE5__repES5_EC1B8ue170006INS_18__default_init_tagESA_EEOT_OT0_, symObjAddr: 0x3544, symBinAddr: 0x100007560, symSize: 0x3C }
  - { offsetInCU: 0xC49F, offset: 0xC49F, size: 0x8, addend: 0x0, symName: __ZNSt3__117__compressed_pairINS_12basic_stringIcNS_11char_traitsIcEENS_9allocatorIcEEE5__repES5_EC2B8ue170006INS_18__default_init_tagESA_EEOT_OT0_, symObjAddr: 0x3580, symBinAddr: 0x10000759C, symSize: 0x3C }
  - { offsetInCU: 0xC4F6, offset: 0xC4F6, size: 0x8, addend: 0x0, symName: __ZNSt3__122__compressed_pair_elemINS_12basic_stringIcNS_11char_traitsIcEENS_9allocatorIcEEE5__repELi0ELb0EEC2B8ue170006ENS_18__default_init_tagE, symObjAddr: 0x35BC, symBinAddr: 0x1000075D8, symSize: 0x14 }
  - { offsetInCU: 0xC52A, offset: 0xC52A, size: 0x8, addend: 0x0, symName: __ZNSt3__122__compressed_pair_elemINS_9allocatorIcEELi1ELb1EEC2B8ue170006ENS_18__default_init_tagE, symObjAddr: 0x35D0, symBinAddr: 0x1000075EC, symSize: 0x2C }
  - { offsetInCU: 0xC55E, offset: 0xC55E, size: 0x8, addend: 0x0, symName: __ZNSt3__19allocatorIcEC2B8ue170006Ev, symObjAddr: 0x35FC, symBinAddr: 0x100007618, symSize: 0x2C }
  - { offsetInCU: 0xC587, offset: 0xC587, size: 0x8, addend: 0x0, symName: __ZNSt3__116__non_trivial_ifILb1ENS_9allocatorIcEEEC2B8ue170006Ev, symObjAddr: 0x3628, symBinAddr: 0x100007644, symSize: 0x14 }
  - { offsetInCU: 0xC5B0, offset: 0xC5B0, size: 0x8, addend: 0x0, symName: __ZNKSt3__112basic_stringIcNS_11char_traitsIcEENS_9allocatorIcEEE13__get_pointerB8ue170006Ev, symObjAddr: 0x3650, symBinAddr: 0x10000766C, symSize: 0x54 }
  - { offsetInCU: 0xC5D5, offset: 0xC5D5, size: 0x8, addend: 0x0, symName: __ZNKSt3__112basic_stringIcNS_11char_traitsIcEENS_9allocatorIcEEE9__is_longB8ue170006Ev, symObjAddr: 0x36A4, symBinAddr: 0x1000076C0, symSize: 0x74 }
  - { offsetInCU: 0xC5FA, offset: 0xC5FA, size: 0x8, addend: 0x0, symName: __ZNKSt3__112basic_stringIcNS_11char_traitsIcEENS_9allocatorIcEEE18__get_long_pointerB8ue170006Ev, symObjAddr: 0x3718, symBinAddr: 0x100007734, symSize: 0x28 }
  - { offsetInCU: 0xC61F, offset: 0xC61F, size: 0x8, addend: 0x0, symName: __ZNKSt3__112basic_stringIcNS_11char_traitsIcEENS_9allocatorIcEEE19__get_short_pointerB8ue170006Ev, symObjAddr: 0x3740, symBinAddr: 0x10000775C, symSize: 0x28 }
  - { offsetInCU: 0xC644, offset: 0xC644, size: 0x8, addend: 0x0, symName: __ZNKSt3__117__compressed_pairINS_12basic_stringIcNS_11char_traitsIcEENS_9allocatorIcEEE5__repES5_E5firstB8ue170006Ev, symObjAddr: 0x3768, symBinAddr: 0x100007784, symSize: 0x24 }
  - { offsetInCU: 0xC669, offset: 0xC669, size: 0x8, addend: 0x0, symName: __ZNKSt3__122__compressed_pair_elemINS_12basic_stringIcNS_11char_traitsIcEENS_9allocatorIcEEE5__repELi0ELb0EE5__getB8ue170006Ev, symObjAddr: 0x378C, symBinAddr: 0x1000077A8, symSize: 0x14 }
  - { offsetInCU: 0xC68E, offset: 0xC68E, size: 0x8, addend: 0x0, symName: __ZNSt3__114pointer_traitsIPKcE10pointer_toB8ue170006ERS1_, symObjAddr: 0x37A0, symBinAddr: 0x1000077BC, symSize: 0x14 }
  - { offsetInCU: 0xC6B1, offset: 0xC6B1, size: 0x8, addend: 0x0, symName: __ZNSt3__119ostreambuf_iteratorIcNS_11char_traitsIcEEEC2B8ue170006ERNS_13basic_ostreamIcS2_EE, symObjAddr: 0x37B4, symBinAddr: 0x1000077D0, symSize: 0x68 }
  - { offsetInCU: 0xC6E7, offset: 0xC6E7, size: 0x8, addend: 0x0, symName: __ZNKSt3__19basic_iosIcNS_11char_traitsIcEEE5rdbufB8ue170006Ev, symObjAddr: 0x381C, symBinAddr: 0x100007838, symSize: 0x24 }
  - { offsetInCU: 0xC70E, offset: 0xC70E, size: 0x8, addend: 0x0, symName: __ZNKSt3__18ios_base5rdbufB8ue170006Ev, symObjAddr: 0x3840, symBinAddr: 0x10000785C, symSize: 0x18 }
  - { offsetInCU: 0xC733, offset: 0xC733, size: 0x8, addend: 0x0, symName: __ZNSt3__111char_traitsIcE11eq_int_typeB8ue170006Eii, symObjAddr: 0x3858, symBinAddr: 0x100007874, symSize: 0x28 }
  - { offsetInCU: 0xC766, offset: 0xC766, size: 0x8, addend: 0x0, symName: __ZNSt3__111char_traitsIcE3eofB8ue170006Ev, symObjAddr: 0x3880, symBinAddr: 0x10000789C, symSize: 0x8 }
  - { offsetInCU: 0xC779, offset: 0xC779, size: 0x8, addend: 0x0, symName: __ZNKSt3__19basic_iosIcNS_11char_traitsIcEEE5widenB8ue170006Ec, symObjAddr: 0x3888, symBinAddr: 0x1000078A4, symSize: 0x8C }
  - { offsetInCU: 0xC7E6, offset: 0xC7E6, size: 0x8, addend: 0x0, symName: __ZNKSt3__15ctypeIcE5widenB8ue170006Ec, symObjAddr: 0x3940, symBinAddr: 0x10000795C, symSize: 0x38 }
  - { offsetInCU: 0xC819, offset: 0xC819, size: 0x8, addend: 0x0, symName: __ZNSt3__18ios_base8setstateB8ue170006Ej, symObjAddr: 0x3978, symBinAddr: 0x100007994, symSize: 0x34 }
...
