---
triple:          'arm64-apple-darwin'
binary-path:     '/Users/kajalbormon/Developer/Code/HakerRank/Overloading_Ostream_Operator/output/Overloading_Ostream_Operator'
relocations:
  - { offsetInCU: 0x2E41, offset: 0x2E41, size: 0x8, addend: 0x0, symName: __ZNSt3__124__put_character_sequenceB8ue170006IcNS_11char_traitsIcEEEERNS_13basic_ostreamIT_T0_EES7_PKS4_m, symObjAddr: 0x800, symBinAddr: 0x10000256C, symSize: 0x1F4 }
  - { offsetInCU: 0x4C8D, offset: 0x4C8D, size: 0x8, addend: 0x0, symName: __ZNSt3__1lsB8ue170006INS_11char_traitsIcEEEERNS_13basic_ostreamIcT_EES6_PKc, symObjAddr: 0x88, symBinAddr: 0x100001DF4, symSize: 0x48 }
  - { offsetInCU: 0x4CD3, offset: 0x4CD3, size: 0x8, addend: 0x0, symName: __ZNSt3__1lsB8ue170006IcNS_11char_traitsIcEENS_9allocatorIcEEEERNS_13basic_ostreamIT_T0_EES9_RKNS_12basic_stringIS6_S7_T1_EE, symObjAddr: 0xD0, symBinAddr: 0x100001E3C, symSize: 0x4C }
  - { offsetInCU: 0x4D2B, offset: 0x4D2B, size: 0x8, addend: 0x0, symName: __ZNSt3__1rsB8ue170006IcNS_11char_traitsIcEENS_9allocatorIcEEEERNS_13basic_istreamIT_T0_EES9_RNS_12basic_stringIS6_S7_T1_EE, symObjAddr: 0x314, symBinAddr: 0x100002080, symSize: 0x314 }
  - { offsetInCU: 0x4DF8, offset: 0x4DF8, size: 0x8, addend: 0x0, symName: __ZNSt3__14endlB8ue170006IcNS_11char_traitsIcEEEERNS_13basic_ostreamIT_T0_EES7_, symObjAddr: 0x690, symBinAddr: 0x1000023FC, symSize: 0x58 }
  - { offsetInCU: 0x4E38, offset: 0x4E38, size: 0x8, addend: 0x0, symName: __ZNSt3__116__pad_and_outputB8ue170006IcNS_11char_traitsIcEEEENS_19ostreambuf_iteratorIT_T0_EES6_PKS4_S8_S8_RNS_8ios_baseES4_, symObjAddr: 0xA58, symBinAddr: 0x1000027C4, symSize: 0x248 }
  - { offsetInCU: 0x4F07, offset: 0x4F07, size: 0x8, addend: 0x0, symName: __ZNSt3__112__to_addressB8ue170006IKcEEPT_S3_, symObjAddr: 0xFC8, symBinAddr: 0x100002D34, symSize: 0x14 }
  - { offsetInCU: 0x4F3C, offset: 0x4F3C, size: 0x8, addend: 0x0, symName: __ZNSt3__130__libcpp_is_constant_evaluatedB8ue170006Ev, symObjAddr: 0x10F4, symBinAddr: 0x100002E60, symSize: 0xC }
  - { offsetInCU: 0x4F8C, offset: 0x4F8C, size: 0x8, addend: 0x0, symName: __ZNSt3__19use_facetB8ue170006INS_5ctypeIcEEEERKT_RKNS_6localeE, symObjAddr: 0x12AC, symBinAddr: 0x100003018, symSize: 0x2C }
  - { offsetInCU: 0x536A, offset: 0x536A, size: 0x8, addend: 0x0, symName: __ZNSt3__118__constexpr_strlenB8ue170006EPKc, symObjAddr: 0x1344, symBinAddr: 0x1000030B0, symSize: 0x24 }
  - { offsetInCU: 0x5396, offset: 0x5396, size: 0x8, addend: 0x0, symName: __ZNSt3__117__libcpp_allocateB8ue170006Emm, symObjAddr: 0x1814, symBinAddr: 0x100003580, symSize: 0x28 }
  - { offsetInCU: 0x53D3, offset: 0x53D3, size: 0x8, addend: 0x0, symName: __ZNSt3__121__libcpp_operator_newB8ue170006IJmEEEPvDpT_, symObjAddr: 0x1850, symBinAddr: 0x1000035BC, symSize: 0x24 }
  - { offsetInCU: 0x5DD9, offset: 0x5DD9, size: 0x8, addend: 0x0, symName: __ZSt28__throw_bad_array_new_lengthB8ue170006v, symObjAddr: 0x17E0, symBinAddr: 0x10000354C, symSize: 0x34 }
  - { offsetInCU: 0x83BC, offset: 0x83BC, size: 0x8, addend: 0x0, symName: __ZlsRNSt3__113basic_ostreamIcNS_11char_traitsIcEEEER6Person, symObjAddr: 0x0, symBinAddr: 0x100001D6C, symSize: 0x88 }
  - { offsetInCU: 0x8477, offset: 0x8477, size: 0x8, addend: 0x0, symName: __ZNK6Person14get_first_nameEv, symObjAddr: 0x11C, symBinAddr: 0x100001E88, symSize: 0x14 }
  - { offsetInCU: 0x849B, offset: 0x849B, size: 0x8, addend: 0x0, symName: __ZNK6Person13get_last_nameEv, symObjAddr: 0x130, symBinAddr: 0x100001E9C, symSize: 0x18 }
  - { offsetInCU: 0x84BF, offset: 0x84BF, size: 0x8, addend: 0x0, symName: _main, symObjAddr: 0x148, symBinAddr: 0x100001EB4, symSize: 0x1A0 }
  - { offsetInCU: 0x8512, offset: 0x8512, size: 0x8, addend: 0x0, symName: __ZNSt3__112basic_stringIcNS_11char_traitsIcEENS_9allocatorIcEEEC1B8ue170006Ev, symObjAddr: 0x2E8, symBinAddr: 0x100002054, symSize: 0x2C }
  - { offsetInCU: 0x853A, offset: 0x853A, size: 0x8, addend: 0x0, symName: __ZN6PersonC1ERKNSt3__112basic_stringIcNS0_11char_traitsIcEENS0_9allocatorIcEEEES8_, symObjAddr: 0x628, symBinAddr: 0x100002394, symSize: 0x3C }
  - { offsetInCU: 0x857F, offset: 0x857F, size: 0x8, addend: 0x0, symName: __ZNSt3__113basic_ostreamIcNS_11char_traitsIcEEElsB8ue170006EPFRS3_S4_E, symObjAddr: 0x664, symBinAddr: 0x1000023D0, symSize: 0x2C }
  - { offsetInCU: 0x85B1, offset: 0x85B1, size: 0x8, addend: 0x0, symName: __ZN6PersonD1Ev, symObjAddr: 0x6E8, symBinAddr: 0x100002454, symSize: 0x2C }
  - { offsetInCU: 0x85DB, offset: 0x85DB, size: 0x8, addend: 0x0, symName: __ZN6PersonC2ERKNSt3__112basic_stringIcNS0_11char_traitsIcEENS0_9allocatorIcEEEES8_, symObjAddr: 0x720, symBinAddr: 0x10000248C, symSize: 0x78 }
  - { offsetInCU: 0x8620, offset: 0x8620, size: 0x8, addend: 0x0, symName: __ZN6PersonD2Ev, symObjAddr: 0x798, symBinAddr: 0x100002504, symSize: 0x68 }
  - { offsetInCU: 0x864B, offset: 0x864B, size: 0x8, addend: 0x0, symName: __ZNSt3__111char_traitsIcE6lengthB8ue170006EPKc, symObjAddr: 0x9F4, symBinAddr: 0x100002760, symSize: 0x48 }
  - { offsetInCU: 0x868B, offset: 0x868B, size: 0x8, addend: 0x0, symName: __ZNKSt3__113basic_ostreamIcNS_11char_traitsIcEEE6sentrycvbB8ue170006Ev, symObjAddr: 0xA3C, symBinAddr: 0x1000027A8, symSize: 0x1C }
  - { offsetInCU: 0x86AF, offset: 0x86AF, size: 0x8, addend: 0x0, symName: __ZNSt3__119ostreambuf_iteratorIcNS_11char_traitsIcEEEC1B8ue170006ERNS_13basic_ostreamIcS2_EE, symObjAddr: 0xCA0, symBinAddr: 0x100002A0C, symSize: 0x34 }
  - { offsetInCU: 0x86E6, offset: 0x86E6, size: 0x8, addend: 0x0, symName: __ZNKSt3__18ios_base5flagsB8ue170006Ev, symObjAddr: 0xCD4, symBinAddr: 0x100002A40, symSize: 0x18 }
  - { offsetInCU: 0x870D, offset: 0x870D, size: 0x8, addend: 0x0, symName: __ZNKSt3__19basic_iosIcNS_11char_traitsIcEEE4fillB8ue170006Ev, symObjAddr: 0xCEC, symBinAddr: 0x100002A58, symSize: 0x64 }
  - { offsetInCU: 0x8733, offset: 0x8733, size: 0x8, addend: 0x0, symName: __ZNKSt3__119ostreambuf_iteratorIcNS_11char_traitsIcEEE6failedB8ue170006Ev, symObjAddr: 0xD50, symBinAddr: 0x100002ABC, symSize: 0x24 }
  - { offsetInCU: 0x8758, offset: 0x8758, size: 0x8, addend: 0x0, symName: __ZNSt3__19basic_iosIcNS_11char_traitsIcEEE8setstateB8ue170006Ej, symObjAddr: 0xD74, symBinAddr: 0x100002AE0, symSize: 0x2C }
  - { offsetInCU: 0x878B, offset: 0x878B, size: 0x8, addend: 0x0, symName: __ZNKSt3__18ios_base5widthB8ue170006Ev, symObjAddr: 0xDA0, symBinAddr: 0x100002B0C, symSize: 0x18 }
  - { offsetInCU: 0x87B2, offset: 0x87B2, size: 0x8, addend: 0x0, symName: __ZNSt3__115basic_streambufIcNS_11char_traitsIcEEE5sputnB8ue170006EPKcl, symObjAddr: 0xDB8, symBinAddr: 0x100002B24, symSize: 0x3C }
  - { offsetInCU: 0x87F1, offset: 0x87F1, size: 0x8, addend: 0x0, symName: __ZNSt3__112basic_stringIcNS_11char_traitsIcEENS_9allocatorIcEEEC1B8ue170006Emc, symObjAddr: 0xDF4, symBinAddr: 0x100002B60, symSize: 0x3C }
  - { offsetInCU: 0x8838, offset: 0x8838, size: 0x8, addend: 0x0, symName: __ZNKSt3__112basic_stringIcNS_11char_traitsIcEENS_9allocatorIcEEE4dataB8ue170006Ev, symObjAddr: 0xE30, symBinAddr: 0x100002B9C, symSize: 0x28 }
  - { offsetInCU: 0x885C, offset: 0x885C, size: 0x8, addend: 0x0, symName: __ZNSt3__18ios_base5widthB8ue170006El, symObjAddr: 0xE58, symBinAddr: 0x100002BC4, symSize: 0x2C }
  - { offsetInCU: 0x88A0, offset: 0x88A0, size: 0x8, addend: 0x0, symName: __ZNSt3__112basic_stringIcNS_11char_traitsIcEENS_9allocatorIcEEEC2B8ue170006Emc, symObjAddr: 0xE84, symBinAddr: 0x100002BF0, symSize: 0x4C }
  - { offsetInCU: 0x88EB, offset: 0x88EB, size: 0x8, addend: 0x0, symName: __ZNSt3__117__compressed_pairINS_12basic_stringIcNS_11char_traitsIcEENS_9allocatorIcEEE5__repES5_EC1B8ue170006INS_18__default_init_tagESA_EEOT_OT0_, symObjAddr: 0xED0, symBinAddr: 0x100002C3C, symSize: 0x3C }
  - { offsetInCU: 0x8941, offset: 0x8941, size: 0x8, addend: 0x0, symName: __ZNSt3__117__compressed_pairINS_12basic_stringIcNS_11char_traitsIcEENS_9allocatorIcEEE5__repES5_EC2B8ue170006INS_18__default_init_tagESA_EEOT_OT0_, symObjAddr: 0xF0C, symBinAddr: 0x100002C78, symSize: 0x3C }
  - { offsetInCU: 0x8998, offset: 0x8998, size: 0x8, addend: 0x0, symName: __ZNSt3__122__compressed_pair_elemINS_12basic_stringIcNS_11char_traitsIcEENS_9allocatorIcEEE5__repELi0ELb0EEC2B8ue170006ENS_18__default_init_tagE, symObjAddr: 0xF48, symBinAddr: 0x100002CB4, symSize: 0x14 }
  - { offsetInCU: 0x89CB, offset: 0x89CB, size: 0x8, addend: 0x0, symName: __ZNSt3__122__compressed_pair_elemINS_9allocatorIcEELi1ELb1EEC2B8ue170006ENS_18__default_init_tagE, symObjAddr: 0xF5C, symBinAddr: 0x100002CC8, symSize: 0x2C }
  - { offsetInCU: 0x89FE, offset: 0x89FE, size: 0x8, addend: 0x0, symName: __ZNSt3__19allocatorIcEC2B8ue170006Ev, symObjAddr: 0xF88, symBinAddr: 0x100002CF4, symSize: 0x2C }
  - { offsetInCU: 0x8A27, offset: 0x8A27, size: 0x8, addend: 0x0, symName: __ZNSt3__116__non_trivial_ifILb1ENS_9allocatorIcEEEC2B8ue170006Ev, symObjAddr: 0xFB4, symBinAddr: 0x100002D20, symSize: 0x14 }
  - { offsetInCU: 0x8A50, offset: 0x8A50, size: 0x8, addend: 0x0, symName: __ZNKSt3__112basic_stringIcNS_11char_traitsIcEENS_9allocatorIcEEE13__get_pointerB8ue170006Ev, symObjAddr: 0xFDC, symBinAddr: 0x100002D48, symSize: 0x54 }
  - { offsetInCU: 0x8A74, offset: 0x8A74, size: 0x8, addend: 0x0, symName: __ZNKSt3__112basic_stringIcNS_11char_traitsIcEENS_9allocatorIcEEE9__is_longB8ue170006Ev, symObjAddr: 0x1030, symBinAddr: 0x100002D9C, symSize: 0x74 }
  - { offsetInCU: 0x8A98, offset: 0x8A98, size: 0x8, addend: 0x0, symName: __ZNKSt3__112basic_stringIcNS_11char_traitsIcEENS_9allocatorIcEEE18__get_long_pointerB8ue170006Ev, symObjAddr: 0x10A4, symBinAddr: 0x100002E10, symSize: 0x28 }
  - { offsetInCU: 0x8ABC, offset: 0x8ABC, size: 0x8, addend: 0x0, symName: __ZNKSt3__112basic_stringIcNS_11char_traitsIcEENS_9allocatorIcEEE19__get_short_pointerB8ue170006Ev, symObjAddr: 0x10CC, symBinAddr: 0x100002E38, symSize: 0x28 }
  - { offsetInCU: 0x8AE0, offset: 0x8AE0, size: 0x8, addend: 0x0, symName: __ZNKSt3__117__compressed_pairINS_12basic_stringIcNS_11char_traitsIcEENS_9allocatorIcEEE5__repES5_E5firstB8ue170006Ev, symObjAddr: 0x1100, symBinAddr: 0x100002E6C, symSize: 0x24 }
  - { offsetInCU: 0x8B03, offset: 0x8B03, size: 0x8, addend: 0x0, symName: __ZNKSt3__122__compressed_pair_elemINS_12basic_stringIcNS_11char_traitsIcEENS_9allocatorIcEEE5__repELi0ELb0EE5__getB8ue170006Ev, symObjAddr: 0x1124, symBinAddr: 0x100002E90, symSize: 0x14 }
  - { offsetInCU: 0x8B28, offset: 0x8B28, size: 0x8, addend: 0x0, symName: __ZNSt3__114pointer_traitsIPKcE10pointer_toB8ue170006ERS1_, symObjAddr: 0x1138, symBinAddr: 0x100002EA4, symSize: 0x14 }
  - { offsetInCU: 0x8B4A, offset: 0x8B4A, size: 0x8, addend: 0x0, symName: __ZNSt3__119ostreambuf_iteratorIcNS_11char_traitsIcEEEC2B8ue170006ERNS_13basic_ostreamIcS2_EE, symObjAddr: 0x114C, symBinAddr: 0x100002EB8, symSize: 0x68 }
  - { offsetInCU: 0x8B81, offset: 0x8B81, size: 0x8, addend: 0x0, symName: __ZNKSt3__19basic_iosIcNS_11char_traitsIcEEE5rdbufB8ue170006Ev, symObjAddr: 0x11B4, symBinAddr: 0x100002F20, symSize: 0x24 }
  - { offsetInCU: 0x8BA7, offset: 0x8BA7, size: 0x8, addend: 0x0, symName: __ZNKSt3__18ios_base5rdbufB8ue170006Ev, symObjAddr: 0x11D8, symBinAddr: 0x100002F44, symSize: 0x18 }
  - { offsetInCU: 0x8BCC, offset: 0x8BCC, size: 0x8, addend: 0x0, symName: __ZNSt3__111char_traitsIcE11eq_int_typeB8ue170006Eii, symObjAddr: 0x11F0, symBinAddr: 0x100002F5C, symSize: 0x28 }
  - { offsetInCU: 0x8BFF, offset: 0x8BFF, size: 0x8, addend: 0x0, symName: __ZNSt3__111char_traitsIcE3eofB8ue170006Ev, symObjAddr: 0x1218, symBinAddr: 0x100002F84, symSize: 0x8 }
  - { offsetInCU: 0x8C13, offset: 0x8C13, size: 0x8, addend: 0x0, symName: __ZNKSt3__19basic_iosIcNS_11char_traitsIcEEE5widenB8ue170006Ec, symObjAddr: 0x1220, symBinAddr: 0x100002F8C, symSize: 0x8C }
  - { offsetInCU: 0x8C76, offset: 0x8C76, size: 0x8, addend: 0x0, symName: __ZNKSt3__15ctypeIcE5widenB8ue170006Ec, symObjAddr: 0x12D8, symBinAddr: 0x100003044, symSize: 0x38 }
  - { offsetInCU: 0x8CA9, offset: 0x8CA9, size: 0x8, addend: 0x0, symName: __ZNSt3__18ios_base8setstateB8ue170006Ej, symObjAddr: 0x1310, symBinAddr: 0x10000307C, symSize: 0x34 }
  - { offsetInCU: 0x8CDF, offset: 0x8CDF, size: 0x8, addend: 0x0, symName: __ZNKSt3__112basic_stringIcNS_11char_traitsIcEENS_9allocatorIcEEE4sizeB8ue170006Ev, symObjAddr: 0x1368, symBinAddr: 0x1000030D4, symSize: 0x54 }
  - { offsetInCU: 0x8D03, offset: 0x8D03, size: 0x8, addend: 0x0, symName: __ZNKSt3__112basic_stringIcNS_11char_traitsIcEENS_9allocatorIcEEE15__get_long_sizeB8ue170006Ev, symObjAddr: 0x13BC, symBinAddr: 0x100003128, symSize: 0x28 }
  - { offsetInCU: 0x8D27, offset: 0x8D27, size: 0x8, addend: 0x0, symName: __ZNKSt3__112basic_stringIcNS_11char_traitsIcEENS_9allocatorIcEEE16__get_short_sizeB8ue170006Ev, symObjAddr: 0x13E4, symBinAddr: 0x100003150, symSize: 0x34 }
  - { offsetInCU: 0x8D4A, offset: 0x8D4A, size: 0x8, addend: 0x0, symName: __ZNSt3__112basic_stringIcNS_11char_traitsIcEENS_9allocatorIcEEEC2B8ue170006Ev, symObjAddr: 0x1418, symBinAddr: 0x100003184, symSize: 0x3C }
  - { offsetInCU: 0x8D73, offset: 0x8D73, size: 0x8, addend: 0x0, symName: __ZNSt3__112basic_stringIcNS_11char_traitsIcEENS_9allocatorIcEEE14__default_initB8ue170006Ev, symObjAddr: 0x1454, symBinAddr: 0x1000031C0, symSize: 0xB0 }
  - { offsetInCU: 0x8DC4, offset: 0x8DC4, size: 0x8, addend: 0x0, symName: __ZNSt3__117__compressed_pairINS_12basic_stringIcNS_11char_traitsIcEENS_9allocatorIcEEE5__repES5_E5firstB8ue170006Ev, symObjAddr: 0x1504, symBinAddr: 0x100003270, symSize: 0x24 }
  - { offsetInCU: 0x8DE8, offset: 0x8DE8, size: 0x8, addend: 0x0, symName: __ZNSt3__112basic_stringIcNS_11char_traitsIcEENS_9allocatorIcEEE11__recommendB8ue170006Em, symObjAddr: 0x1528, symBinAddr: 0x100003294, symSize: 0x9C }
  - { offsetInCU: 0x8E1B, offset: 0x8E1B, size: 0x8, addend: 0x0, symName: __ZNSt3__116allocator_traitsINS_9allocatorIcEEE8allocateB8ue170006ERS2_m, symObjAddr: 0x15C4, symBinAddr: 0x100003330, symSize: 0x2C }
  - { offsetInCU: 0x8E4E, offset: 0x8E4E, size: 0x8, addend: 0x0, symName: __ZNSt3__112basic_stringIcNS_11char_traitsIcEENS_9allocatorIcEEE7__allocB8ue170006Ev, symObjAddr: 0x15F0, symBinAddr: 0x10000335C, symSize: 0x24 }
  - { offsetInCU: 0x8E72, offset: 0x8E72, size: 0x8, addend: 0x0, symName: __ZNSt3__112basic_stringIcNS_11char_traitsIcEENS_9allocatorIcEEE16__begin_lifetimeB8ue170006EPcm, symObjAddr: 0x1614, symBinAddr: 0x100003380, symSize: 0x14 }
  - { offsetInCU: 0x8EA5, offset: 0x8EA5, size: 0x8, addend: 0x0, symName: __ZNSt3__112basic_stringIcNS_11char_traitsIcEENS_9allocatorIcEEE18__set_long_pointerB8ue170006EPc, symObjAddr: 0x1628, symBinAddr: 0x100003394, symSize: 0x38 }
  - { offsetInCU: 0x8ED8, offset: 0x8ED8, size: 0x8, addend: 0x0, symName: __ZNSt3__112basic_stringIcNS_11char_traitsIcEENS_9allocatorIcEEE14__set_long_capB8ue170006Em, symObjAddr: 0x1660, symBinAddr: 0x1000033CC, symSize: 0x70 }
  - { offsetInCU: 0x8F0B, offset: 0x8F0B, size: 0x8, addend: 0x0, symName: __ZNSt3__112basic_stringIcNS_11char_traitsIcEENS_9allocatorIcEEE15__set_long_sizeB8ue170006Em, symObjAddr: 0x16D0, symBinAddr: 0x10000343C, symSize: 0x38 }
  - { offsetInCU: 0x8F3D, offset: 0x8F3D, size: 0x8, addend: 0x0, symName: __ZNSt3__122__compressed_pair_elemINS_12basic_stringIcNS_11char_traitsIcEENS_9allocatorIcEEE5__repELi0ELb0EE5__getB8ue170006Ev, symObjAddr: 0x1708, symBinAddr: 0x100003474, symSize: 0x14 }
  - { offsetInCU: 0x8F62, offset: 0x8F62, size: 0x8, addend: 0x0, symName: __ZNSt3__112basic_stringIcNS_11char_traitsIcEENS_9allocatorIcEEE10__align_itB8ue170006ILm16EEEmm, symObjAddr: 0x171C, symBinAddr: 0x100003488, symSize: 0x1C }
  - { offsetInCU: 0x8F90, offset: 0x8F90, size: 0x8, addend: 0x0, symName: __ZNSt3__19allocatorIcE8allocateB8ue170006Em, symObjAddr: 0x1738, symBinAddr: 0x1000034A4, symSize: 0x84 }
  - { offsetInCU: 0x8FCC, offset: 0x8FCC, size: 0x8, addend: 0x0, symName: __ZNSt3__116allocator_traitsINS_9allocatorIcEEE8max_sizeB8ue170006IS2_vEEmRKS2_, symObjAddr: 0x17BC, symBinAddr: 0x100003528, symSize: 0x24 }
  - { offsetInCU: 0x8FF9, offset: 0x8FF9, size: 0x8, addend: 0x0, symName: __ZNKSt3__19allocatorIcE8max_sizeB8ue170006Ev, symObjAddr: 0x183C, symBinAddr: 0x1000035A8, symSize: 0x14 }
  - { offsetInCU: 0x901E, offset: 0x901E, size: 0x8, addend: 0x0, symName: __ZNSt3__117__compressed_pairINS_12basic_stringIcNS_11char_traitsIcEENS_9allocatorIcEEE5__repES5_E6secondB8ue170006Ev, symObjAddr: 0x1874, symBinAddr: 0x1000035E0, symSize: 0x24 }
  - { offsetInCU: 0x9041, offset: 0x9041, size: 0x8, addend: 0x0, symName: __ZNSt3__122__compressed_pair_elemINS_9allocatorIcEELi1ELb1EE5__getB8ue170006Ev, symObjAddr: 0x1898, symBinAddr: 0x100003604, symSize: 0x14 }
  - { offsetInCU: 0x90F7, offset: 0x90F7, size: 0x8, addend: 0x0, symName: __ZNKSt3__113basic_istreamIcNS_11char_traitsIcEEE6sentrycvbB8ue170006Ev, symObjAddr: 0x18AC, symBinAddr: 0x100003618, symSize: 0x1C }
  - { offsetInCU: 0x911C, offset: 0x911C, size: 0x8, addend: 0x0, symName: __ZNSt3__112basic_stringIcNS_11char_traitsIcEENS_9allocatorIcEEE5clearB8ue170006Ev, symObjAddr: 0x18C8, symBinAddr: 0x100003634, symSize: 0x78 }
  - { offsetInCU: 0x9143, offset: 0x9143, size: 0x8, addend: 0x0, symName: __ZNKSt3__112basic_stringIcNS_11char_traitsIcEENS_9allocatorIcEEE8max_sizeB8ue170006Ev, symObjAddr: 0x1940, symBinAddr: 0x1000036AC, symSize: 0xAC }
  - { offsetInCU: 0x9194, offset: 0x9194, size: 0x8, addend: 0x0, symName: __ZNSt3__114numeric_limitsIlE3maxB8ue170006Ev, symObjAddr: 0x19EC, symBinAddr: 0x100003758, symSize: 0x14 }
  - { offsetInCU: 0x91A8, offset: 0x91A8, size: 0x8, addend: 0x0, symName: __ZNSt3__115basic_streambufIcNS_11char_traitsIcEEE5sgetcB8ue170006Ev, symObjAddr: 0x1A00, symBinAddr: 0x10000376C, symSize: 0x70 }
  - { offsetInCU: 0x91CC, offset: 0x91CC, size: 0x8, addend: 0x0, symName: __ZNSt3__111char_traitsIcE12to_char_typeB8ue170006Ei, symObjAddr: 0x1A70, symBinAddr: 0x1000037DC, symSize: 0x18 }
  - { offsetInCU: 0x91EF, offset: 0x91EF, size: 0x8, addend: 0x0, symName: __ZNKSt3__15ctypeIcE2isB8ue170006Ejc, symObjAddr: 0x1A88, symBinAddr: 0x1000037F4, symSize: 0x7C }
  - { offsetInCU: 0x9231, offset: 0x9231, size: 0x8, addend: 0x0, symName: __ZNSt3__115basic_streambufIcNS_11char_traitsIcEEE6sbumpcB8ue170006Ev, symObjAddr: 0x1B04, symBinAddr: 0x100003870, symSize: 0x78 }
  - { offsetInCU: 0x9254, offset: 0x9254, size: 0x8, addend: 0x0, symName: __ZNSt3__18ios_base18__setstate_nothrowB8ue170006Ej, symObjAddr: 0x1B7C, symBinAddr: 0x1000038E8, symSize: 0x64 }
  - { offsetInCU: 0x9288, offset: 0x9288, size: 0x8, addend: 0x0, symName: __ZNKSt3__19basic_iosIcNS_11char_traitsIcEEE10exceptionsB8ue170006Ev, symObjAddr: 0x1BE0, symBinAddr: 0x10000394C, symSize: 0x24 }
  - { offsetInCU: 0x92AC, offset: 0x92AC, size: 0x8, addend: 0x0, symName: __ZNSt3__111char_traitsIcE6assignB8ue170006ERcRKc, symObjAddr: 0x1C04, symBinAddr: 0x100003970, symSize: 0x24 }
  - { offsetInCU: 0x92DD, offset: 0x92DD, size: 0x8, addend: 0x0, symName: __ZNSt3__112basic_stringIcNS_11char_traitsIcEENS_9allocatorIcEEE18__get_long_pointerB8ue170006Ev, symObjAddr: 0x1C28, symBinAddr: 0x100003994, symSize: 0x28 }
  - { offsetInCU: 0x9301, offset: 0x9301, size: 0x8, addend: 0x0, symName: __ZNSt3__112basic_stringIcNS_11char_traitsIcEENS_9allocatorIcEEE19__get_short_pointerB8ue170006Ev, symObjAddr: 0x1C50, symBinAddr: 0x1000039BC, symSize: 0x28 }
  - { offsetInCU: 0x9325, offset: 0x9325, size: 0x8, addend: 0x0, symName: __ZNSt3__112basic_stringIcNS_11char_traitsIcEENS_9allocatorIcEEE16__set_short_sizeB8ue170006Em, symObjAddr: 0x1C78, symBinAddr: 0x1000039E4, symSize: 0x78 }
  - { offsetInCU: 0x9358, offset: 0x9358, size: 0x8, addend: 0x0, symName: __ZNSt3__114pointer_traitsIPcE10pointer_toB8ue170006ERc, symObjAddr: 0x1CF0, symBinAddr: 0x100003A5C, symSize: 0x14 }
  - { offsetInCU: 0x937B, offset: 0x937B, size: 0x8, addend: 0x0, symName: __ZNKSt3__112basic_stringIcNS_11char_traitsIcEENS_9allocatorIcEEE7__allocB8ue170006Ev, symObjAddr: 0x1D04, symBinAddr: 0x100003A70, symSize: 0x24 }
  - { offsetInCU: 0x939F, offset: 0x939F, size: 0x8, addend: 0x0, symName: __ZNSt3__114numeric_limitsImE3maxB8ue170006Ev, symObjAddr: 0x1D28, symBinAddr: 0x100003A94, symSize: 0x14 }
  - { offsetInCU: 0x93B3, offset: 0x93B3, size: 0x8, addend: 0x0, symName: __ZNKSt3__117__compressed_pairINS_12basic_stringIcNS_11char_traitsIcEENS_9allocatorIcEEE5__repES5_E6secondB8ue170006Ev, symObjAddr: 0x1D3C, symBinAddr: 0x100003AA8, symSize: 0x24 }
  - { offsetInCU: 0x93D6, offset: 0x93D6, size: 0x8, addend: 0x0, symName: __ZNKSt3__122__compressed_pair_elemINS_9allocatorIcEELi1ELb1EE5__getB8ue170006Ev, symObjAddr: 0x1D60, symBinAddr: 0x100003ACC, symSize: 0x14 }
  - { offsetInCU: 0x93FB, offset: 0x93FB, size: 0x8, addend: 0x0, symName: __ZNSt3__123__libcpp_numeric_limitsImLb1EE3maxB8ue170006Ev, symObjAddr: 0x1D74, symBinAddr: 0x100003AE0, symSize: 0x8 }
  - { offsetInCU: 0x940F, offset: 0x940F, size: 0x8, addend: 0x0, symName: __ZNSt3__123__libcpp_numeric_limitsIlLb1EE3maxB8ue170006Ev, symObjAddr: 0x1D7C, symBinAddr: 0x100003AE8, symSize: 0x8 }
  - { offsetInCU: 0x9423, offset: 0x9423, size: 0x8, addend: 0x0, symName: __ZNSt3__111char_traitsIcE11to_int_typeB8ue170006Ec, symObjAddr: 0x1D84, symBinAddr: 0x100003AF0, symSize: 0x14 }
  - { offsetInCU: 0x9446, offset: 0x9446, size: 0x8, addend: 0x0, symName: __Z7isasciii, symObjAddr: 0x1D98, symBinAddr: 0x100003B04, symSize: 0x24 }
  - { offsetInCU: 0x9473, offset: 0x9473, size: 0x8, addend: 0x0, symName: __ZNKSt3__18ios_base10exceptionsB8ue170006Ev, symObjAddr: 0x1DBC, symBinAddr: 0x100003B28, symSize: 0x18 }
...
