---
triple:          'arm64-apple-darwin'
binary-path:     '/Users/kajalbormon/Developer/Code/HakerRank/string/output/string'
relocations:
  - { offsetInCU: 0x344B, offset: 0x344B, size: 0x8, addend: 0x0, symName: __ZNSt3__124__put_character_sequenceB8ue170006IcNS_11char_traitsIcEEEERNS_13basic_ostreamIT_T0_EES7_PKS4_m, symObjAddr: 0x1570, symBinAddr: 0x10000260C, symSize: 0x1F4 }
  - { offsetInCU: 0x3DA2, offset: 0x3DA2, size: 0x8, addend: 0x0, symName: __ZNSt3__16copy_nB8ue170006IPKcmPcEENS_9enable_ifIXsr37__has_random_access_iterator_categoryIT_EE5valueET1_E4typeES5_T0_S6_, symObjAddr: 0x2270, symBinAddr: 0x10000330C, symSize: 0x44 }
  - { offsetInCU: 0x4E2C, offset: 0x4E2C, size: 0x8, addend: 0x0, symName: __ZNSt3__1rsB8ue170006IcNS_11char_traitsIcEENS_9allocatorIcEEEERNS_13basic_istreamIT_T0_EES9_RNS_12basic_stringIS6_S7_T1_EE, symObjAddr: 0x26C, symBinAddr: 0x100001308, symSize: 0x324 }
  - { offsetInCU: 0x4EFB, offset: 0x4EFB, size: 0x8, addend: 0x0, symName: __ZNSt3__1lsB8ue170006INS_11char_traitsIcEEEERNS_13basic_ostreamIcT_EES6_PKc, symObjAddr: 0x590, symBinAddr: 0x10000162C, symSize: 0x48 }
  - { offsetInCU: 0x4F41, offset: 0x4F41, size: 0x8, addend: 0x0, symName: __ZNSt3__14endlB8ue170006IcNS_11char_traitsIcEEEERNS_13basic_ostreamIT_T0_EES7_, symObjAddr: 0x658, symBinAddr: 0x1000016F4, symSize: 0x58 }
  - { offsetInCU: 0x4F81, offset: 0x4F81, size: 0x8, addend: 0x0, symName: __ZNSt3__1lsB8ue170006IcNS_11char_traitsIcEENS_9allocatorIcEEEERNS_13basic_ostreamIT_T0_EES9_RKNS_12basic_stringIS6_S7_T1_EE, symObjAddr: 0x6B0, symBinAddr: 0x10000174C, symSize: 0x4C }
  - { offsetInCU: 0x4FD9, offset: 0x4FD9, size: 0x8, addend: 0x0, symName: __ZNSt3__1plB8ue170006IcNS_11char_traitsIcEENS_9allocatorIcEEEENS_12basic_stringIT_T0_T1_EERKS9_SB_, symObjAddr: 0x6FC, symBinAddr: 0x100001798, symSize: 0x134 }
  - { offsetInCU: 0x507A, offset: 0x507A, size: 0x8, addend: 0x0, symName: __ZNSt3__130__libcpp_is_constant_evaluatedB8ue170006Ev, symObjAddr: 0xA74, symBinAddr: 0x100001B10, symSize: 0xC }
  - { offsetInCU: 0x5097, offset: 0x5097, size: 0x8, addend: 0x0, symName: __ZNSt3__117__libcpp_allocateB8ue170006Emm, symObjAddr: 0xD6C, symBinAddr: 0x100001E08, symSize: 0x28 }
  - { offsetInCU: 0x50D4, offset: 0x50D4, size: 0x8, addend: 0x0, symName: __ZNSt3__121__libcpp_operator_newB8ue170006IJmEEEPvDpT_, symObjAddr: 0xDA8, symBinAddr: 0x100001E44, symSize: 0x24 }
  - { offsetInCU: 0x58A4, offset: 0x58A4, size: 0x8, addend: 0x0, symName: __ZNSt3__19use_facetB8ue170006INS_5ctypeIcEEEERKT_RKNS_6localeE, symObjAddr: 0xF70, symBinAddr: 0x10000200C, symSize: 0x2C }
  - { offsetInCU: 0x5EB7, offset: 0x5EB7, size: 0x8, addend: 0x0, symName: __ZNSt3__116__pad_and_outputB8ue170006IcNS_11char_traitsIcEEEENS_19ostreambuf_iteratorIT_T0_EES6_PKS4_S8_S8_RNS_8ios_baseES4_, symObjAddr: 0x17C8, symBinAddr: 0x100002864, symSize: 0x248 }
  - { offsetInCU: 0x5F86, offset: 0x5F86, size: 0x8, addend: 0x0, symName: __ZNSt3__112__to_addressB8ue170006IKcEEPT_S3_, symObjAddr: 0x1BD0, symBinAddr: 0x100002C6C, symSize: 0x14 }
  - { offsetInCU: 0x5FEE, offset: 0x5FEE, size: 0x8, addend: 0x0, symName: __ZNSt3__118__constexpr_strlenB8ue170006EPKc, symObjAddr: 0x1DC8, symBinAddr: 0x100002E64, symSize: 0x24 }
  - { offsetInCU: 0x601A, offset: 0x601A, size: 0x8, addend: 0x0, symName: __ZNSt3__112__to_addressB8ue170006IcEEPT_S2_, symObjAddr: 0x1E5C, symBinAddr: 0x100002EF8, symSize: 0x14 }
  - { offsetInCU: 0x604F, offset: 0x604F, size: 0x8, addend: 0x0, symName: __ZNSt3__120__throw_length_errorB8ue170006EPKc, symObjAddr: 0x218C, symBinAddr: 0x100003228, symSize: 0x64 }
  - { offsetInCU: 0x6079, offset: 0x6079, size: 0x8, addend: 0x0, symName: __ZNSt3__14copyB8ue170006IPKcPcEET0_T_S5_S4_, symObjAddr: 0x22B4, symBinAddr: 0x100003350, symSize: 0x40 }
  - { offsetInCU: 0x60D3, offset: 0x60D3, size: 0x8, addend: 0x0, symName: __ZNSt3__16__copyB8ue170006INS_17_ClassicAlgPolicyEPKcS3_PcEENS_4pairIT0_T2_EES6_T1_S7_, symObjAddr: 0x22F4, symBinAddr: 0x100003390, symSize: 0x44 }
  - { offsetInCU: 0x613F, offset: 0x613F, size: 0x8, addend: 0x0, symName: __ZNSt3__123__dispatch_copy_or_moveB8ue170006INS_17_ClassicAlgPolicyENS_11__copy_loopIS1_EENS_14__copy_trivialEPKcS6_PcEENS_4pairIT2_T4_EES9_T3_SA_, symObjAddr: 0x2338, symBinAddr: 0x1000033D4, symSize: 0x44 }
  - { offsetInCU: 0x61BD, offset: 0x61BD, size: 0x8, addend: 0x0, symName: __ZNSt3__121__unwrap_and_dispatchB8ue170006INS_10__overloadINS_11__copy_loopINS_17_ClassicAlgPolicyEEENS_14__copy_trivialEEEPKcS8_PcLi0EEENS_4pairIT0_T2_EESB_T1_SC_, symObjAddr: 0x237C, symBinAddr: 0x100003418, symSize: 0xB4 }
  - { offsetInCU: 0x624B, offset: 0x624B, size: 0x8, addend: 0x0, symName: __ZNSt3__114__unwrap_rangeB8ue170006IPKcS2_EENS_4pairIT0_S4_EET_S6_, symObjAddr: 0x2430, symBinAddr: 0x1000034CC, symSize: 0x60 }
  - { offsetInCU: 0x638A, offset: 0x638A, size: 0x8, addend: 0x0, symName: __ZNSt3__113__unwrap_iterB8ue170006IPcNS_18__unwrap_iter_implIS1_Lb1EEELi0EEEDTclsrT0_8__unwrapclsr3stdE7declvalIT_EEEES5_, symObjAddr: 0x24D8, symBinAddr: 0x100003574, symSize: 0x24 }
  - { offsetInCU: 0x63CE, offset: 0x63CE, size: 0x8, addend: 0x0, symName: __ZNSt3__19make_pairB8ue170006IPKcPcEENS_4pairINS_18__unwrap_ref_decayIT_E4typeENS5_IT0_E4typeEEEOS6_OS9_, symObjAddr: 0x24FC, symBinAddr: 0x100003598, symSize: 0x38 }
  - { offsetInCU: 0x641D, offset: 0x641D, size: 0x8, addend: 0x0, symName: __ZNSt3__114__rewrap_rangeB8ue170006IPKcS2_EET_S3_T0_, symObjAddr: 0x2534, symBinAddr: 0x1000035D0, symSize: 0x2C }
  - { offsetInCU: 0x6469, offset: 0x6469, size: 0x8, addend: 0x0, symName: __ZNSt3__113__rewrap_iterB8ue170006IPcS1_NS_18__unwrap_iter_implIS1_Lb1EEEEET_S4_T0_, symObjAddr: 0x2560, symBinAddr: 0x1000035FC, symSize: 0x50 }
  - { offsetInCU: 0x64BE, offset: 0x64BE, size: 0x8, addend: 0x0, symName: __ZNSt3__19make_pairB8ue170006IPKcS2_EENS_4pairINS_18__unwrap_ref_decayIT_E4typeENS4_IT0_E4typeEEEOS5_OS8_, symObjAddr: 0x25B0, symBinAddr: 0x10000364C, symSize: 0x38 }
  - { offsetInCU: 0x650D, offset: 0x650D, size: 0x8, addend: 0x0, symName: __ZNSt3__113__unwrap_iterB8ue170006IPKcNS_18__unwrap_iter_implIS2_Lb1EEELi0EEEDTclsrT0_8__unwrapclsr3stdE7declvalIT_EEEES6_, symObjAddr: 0x25E8, symBinAddr: 0x100003684, symSize: 0x24 }
  - { offsetInCU: 0x6651, offset: 0x6651, size: 0x8, addend: 0x0, symName: __ZNSt3__119__copy_trivial_implB8ue170006IKccEENS_4pairIPT_PT0_EES4_S4_S6_, symObjAddr: 0x26A0, symBinAddr: 0x10000373C, symSize: 0x78 }
  - { offsetInCU: 0x66B9, offset: 0x66B9, size: 0x8, addend: 0x0, symName: __ZNSt3__119__constexpr_memmoveB8ue170006IcKcLi0EEEPT_S3_PT0_NS_15__element_countE, symObjAddr: 0x2718, symBinAddr: 0x1000037B4, symSize: 0xA0 }
  - { offsetInCU: 0x6727, offset: 0x6727, size: 0x8, addend: 0x0, symName: __ZNSt3__19make_pairB8ue170006IRPKcPcEENS_4pairINS_18__unwrap_ref_decayIT_E4typeENS6_IT0_E4typeEEEOS7_OSA_, symObjAddr: 0x27B8, symBinAddr: 0x100003854, symSize: 0x38 }
  - { offsetInCU: 0x67C9, offset: 0x67C9, size: 0x8, addend: 0x0, symName: __ZNSt3__113__rewrap_iterB8ue170006IPKcS2_NS_18__unwrap_iter_implIS2_Lb1EEEEET_S5_T0_, symObjAddr: 0x2884, symBinAddr: 0x100003920, symSize: 0x50 }
  - { offsetInCU: 0x681E, offset: 0x681E, size: 0x8, addend: 0x0, symName: __ZNSt3__16fill_nB8ue170006IPcmcEET_S2_T0_RKT1_, symObjAddr: 0x2964, symBinAddr: 0x100003A00, symSize: 0x44 }
  - { offsetInCU: 0x6881, offset: 0x6881, size: 0x8, addend: 0x0, symName: __ZNSt3__18__fill_nB8ue170006IPcmcEET_S2_T0_RKT1_, symObjAddr: 0x29A8, symBinAddr: 0x100003A44, symSize: 0x64 }
  - { offsetInCU: 0x68E4, offset: 0x68E4, size: 0x8, addend: 0x0, symName: __ZNSt3__121__convert_to_integralB8ue170006Em, symObjAddr: 0x2A0C, symBinAddr: 0x100003AA8, symSize: 0x14 }
  - { offsetInCU: 0x6AF3, offset: 0x6AF3, size: 0x8, addend: 0x0, symName: __ZSt28__throw_bad_array_new_lengthB8ue170006v, symObjAddr: 0xD38, symBinAddr: 0x100001DD4, symSize: 0x34 }
  - { offsetInCU: 0x912C, offset: 0x912C, size: 0x8, addend: 0x0, symName: _main, symObjAddr: 0x0, symBinAddr: 0x10000109C, symSize: 0x240 }
  - { offsetInCU: 0x9171, offset: 0x9171, size: 0x8, addend: 0x0, symName: __ZNSt3__112basic_stringIcNS_11char_traitsIcEENS_9allocatorIcEEEC1B8ue170006Ev, symObjAddr: 0x240, symBinAddr: 0x1000012DC, symSize: 0x2C }
  - { offsetInCU: 0x919B, offset: 0x919B, size: 0x8, addend: 0x0, symName: __ZNKSt3__112basic_stringIcNS_11char_traitsIcEENS_9allocatorIcEEE4sizeB8ue170006Ev, symObjAddr: 0x5D8, symBinAddr: 0x100001674, symSize: 0x54 }
  - { offsetInCU: 0x91C1, offset: 0x91C1, size: 0x8, addend: 0x0, symName: __ZNSt3__113basic_ostreamIcNS_11char_traitsIcEEElsB8ue170006EPFRS3_S4_E, symObjAddr: 0x62C, symBinAddr: 0x1000016C8, symSize: 0x2C }
  - { offsetInCU: 0x91F5, offset: 0x91F5, size: 0x8, addend: 0x0, symName: __ZNSt3__112basic_stringIcNS_11char_traitsIcEENS_9allocatorIcEEEixB8ue170006Em, symObjAddr: 0x83C, symBinAddr: 0x1000018D8, symSize: 0x30 }
  - { offsetInCU: 0x922A, offset: 0x922A, size: 0x8, addend: 0x0, symName: __ZNSt3__112basic_stringIcNS_11char_traitsIcEENS_9allocatorIcEEEC2B8ue170006Ev, symObjAddr: 0x86C, symBinAddr: 0x100001908, symSize: 0x3C }
  - { offsetInCU: 0x9259, offset: 0x9259, size: 0x8, addend: 0x0, symName: __ZNSt3__117__compressed_pairINS_12basic_stringIcNS_11char_traitsIcEENS_9allocatorIcEEE5__repES5_EC1B8ue170006INS_18__default_init_tagESA_EEOT_OT0_, symObjAddr: 0x8A8, symBinAddr: 0x100001944, symSize: 0x3C }
  - { offsetInCU: 0x92B1, offset: 0x92B1, size: 0x8, addend: 0x0, symName: __ZNSt3__112basic_stringIcNS_11char_traitsIcEENS_9allocatorIcEEE14__default_initB8ue170006Ev, symObjAddr: 0x8E4, symBinAddr: 0x100001980, symSize: 0xB0 }
  - { offsetInCU: 0x9304, offset: 0x9304, size: 0x8, addend: 0x0, symName: __ZNSt3__117__compressed_pairINS_12basic_stringIcNS_11char_traitsIcEENS_9allocatorIcEEE5__repES5_EC2B8ue170006INS_18__default_init_tagESA_EEOT_OT0_, symObjAddr: 0x994, symBinAddr: 0x100001A30, symSize: 0x3C }
  - { offsetInCU: 0x935C, offset: 0x935C, size: 0x8, addend: 0x0, symName: __ZNSt3__122__compressed_pair_elemINS_12basic_stringIcNS_11char_traitsIcEENS_9allocatorIcEEE5__repELi0ELb0EEC2B8ue170006ENS_18__default_init_tagE, symObjAddr: 0x9D0, symBinAddr: 0x100001A6C, symSize: 0x14 }
  - { offsetInCU: 0x9391, offset: 0x9391, size: 0x8, addend: 0x0, symName: __ZNSt3__122__compressed_pair_elemINS_9allocatorIcEELi1ELb1EEC2B8ue170006ENS_18__default_init_tagE, symObjAddr: 0x9E4, symBinAddr: 0x100001A80, symSize: 0x2C }
  - { offsetInCU: 0x93C6, offset: 0x93C6, size: 0x8, addend: 0x0, symName: __ZNSt3__19allocatorIcEC2B8ue170006Ev, symObjAddr: 0xA10, symBinAddr: 0x100001AAC, symSize: 0x2C }
  - { offsetInCU: 0x93F0, offset: 0x93F0, size: 0x8, addend: 0x0, symName: __ZNSt3__116__non_trivial_ifILb1ENS_9allocatorIcEEEC2B8ue170006Ev, symObjAddr: 0xA3C, symBinAddr: 0x100001AD8, symSize: 0x14 }
  - { offsetInCU: 0x941A, offset: 0x941A, size: 0x8, addend: 0x0, symName: __ZNSt3__117__compressed_pairINS_12basic_stringIcNS_11char_traitsIcEENS_9allocatorIcEEE5__repES5_E5firstB8ue170006Ev, symObjAddr: 0xA50, symBinAddr: 0x100001AEC, symSize: 0x24 }
  - { offsetInCU: 0x9440, offset: 0x9440, size: 0x8, addend: 0x0, symName: __ZNSt3__112basic_stringIcNS_11char_traitsIcEENS_9allocatorIcEEE11__recommendB8ue170006Em, symObjAddr: 0xA80, symBinAddr: 0x100001B1C, symSize: 0x9C }
  - { offsetInCU: 0x9473, offset: 0x9473, size: 0x8, addend: 0x0, symName: __ZNSt3__116allocator_traitsINS_9allocatorIcEEE8allocateB8ue170006ERS2_m, symObjAddr: 0xB1C, symBinAddr: 0x100001BB8, symSize: 0x2C }
  - { offsetInCU: 0x94A6, offset: 0x94A6, size: 0x8, addend: 0x0, symName: __ZNSt3__112basic_stringIcNS_11char_traitsIcEENS_9allocatorIcEEE7__allocB8ue170006Ev, symObjAddr: 0xB48, symBinAddr: 0x100001BE4, symSize: 0x24 }
  - { offsetInCU: 0x94CC, offset: 0x94CC, size: 0x8, addend: 0x0, symName: __ZNSt3__112basic_stringIcNS_11char_traitsIcEENS_9allocatorIcEEE16__begin_lifetimeB8ue170006EPcm, symObjAddr: 0xB6C, symBinAddr: 0x100001C08, symSize: 0x14 }
  - { offsetInCU: 0x94FF, offset: 0x94FF, size: 0x8, addend: 0x0, symName: __ZNSt3__112basic_stringIcNS_11char_traitsIcEENS_9allocatorIcEEE18__set_long_pointerB8ue170006EPc, symObjAddr: 0xB80, symBinAddr: 0x100001C1C, symSize: 0x38 }
  - { offsetInCU: 0x9534, offset: 0x9534, size: 0x8, addend: 0x0, symName: __ZNSt3__112basic_stringIcNS_11char_traitsIcEENS_9allocatorIcEEE14__set_long_capB8ue170006Em, symObjAddr: 0xBB8, symBinAddr: 0x100001C54, symSize: 0x70 }
  - { offsetInCU: 0x9569, offset: 0x9569, size: 0x8, addend: 0x0, symName: __ZNSt3__112basic_stringIcNS_11char_traitsIcEENS_9allocatorIcEEE15__set_long_sizeB8ue170006Em, symObjAddr: 0xC28, symBinAddr: 0x100001CC4, symSize: 0x38 }
  - { offsetInCU: 0x959E, offset: 0x959E, size: 0x8, addend: 0x0, symName: __ZNSt3__122__compressed_pair_elemINS_12basic_stringIcNS_11char_traitsIcEENS_9allocatorIcEEE5__repELi0ELb0EE5__getB8ue170006Ev, symObjAddr: 0xC60, symBinAddr: 0x100001CFC, symSize: 0x14 }
  - { offsetInCU: 0x95C4, offset: 0x95C4, size: 0x8, addend: 0x0, symName: __ZNSt3__112basic_stringIcNS_11char_traitsIcEENS_9allocatorIcEEE10__align_itB8ue170006ILm16EEEmm, symObjAddr: 0xC74, symBinAddr: 0x100001D10, symSize: 0x1C }
  - { offsetInCU: 0x95F2, offset: 0x95F2, size: 0x8, addend: 0x0, symName: __ZNSt3__19allocatorIcE8allocateB8ue170006Em, symObjAddr: 0xC90, symBinAddr: 0x100001D2C, symSize: 0x84 }
  - { offsetInCU: 0x9630, offset: 0x9630, size: 0x8, addend: 0x0, symName: __ZNSt3__116allocator_traitsINS_9allocatorIcEEE8max_sizeB8ue170006IS2_vEEmRKS2_, symObjAddr: 0xD14, symBinAddr: 0x100001DB0, symSize: 0x24 }
  - { offsetInCU: 0x965E, offset: 0x965E, size: 0x8, addend: 0x0, symName: __ZNKSt3__19allocatorIcE8max_sizeB8ue170006Ev, symObjAddr: 0xD94, symBinAddr: 0x100001E30, symSize: 0x14 }
  - { offsetInCU: 0x9684, offset: 0x9684, size: 0x8, addend: 0x0, symName: __ZNSt3__117__compressed_pairINS_12basic_stringIcNS_11char_traitsIcEENS_9allocatorIcEEE5__repES5_E6secondB8ue170006Ev, symObjAddr: 0xDCC, symBinAddr: 0x100001E68, symSize: 0x24 }
  - { offsetInCU: 0x96AA, offset: 0x96AA, size: 0x8, addend: 0x0, symName: __ZNSt3__122__compressed_pair_elemINS_9allocatorIcEELi1ELb1EE5__getB8ue170006Ev, symObjAddr: 0xDF0, symBinAddr: 0x100001E8C, symSize: 0x14 }
  - { offsetInCU: 0x9777, offset: 0x9777, size: 0x8, addend: 0x0, symName: __ZNKSt3__113basic_istreamIcNS_11char_traitsIcEEE6sentrycvbB8ue170006Ev, symObjAddr: 0xE04, symBinAddr: 0x100001EA0, symSize: 0x1C }
  - { offsetInCU: 0x979D, offset: 0x979D, size: 0x8, addend: 0x0, symName: __ZNSt3__112basic_stringIcNS_11char_traitsIcEENS_9allocatorIcEEE5clearB8ue170006Ev, symObjAddr: 0xE20, symBinAddr: 0x100001EBC, symSize: 0x78 }
  - { offsetInCU: 0x97C5, offset: 0x97C5, size: 0x8, addend: 0x0, symName: __ZNKSt3__18ios_base5widthB8ue170006Ev, symObjAddr: 0xE98, symBinAddr: 0x100001F34, symSize: 0x18 }
  - { offsetInCU: 0x97ED, offset: 0x97ED, size: 0x8, addend: 0x0, symName: __ZNKSt3__112basic_stringIcNS_11char_traitsIcEENS_9allocatorIcEEE8max_sizeB8ue170006Ev, symObjAddr: 0xEB0, symBinAddr: 0x100001F4C, symSize: 0xAC }
  - { offsetInCU: 0x9840, offset: 0x9840, size: 0x8, addend: 0x0, symName: __ZNSt3__114numeric_limitsIlE3maxB8ue170006Ev, symObjAddr: 0xF5C, symBinAddr: 0x100001FF8, symSize: 0x14 }
  - { offsetInCU: 0x9854, offset: 0x9854, size: 0x8, addend: 0x0, symName: __ZNKSt3__19basic_iosIcNS_11char_traitsIcEEE5rdbufB8ue170006Ev, symObjAddr: 0xF9C, symBinAddr: 0x100002038, symSize: 0x24 }
  - { offsetInCU: 0x987C, offset: 0x987C, size: 0x8, addend: 0x0, symName: __ZNSt3__115basic_streambufIcNS_11char_traitsIcEEE5sgetcB8ue170006Ev, symObjAddr: 0xFC0, symBinAddr: 0x10000205C, symSize: 0x70 }
  - { offsetInCU: 0x98A2, offset: 0x98A2, size: 0x8, addend: 0x0, symName: __ZNSt3__111char_traitsIcE11eq_int_typeB8ue170006Eii, symObjAddr: 0x1030, symBinAddr: 0x1000020CC, symSize: 0x28 }
  - { offsetInCU: 0x98D5, offset: 0x98D5, size: 0x8, addend: 0x0, symName: __ZNSt3__111char_traitsIcE3eofB8ue170006Ev, symObjAddr: 0x1058, symBinAddr: 0x1000020F4, symSize: 0x8 }
  - { offsetInCU: 0x98E9, offset: 0x98E9, size: 0x8, addend: 0x0, symName: __ZNSt3__111char_traitsIcE12to_char_typeB8ue170006Ei, symObjAddr: 0x1060, symBinAddr: 0x1000020FC, symSize: 0x18 }
  - { offsetInCU: 0x9934, offset: 0x9934, size: 0x8, addend: 0x0, symName: __ZNKSt3__15ctypeIcE2isB8ue170006Ejc, symObjAddr: 0x1078, symBinAddr: 0x100002114, symSize: 0x7C }
  - { offsetInCU: 0x9978, offset: 0x9978, size: 0x8, addend: 0x0, symName: __ZNSt3__115basic_streambufIcNS_11char_traitsIcEEE6sbumpcB8ue170006Ev, symObjAddr: 0x10F4, symBinAddr: 0x100002190, symSize: 0x78 }
  - { offsetInCU: 0x999E, offset: 0x999E, size: 0x8, addend: 0x0, symName: __ZNSt3__18ios_base5widthB8ue170006El, symObjAddr: 0x116C, symBinAddr: 0x100002208, symSize: 0x2C }
  - { offsetInCU: 0x99E4, offset: 0x99E4, size: 0x8, addend: 0x0, symName: __ZNSt3__18ios_base18__setstate_nothrowB8ue170006Ej, symObjAddr: 0x1198, symBinAddr: 0x100002234, symSize: 0x64 }
  - { offsetInCU: 0x9A19, offset: 0x9A19, size: 0x8, addend: 0x0, symName: __ZNKSt3__19basic_iosIcNS_11char_traitsIcEEE10exceptionsB8ue170006Ev, symObjAddr: 0x11FC, symBinAddr: 0x100002298, symSize: 0x24 }
  - { offsetInCU: 0x9A3F, offset: 0x9A3F, size: 0x8, addend: 0x0, symName: __ZNSt3__19basic_iosIcNS_11char_traitsIcEEE8setstateB8ue170006Ej, symObjAddr: 0x1220, symBinAddr: 0x1000022BC, symSize: 0x2C }
  - { offsetInCU: 0x9A74, offset: 0x9A74, size: 0x8, addend: 0x0, symName: __ZNKSt3__112basic_stringIcNS_11char_traitsIcEENS_9allocatorIcEEE9__is_longB8ue170006Ev, symObjAddr: 0x124C, symBinAddr: 0x1000022E8, symSize: 0x74 }
  - { offsetInCU: 0x9A9A, offset: 0x9A9A, size: 0x8, addend: 0x0, symName: __ZNSt3__111char_traitsIcE6assignB8ue170006ERcRKc, symObjAddr: 0x12C0, symBinAddr: 0x10000235C, symSize: 0x24 }
  - { offsetInCU: 0x9ACB, offset: 0x9ACB, size: 0x8, addend: 0x0, symName: __ZNSt3__112basic_stringIcNS_11char_traitsIcEENS_9allocatorIcEEE18__get_long_pointerB8ue170006Ev, symObjAddr: 0x12E4, symBinAddr: 0x100002380, symSize: 0x28 }
  - { offsetInCU: 0x9AF1, offset: 0x9AF1, size: 0x8, addend: 0x0, symName: __ZNSt3__112basic_stringIcNS_11char_traitsIcEENS_9allocatorIcEEE19__get_short_pointerB8ue170006Ev, symObjAddr: 0x130C, symBinAddr: 0x1000023A8, symSize: 0x28 }
  - { offsetInCU: 0x9B17, offset: 0x9B17, size: 0x8, addend: 0x0, symName: __ZNSt3__112basic_stringIcNS_11char_traitsIcEENS_9allocatorIcEEE16__set_short_sizeB8ue170006Em, symObjAddr: 0x1334, symBinAddr: 0x1000023D0, symSize: 0x78 }
  - { offsetInCU: 0x9B4C, offset: 0x9B4C, size: 0x8, addend: 0x0, symName: __ZNKSt3__117__compressed_pairINS_12basic_stringIcNS_11char_traitsIcEENS_9allocatorIcEEE5__repES5_E5firstB8ue170006Ev, symObjAddr: 0x13AC, symBinAddr: 0x100002448, symSize: 0x24 }
  - { offsetInCU: 0x9B72, offset: 0x9B72, size: 0x8, addend: 0x0, symName: __ZNKSt3__122__compressed_pair_elemINS_12basic_stringIcNS_11char_traitsIcEENS_9allocatorIcEEE5__repELi0ELb0EE5__getB8ue170006Ev, symObjAddr: 0x13D0, symBinAddr: 0x10000246C, symSize: 0x14 }
  - { offsetInCU: 0x9B98, offset: 0x9B98, size: 0x8, addend: 0x0, symName: __ZNSt3__114pointer_traitsIPcE10pointer_toB8ue170006ERc, symObjAddr: 0x13E4, symBinAddr: 0x100002480, symSize: 0x14 }
  - { offsetInCU: 0x9BBB, offset: 0x9BBB, size: 0x8, addend: 0x0, symName: __ZNKSt3__112basic_stringIcNS_11char_traitsIcEENS_9allocatorIcEEE7__allocB8ue170006Ev, symObjAddr: 0x13F8, symBinAddr: 0x100002494, symSize: 0x24 }
  - { offsetInCU: 0x9BE1, offset: 0x9BE1, size: 0x8, addend: 0x0, symName: __ZNSt3__114numeric_limitsImE3maxB8ue170006Ev, symObjAddr: 0x141C, symBinAddr: 0x1000024B8, symSize: 0x14 }
  - { offsetInCU: 0x9BF5, offset: 0x9BF5, size: 0x8, addend: 0x0, symName: __ZNKSt3__117__compressed_pairINS_12basic_stringIcNS_11char_traitsIcEENS_9allocatorIcEEE5__repES5_E6secondB8ue170006Ev, symObjAddr: 0x1430, symBinAddr: 0x1000024CC, symSize: 0x24 }
  - { offsetInCU: 0x9C1B, offset: 0x9C1B, size: 0x8, addend: 0x0, symName: __ZNKSt3__122__compressed_pair_elemINS_9allocatorIcEELi1ELb1EE5__getB8ue170006Ev, symObjAddr: 0x1454, symBinAddr: 0x1000024F0, symSize: 0x14 }
  - { offsetInCU: 0x9C41, offset: 0x9C41, size: 0x8, addend: 0x0, symName: __ZNSt3__123__libcpp_numeric_limitsImLb1EE3maxB8ue170006Ev, symObjAddr: 0x1468, symBinAddr: 0x100002504, symSize: 0x8 }
  - { offsetInCU: 0x9C55, offset: 0x9C55, size: 0x8, addend: 0x0, symName: __ZNSt3__123__libcpp_numeric_limitsIlLb1EE3maxB8ue170006Ev, symObjAddr: 0x1470, symBinAddr: 0x10000250C, symSize: 0x8 }
  - { offsetInCU: 0x9C69, offset: 0x9C69, size: 0x8, addend: 0x0, symName: __ZNKSt3__18ios_base5rdbufB8ue170006Ev, symObjAddr: 0x1478, symBinAddr: 0x100002514, symSize: 0x18 }
  - { offsetInCU: 0x9C8F, offset: 0x9C8F, size: 0x8, addend: 0x0, symName: __ZNSt3__111char_traitsIcE11to_int_typeB8ue170006Ec, symObjAddr: 0x1490, symBinAddr: 0x10000252C, symSize: 0x14 }
  - { offsetInCU: 0x9CB2, offset: 0x9CB2, size: 0x8, addend: 0x0, symName: __Z7isasciii, symObjAddr: 0x14A4, symBinAddr: 0x100002540, symSize: 0x24 }
  - { offsetInCU: 0x9CDF, offset: 0x9CDF, size: 0x8, addend: 0x0, symName: __ZNKSt3__18ios_base10exceptionsB8ue170006Ev, symObjAddr: 0x14C8, symBinAddr: 0x100002564, symSize: 0x18 }
  - { offsetInCU: 0x9D07, offset: 0x9D07, size: 0x8, addend: 0x0, symName: __ZNSt3__18ios_base8setstateB8ue170006Ej, symObjAddr: 0x14E0, symBinAddr: 0x10000257C, symSize: 0x34 }
  - { offsetInCU: 0x9D3E, offset: 0x9D3E, size: 0x8, addend: 0x0, symName: __ZNKSt3__112basic_stringIcNS_11char_traitsIcEENS_9allocatorIcEEE15__get_long_sizeB8ue170006Ev, symObjAddr: 0x1514, symBinAddr: 0x1000025B0, symSize: 0x28 }
  - { offsetInCU: 0x9D64, offset: 0x9D64, size: 0x8, addend: 0x0, symName: __ZNKSt3__112basic_stringIcNS_11char_traitsIcEENS_9allocatorIcEEE16__get_short_sizeB8ue170006Ev, symObjAddr: 0x153C, symBinAddr: 0x1000025D8, symSize: 0x34 }
  - { offsetInCU: 0x9D8A, offset: 0x9D8A, size: 0x8, addend: 0x0, symName: __ZNSt3__111char_traitsIcE6lengthB8ue170006EPKc, symObjAddr: 0x1764, symBinAddr: 0x100002800, symSize: 0x48 }
  - { offsetInCU: 0x9DCB, offset: 0x9DCB, size: 0x8, addend: 0x0, symName: __ZNKSt3__113basic_ostreamIcNS_11char_traitsIcEEE6sentrycvbB8ue170006Ev, symObjAddr: 0x17AC, symBinAddr: 0x100002848, symSize: 0x1C }
  - { offsetInCU: 0x9DF1, offset: 0x9DF1, size: 0x8, addend: 0x0, symName: __ZNSt3__119ostreambuf_iteratorIcNS_11char_traitsIcEEEC1B8ue170006ERNS_13basic_ostreamIcS2_EE, symObjAddr: 0x1A10, symBinAddr: 0x100002AAC, symSize: 0x34 }
  - { offsetInCU: 0x9E29, offset: 0x9E29, size: 0x8, addend: 0x0, symName: __ZNKSt3__18ios_base5flagsB8ue170006Ev, symObjAddr: 0x1A44, symBinAddr: 0x100002AE0, symSize: 0x18 }
  - { offsetInCU: 0x9E51, offset: 0x9E51, size: 0x8, addend: 0x0, symName: __ZNKSt3__19basic_iosIcNS_11char_traitsIcEEE4fillB8ue170006Ev, symObjAddr: 0x1A5C, symBinAddr: 0x100002AF8, symSize: 0x64 }
  - { offsetInCU: 0x9E79, offset: 0x9E79, size: 0x8, addend: 0x0, symName: __ZNKSt3__119ostreambuf_iteratorIcNS_11char_traitsIcEEE6failedB8ue170006Ev, symObjAddr: 0x1AC0, symBinAddr: 0x100002B5C, symSize: 0x24 }
  - { offsetInCU: 0x9E9F, offset: 0x9E9F, size: 0x8, addend: 0x0, symName: __ZNSt3__115basic_streambufIcNS_11char_traitsIcEEE5sputnB8ue170006EPKcl, symObjAddr: 0x1AE4, symBinAddr: 0x100002B80, symSize: 0x3C }
  - { offsetInCU: 0x9EE1, offset: 0x9EE1, size: 0x8, addend: 0x0, symName: __ZNSt3__112basic_stringIcNS_11char_traitsIcEENS_9allocatorIcEEEC1B8ue170006Emc, symObjAddr: 0x1B20, symBinAddr: 0x100002BBC, symSize: 0x3C }
  - { offsetInCU: 0x9F29, offset: 0x9F29, size: 0x8, addend: 0x0, symName: __ZNKSt3__112basic_stringIcNS_11char_traitsIcEENS_9allocatorIcEEE4dataB8ue170006Ev, symObjAddr: 0x1B5C, symBinAddr: 0x100002BF8, symSize: 0x28 }
  - { offsetInCU: 0x9F4F, offset: 0x9F4F, size: 0x8, addend: 0x0, symName: __ZNSt3__112basic_stringIcNS_11char_traitsIcEENS_9allocatorIcEEEC2B8ue170006Emc, symObjAddr: 0x1B84, symBinAddr: 0x100002C20, symSize: 0x4C }
  - { offsetInCU: 0x9F97, offset: 0x9F97, size: 0x8, addend: 0x0, symName: __ZNKSt3__112basic_stringIcNS_11char_traitsIcEENS_9allocatorIcEEE13__get_pointerB8ue170006Ev, symObjAddr: 0x1BE4, symBinAddr: 0x100002C80, symSize: 0x54 }
  - { offsetInCU: 0x9FBD, offset: 0x9FBD, size: 0x8, addend: 0x0, symName: __ZNKSt3__112basic_stringIcNS_11char_traitsIcEENS_9allocatorIcEEE18__get_long_pointerB8ue170006Ev, symObjAddr: 0x1C38, symBinAddr: 0x100002CD4, symSize: 0x28 }
  - { offsetInCU: 0x9FE3, offset: 0x9FE3, size: 0x8, addend: 0x0, symName: __ZNKSt3__112basic_stringIcNS_11char_traitsIcEENS_9allocatorIcEEE19__get_short_pointerB8ue170006Ev, symObjAddr: 0x1C60, symBinAddr: 0x100002CFC, symSize: 0x28 }
  - { offsetInCU: 0xA009, offset: 0xA009, size: 0x8, addend: 0x0, symName: __ZNSt3__114pointer_traitsIPKcE10pointer_toB8ue170006ERS1_, symObjAddr: 0x1C88, symBinAddr: 0x100002D24, symSize: 0x14 }
  - { offsetInCU: 0xA02C, offset: 0xA02C, size: 0x8, addend: 0x0, symName: __ZNSt3__119ostreambuf_iteratorIcNS_11char_traitsIcEEEC2B8ue170006ERNS_13basic_ostreamIcS2_EE, symObjAddr: 0x1C9C, symBinAddr: 0x100002D38, symSize: 0x68 }
  - { offsetInCU: 0xA064, offset: 0xA064, size: 0x8, addend: 0x0, symName: __ZNKSt3__19basic_iosIcNS_11char_traitsIcEEE5widenB8ue170006Ec, symObjAddr: 0x1D04, symBinAddr: 0x100002DA0, symSize: 0x8C }
  - { offsetInCU: 0xA09B, offset: 0xA09B, size: 0x8, addend: 0x0, symName: __ZNKSt3__15ctypeIcE5widenB8ue170006Ec, symObjAddr: 0x1D90, symBinAddr: 0x100002E2C, symSize: 0x38 }
  - { offsetInCU: 0xA0D0, offset: 0xA0D0, size: 0x8, addend: 0x0, symName: __ZNSt3__116allocator_traitsINS_9allocatorIcEEE37select_on_container_copy_constructionB8ue170006IS2_vvEES2_RKS2_, symObjAddr: 0x1DEC, symBinAddr: 0x100002E88, symSize: 0x10 }
  - { offsetInCU: 0xA0FF, offset: 0xA0FF, size: 0x8, addend: 0x0, symName: __ZNKSt3__112basic_stringIcNS_11char_traitsIcEENS_9allocatorIcEEE13get_allocatorB8ue170006Ev, symObjAddr: 0x1DFC, symBinAddr: 0x100002E98, symSize: 0x24 }
  - { offsetInCU: 0xA125, offset: 0xA125, size: 0x8, addend: 0x0, symName: __ZNSt3__112basic_stringIcNS_11char_traitsIcEENS_9allocatorIcEEEC1B8ue170006ENS_24__uninitialized_size_tagEmRKS4_, symObjAddr: 0x1E20, symBinAddr: 0x100002EBC, symSize: 0x3C }
  - { offsetInCU: 0xA179, offset: 0xA179, size: 0x8, addend: 0x0, symName: __ZNSt3__112basic_stringIcNS_11char_traitsIcEENS_9allocatorIcEEE13__get_pointerB8ue170006Ev, symObjAddr: 0x1E70, symBinAddr: 0x100002F0C, symSize: 0x54 }
  - { offsetInCU: 0xA19F, offset: 0xA19F, size: 0x8, addend: 0x0, symName: __ZNSt3__111char_traitsIcE4copyB8ue170006EPcPKcm, symObjAddr: 0x1EC4, symBinAddr: 0x100002F60, symSize: 0x64 }
  - { offsetInCU: 0xA1DE, offset: 0xA1DE, size: 0x8, addend: 0x0, symName: __ZNSt3__111char_traitsIcE6assignB8ue170006EPcmc, symObjAddr: 0x1F28, symBinAddr: 0x100002FC4, symSize: 0x58 }
  - { offsetInCU: 0xA21D, offset: 0xA21D, size: 0x8, addend: 0x0, symName: __ZNSt3__112basic_stringIcNS_11char_traitsIcEENS_9allocatorIcEEEC2B8ue170006ENS_24__uninitialized_size_tagEmRKS4_, symObjAddr: 0x1F80, symBinAddr: 0x10000301C, symSize: 0x110 }
  - { offsetInCU: 0xA29E, offset: 0xA29E, size: 0x8, addend: 0x0, symName: __ZNSt3__117__compressed_pairINS_12basic_stringIcNS_11char_traitsIcEENS_9allocatorIcEEE5__repES5_EC1B8ue170006INS_18__default_init_tagERKS5_EEOT_OT0_, symObjAddr: 0x2090, symBinAddr: 0x10000312C, symSize: 0x3C }
  - { offsetInCU: 0xA2F6, offset: 0xA2F6, size: 0x8, addend: 0x0, symName: __ZNKSt3__112basic_stringIcNS_11char_traitsIcEENS_9allocatorIcEEE20__throw_length_errorB8ue170006Ev, symObjAddr: 0x20CC, symBinAddr: 0x100003168, symSize: 0x1C }
  - { offsetInCU: 0xA31C, offset: 0xA31C, size: 0x8, addend: 0x0, symName: __ZNSt3__112basic_stringIcNS_11char_traitsIcEENS_9allocatorIcEEE13__fits_in_ssoB8ue170006Em, symObjAddr: 0x20E8, symBinAddr: 0x100003184, symSize: 0x4C }
  - { offsetInCU: 0xA340, offset: 0xA340, size: 0x8, addend: 0x0, symName: __ZNSt3__117__compressed_pairINS_12basic_stringIcNS_11char_traitsIcEENS_9allocatorIcEEE5__repES5_EC2B8ue170006INS_18__default_init_tagERKS5_EEOT_OT0_, symObjAddr: 0x2134, symBinAddr: 0x1000031D0, symSize: 0x40 }
  - { offsetInCU: 0xA398, offset: 0xA398, size: 0x8, addend: 0x0, symName: __ZNSt3__122__compressed_pair_elemINS_9allocatorIcEELi1ELb1EEC2B8ue170006IRKS2_vEEOT_, symObjAddr: 0x2174, symBinAddr: 0x100003210, symSize: 0x18 }
  - { offsetInCU: 0xA3DA, offset: 0xA3DA, size: 0x8, addend: 0x0, symName: __ZNSt12length_errorC1B8ue170006EPKc, symObjAddr: 0x21F0, symBinAddr: 0x10000328C, symSize: 0x34 }
  - { offsetInCU: 0xA412, offset: 0xA412, size: 0x8, addend: 0x0, symName: __ZNSt12length_errorC2B8ue170006EPKc, symObjAddr: 0x2224, symBinAddr: 0x1000032C0, symSize: 0x4C }
  - { offsetInCU: 0xA481, offset: 0xA481, size: 0x8, addend: 0x0, symName: __ZNKSt3__114__copy_trivialclB8ue170006IKccLi0EEENS_4pairIPT_PT0_EES5_S5_S7_, symObjAddr: 0x2490, symBinAddr: 0x10000352C, symSize: 0x48 }
  - { offsetInCU: 0xA502, offset: 0xA502, size: 0x8, addend: 0x0, symName: __ZNSt3__14pairIPKcS2_EC1B8ue170006ERKS2_S5_, symObjAddr: 0x260C, symBinAddr: 0x1000036A8, symSize: 0x3C }
  - { offsetInCU: 0xA548, offset: 0xA548, size: 0x8, addend: 0x0, symName: __ZNSt3__14pairIPKcS2_EC2B8ue170006ERKS2_S5_, symObjAddr: 0x2648, symBinAddr: 0x1000036E4, symSize: 0x34 }
  - { offsetInCU: 0xA58E, offset: 0xA58E, size: 0x8, addend: 0x0, symName: __ZNSt3__118__unwrap_iter_implIPKcLb1EE8__unwrapB8ue170006ES2_, symObjAddr: 0x267C, symBinAddr: 0x100003718, symSize: 0x24 }
  - { offsetInCU: 0xA5B1, offset: 0xA5B1, size: 0x8, addend: 0x0, symName: __ZNSt3__14pairIPKcPcEC1B8ue170006ERKS2_RKS3_, symObjAddr: 0x27F0, symBinAddr: 0x10000388C, symSize: 0x3C }
  - { offsetInCU: 0xA5F7, offset: 0xA5F7, size: 0x8, addend: 0x0, symName: __ZNSt3__14pairIPKcPcEC2B8ue170006ERKS2_RKS3_, symObjAddr: 0x282C, symBinAddr: 0x1000038C8, symSize: 0x34 }
  - { offsetInCU: 0xA63D, offset: 0xA63D, size: 0x8, addend: 0x0, symName: __ZNSt3__118__unwrap_iter_implIPcLb1EE8__unwrapB8ue170006ES1_, symObjAddr: 0x2860, symBinAddr: 0x1000038FC, symSize: 0x24 }
  - { offsetInCU: 0xA660, offset: 0xA660, size: 0x8, addend: 0x0, symName: __ZNSt3__118__unwrap_iter_implIPKcLb1EE8__rewrapB8ue170006ES2_S2_, symObjAddr: 0x28D4, symBinAddr: 0x100003970, symSize: 0x48 }
  - { offsetInCU: 0xA691, offset: 0xA691, size: 0x8, addend: 0x0, symName: __ZNSt3__118__unwrap_iter_implIPcLb1EE8__rewrapB8ue170006ES1_S1_, symObjAddr: 0x291C, symBinAddr: 0x1000039B8, symSize: 0x48 }
...
